 oracledb

 Timestamp is 5731d308 (Tue May 10 21:24:40 2016)

 Preferred load address is 0000000180000000

 Start         Length     Name                   Class
 0001:00000000 000000b0H .text$di                CODE
 0001:000000b0 0003ab53H .text$mn                CODE
 0001:0003ac10 00002f20H .text$x                 CODE
 0001:0003db30 00000114H .text$yd                CODE
 0002:00000000 00000378H .idata$5                DATA
 0002:00000378 00000008H .CRT$XCA                DATA
 0002:00000380 00000018H .CRT$XCC                DATA
 0002:00000398 00000010H .CRT$XCL                DATA
 0002:000003a8 00000030H .CRT$XCU                DATA
 0002:000003d8 00000008H .CRT$XCZ                DATA
 0002:000003e0 00000008H .CRT$XIA                DATA
 0002:000003e8 00000020H .CRT$XIC                DATA
 0002:00000408 00000008H .CRT$XIZ                DATA
 0002:00000410 00000008H .CRT$XPA                DATA
 0002:00000418 00000010H .CRT$XPX                DATA
 0002:00000428 00000008H .CRT$XPXA               DATA
 0002:00000430 00000008H .CRT$XPZ                DATA
 0002:00000438 00000008H .CRT$XTA                DATA
 0002:00000440 00000008H .CRT$XTZ                DATA
 0002:00000450 0000c060H .rdata                  DATA
 0002:0000c4b0 00000080H .rdata$debug            DATA
 0002:0000c530 00000754H .rdata$r                DATA
 0002:0000cc88 00000008H .rtc$IAA                DATA
 0002:0000cc90 00000008H .rtc$IZZ                DATA
 0002:0000cc98 00000008H .rtc$TAA                DATA
 0002:0000cca0 00000008H .rtc$TZZ                DATA
 0002:0000ccb0 000071b0H .xdata                  DATA
 0002:00013e60 00000294H .xdata$x                DATA
 0002:000140f4 00000020H .didat$2                DATA
 0002:00014114 00000020H .didat$3                DATA
 0002:00014138 000002c8H .didat$4                DATA
 0002:00014400 000015b2H .didat$6                DATA
 0002:000159b8 000002c8H .didat$7                DATA
 0002:00015c80 00000054H .edata                  DATA
 0002:00015cd4 00000028H .idata$2                DATA
 0002:00015cfc 00000014H .idata$3                DATA
 0002:00015d10 00000378H .idata$4                DATA
 0002:00016088 0000081cH .idata$6                DATA
 0003:00000000 00001ba8H .data                   DATA
 0003:00001bb0 00000307H .data$r                 DATA
 0003:00001eb8 000002c8H .didat$5                DATA
 0003:00002180 00002930H .bss                    DATA
 0004:00000000 00002814H .pdata                  DATA
 0005:00000000 00000058H .rsrc$01                DATA
 0005:00000060 00000180H .rsrc$02                DATA

  Address         Publics by Value              Rva+Base               Lib:Object

 0000:00000000       __guard_fids_count         0000000000000000     <absolute>
 0000:00000000       __guard_fids_table         0000000000000000     <absolute>
 0000:00000000       ___safe_se_handler_table   0000000000000000     <absolute>
 0000:00000000       ___safe_se_handler_count   0000000000000000     <absolute>
 0000:00000000       __guard_flags              0000000000000000     <absolute>
 0000:00000000       __ImageBase                0000000180000000     <linker-defined>
 0001:000000b0       ?what@exception@stdext@@UEBAPEBDXZ 00000001800010b0 f i njsOracle.obj
 0001:000000d0       ?_Raise@exception@stdext@@QEBAXXZ 00000001800010d0 f i njsOracle.obj
 0001:00000110       ??1?$Persistent@VObject@v8@@V?$NonCopyablePersistentTraits@VObject@v8@@@2@@Nan@@QEAA@XZ 0000000180001110 f i njsOracle.obj
 0001:00000110       ?_Doraise@exception@stdext@@MEBAXXZ 0000000180001110 f i njsOracle.obj
 0001:00000110       ?imbue@?$basic_streambuf@DU?$char_traits@D@std@@@std@@MEAAXAEBVlocale@2@@Z 0000000180001110 f i njsOracle.obj
 0001:00000110       ??1?$Persistent@VFunction@v8@@V?$NonCopyablePersistentTraits@VFunction@v8@@@2@@Nan@@QEAA@XZ 0000000180001110 f i njsOracle.obj
 0001:00000110       ?_Unlock@?$basic_streambuf@DU?$char_traits@D@std@@@std@@UEAAXXZ 0000000180001110 f i njsOracle.obj
 0001:00000110       ?lobPrefetchSize@ConnImpl@@UEAAXI@Z 0000000180001110 f i dpiConnImpl.obj
 0001:00000110       ?_Lock@?$basic_streambuf@DU?$char_traits@D@std@@@std@@UEAAXXZ 0000000180001110 f i njsOracle.obj
 0001:00000120       ??_G_System_error@std@@UEAAPEAXI@Z 0000000180001120 f i njsOracle.obj
 0001:00000120       ??_E_System_error@std@@UEAAPEAXI@Z 0000000180001120 f i * CIL library *:* CIL module *
 0001:00000120       ??_GException@dpi@@UEAAPEAXI@Z 0000000180001120 f i dpiEnvImpl.obj
 0001:00000120       ??_Eruntime_error@std@@UEAAPEAXI@Z 0000000180001120 f i * CIL library *:* CIL module *
 0001:00000120       ??_Gsystem_error@std@@UEAAPEAXI@Z 0000000180001120 f i njsOracle.obj
 0001:00000120       ??_Gexception@stdext@@UEAAPEAXI@Z 0000000180001120 f i njsOracle.obj
 0001:00000120       ??_Esystem_error@std@@UEAAPEAXI@Z 0000000180001120 f i * CIL library *:* CIL module *
 0001:00000120       ??_Gfailure@ios_base@std@@UEAAPEAXI@Z 0000000180001120 f i njsOracle.obj
 0001:00000120       ??_Efailure@ios_base@std@@UEAAPEAXI@Z 0000000180001120 f i * CIL library *:* CIL module *
 0001:00000120       ??_EException@dpi@@UEAAPEAXI@Z 0000000180001120 f i * CIL library *:* CIL module *
 0001:00000120       ??_Eexception@stdext@@UEAAPEAXI@Z 0000000180001120 f i * CIL library *:* CIL module *
 0001:00000120       ??_Gruntime_error@std@@UEAAPEAXI@Z 0000000180001120 f i njsOracle.obj
 0001:00000150       ?_Doraise@system_error@std@@MEBAXXZ 0000000180001150 f i njsOracle.obj
 0001:00000150       ?_Doraise@runtime_error@std@@MEBAXXZ 0000000180001150 f i njsOracle.obj
 0001:00000150       ?_Doraise@failure@ios_base@std@@MEBAXXZ 0000000180001150 f i njsOracle.obj
 0001:00000170       ??1Exception@dpi@@UEAA@XZ  0000000180001170 f i dpiException.obj
 0001:00000170       ??1runtime_error@std@@UEAA@XZ 0000000180001170 f i njsOracle.obj
 0001:00000170       ??1failure@ios_base@std@@UEAA@XZ 0000000180001170 f i njsOracle.obj
 0001:00000180       ??0_Locinfo@std@@QEAA@PEBD@Z 0000000180001180 f i njsOracle.obj
 0001:00000220       ??1_Locinfo@std@@QEAA@XZ   0000000180001220 f i njsOracle.obj
 0001:000002c0       ??_G?$num_put@DV?$ostreambuf_iterator@DU?$char_traits@D@std@@@std@@@std@@MEAAPEAXI@Z 00000001800012c0 f i njsOracle.obj
 0001:000002c0       ??_G_Facet_base@std@@UEAAPEAXI@Z 00000001800012c0 f i njsOracle.obj
 0001:000002c0       ??_E_Facet_base@std@@UEAAPEAXI@Z 00000001800012c0 f i * CIL library *:* CIL module *
 0001:000002c0       ??_E?$num_put@DV?$ostreambuf_iterator@DU?$char_traits@D@std@@@std@@@std@@MEAAPEAXI@Z 00000001800012c0 f i * CIL library *:* CIL module *
 0001:000002f0       ?_Incref@facet@locale@std@@UEAAXXZ 00000001800012f0 f i njsOracle.obj
 0001:00000300       ?_Decref@facet@locale@std@@UEAAPEAV_Facet_base@3@XZ 0000000180001300 f i njsOracle.obj
 0001:00000310       ??1facet@locale@std@@MEAA@XZ 0000000180001310 f i njsOracle.obj
 0001:00000320       ??1locale@std@@QEAA@XZ     0000000180001320 f i njsOracle.obj
 0001:00000350       ?_Getcat@?$ctype@D@std@@SA_KPEAPEBVfacet@locale@2@PEBV42@@Z 0000000180001350 f i njsOracle.obj
 0001:00000440       ?do_tolower@?$ctype@D@std@@MEBADD@Z 0000000180001440 f i njsOracle.obj
 0001:00000450       ?do_tolower@?$ctype@D@std@@MEBAPEBDPEADPEBD@Z 0000000180001450 f i njsOracle.obj
 0001:000004c0       ?do_toupper@?$ctype@D@std@@MEBADD@Z 00000001800014c0 f i njsOracle.obj
 0001:000004d0       ?do_toupper@?$ctype@D@std@@MEBAPEBDPEADPEBD@Z 00000001800014d0 f i njsOracle.obj
 0001:00000540       ?do_widen@?$ctype@D@std@@MEBADD@Z 0000000180001540 f i njsOracle.obj
 0001:00000540       ?do_narrow@?$ctype@D@std@@MEBADDD@Z 0000000180001540 f i njsOracle.obj
 0001:00000550       ?do_widen@?$ctype@D@std@@MEBAPEBDPEBD0PEAD@Z 0000000180001550 f i njsOracle.obj
 0001:00000570       ?do_narrow@?$ctype@D@std@@MEBAPEBDPEBD0DPEAD@Z 0000000180001570 f i njsOracle.obj
 0001:00000590       ??_G?$ctype@D@std@@MEAAPEAXI@Z 0000000180001590 f i njsOracle.obj
 0001:00000590       ??_E?$ctype@D@std@@MEAAPEAXI@Z 0000000180001590 f i * CIL library *:* CIL module *
 0001:00000600       ?message@error_code@std@@QEBA?AV?$basic_string@DU?$char_traits@D@std@@V?$allocator@D@2@@2@XZ 0000000180001600 f i njsOracle.obj
 0001:00000630       ?_Makestr@_System_error@std@@CA?AV?$basic_string@DU?$char_traits@D@std@@V?$allocator@D@2@@2@Verror_code@2@V32@@Z 0000000180001630 f i njsOracle.obj
 0001:00000700       ??0system_error@std@@QEAA@Verror_code@1@PEBD@Z 0000000180001700 f i njsOracle.obj
 0001:00000850       ?clear@ios_base@std@@QEAAXH_N@Z 0000000180001850 f i njsOracle.obj
 0001:00000920       ?getloc@ios_base@std@@QEBA?AVlocale@2@XZ 0000000180001920 f i njsOracle.obj
 0001:00000950       ?_Init@ios_base@std@@IEAAXXZ 0000000180001950 f i njsOracle.obj
 0001:000009e0       ??_G?$basic_ios@DU?$char_traits@D@std@@@std@@UEAAPEAXI@Z 00000001800019e0 f i njsOracle.obj
 0001:000009e0       ??_Gios_base@std@@UEAAPEAXI@Z 00000001800019e0 f i njsOracle.obj
 0001:000009e0       ??_Eios_base@std@@UEAAPEAXI@Z 00000001800019e0 f i * CIL library *:* CIL module *
 0001:000009e0       ??_E?$basic_ios@DU?$char_traits@D@std@@@std@@UEAAPEAXI@Z 00000001800019e0 f i * CIL library *:* CIL module *
 0001:00000c40       ?New@?$Factory@VFunctionTemplate@v8@@@imp@Nan@@SA?AV?$Local@VFunctionTemplate@v8@@@v8@@P6AXAEBV?$FunctionCallbackInfo@VValue@v8@@@3@@ZV?$Local@VValue@v8@@@5@V?$Local@VSignature@v8@@@5@@Z 0000000180001c40 f i njsOracle.obj
 0001:00000dd0       ??1EscapableHandleScope@Nan@@QEAA@XZ 0000000180001dd0 f i njsPool.obj
 0001:00000dd0       ??1HandleScope@Nan@@QEAA@XZ 0000000180001dd0 f i njsOracle.obj
 0001:00000de0       ?SetAccessor@Nan@@YAXV?$Local@VObjectTemplate@v8@@@v8@@V?$Local@VString@v8@@@3@P6AX1AEBV?$PropertyCallbackInfo@VValue@v8@@@1@@ZP6AX1V?$Local@VValue@v8@@@3@AEBV?$PropertyCallbackInfo@X@1@@Z4W4AccessControl@3@W4PropertyAttribute@3@V?$Local@VAccessorSignature@v8@@@3@@Z 0000000180001de0 f i njsOracle.obj
 0001:00000f80       ??1ObjectWrap@Nan@@UEAA@XZ 0000000180001f80 f i njsOracle.obj
 0001:00001000       ?Wrap@ObjectWrap@Nan@@IEAAXV?$Local@VObject@v8@@@v8@@@Z 0000000180002000 f i njsOracle.obj
 0001:000010e0       ?Ref@ObjectWrap@Nan@@MEAAXXZ 00000001800020e0 f i njsOracle.obj
 0001:00001120       ?Unref@ObjectWrap@Nan@@MEAAXXZ 0000000180002120 f i njsOracle.obj
 0001:000011d0       ?WeakCallback@ObjectWrap@Nan@@CAXAEBV?$WeakCallbackInfo@VObjectWrap@Nan@@@v8@@@Z 00000001800021d0 f i njsOracle.obj
 0001:00001260       ??_GObjectWrap@Nan@@UEAAPEAXI@Z 0000000180002260 f i njsOracle.obj
 0001:00001260       ??_EObjectWrap@Nan@@UEAAPEAXI@Z 0000000180002260 f i * CIL library *:* CIL module *
 0001:00001290       ??0connectionBaton@@QEAA@V?$Local@VFunction@v8@@@v8@@@Z 0000000180002290 f i njsOracle.obj
 0001:00001410       ??1connectionBaton@@QEAA@XZ 0000000180002410 f i njsOracle.obj
 0001:00001540       ??0Oracledb@@AEAA@XZ       0000000180002540 f   njsOracle.obj
 0001:00001660       ??_GOracledb@@EEAAPEAXI@Z  0000000180002660 f i njsOracle.obj
 0001:00001660       ??_EOracledb@@EEAAPEAXI@Z  0000000180002660 f i * CIL library *:* CIL module *
 0001:00001690       ??1Oracledb@@EEAA@XZ       0000000180002690 f   njsOracle.obj
 0001:00001770       ?driverName@Oracledb@@AEBA?BV?$basic_string@DU?$char_traits@D@std@@V?$allocator@D@2@@std@@XZ 0000000180002770 f   njsOracle.obj
 0001:00001850       ??_D?$basic_stringstream@DU?$char_traits@D@std@@V?$allocator@D@2@@std@@QEAAXXZ 0000000180002850 f i njsOracle.obj
 0001:00001880       ?Init@Oracledb@@SAXV?$Local@VObject@v8@@@v8@@@Z 0000000180002880 f   njsOracle.obj
 0001:00002200       ?New@Oracledb@@CAXAEBV?$FunctionCallbackInfo@VValue@v8@@@Nan@@@Z 0000000180003200 f   njsOracle.obj
 0001:00002310       ?GetPoolMin@Oracledb@@CAXV?$Local@VString@v8@@@v8@@AEBV?$PropertyCallbackInfo@VValue@v8@@@Nan@@@Z 0000000180003310 f   njsOracle.obj
 0001:000024a0       ?SetPoolMin@Oracledb@@CAXV?$Local@VString@v8@@@v8@@V?$Local@VValue@v8@@@3@AEBV?$PropertyCallbackInfo@X@Nan@@@Z 00000001800034a0 f   njsOracle.obj
 0001:000026e0       ?GetPoolMax@Oracledb@@CAXV?$Local@VString@v8@@@v8@@AEBV?$PropertyCallbackInfo@VValue@v8@@@Nan@@@Z 00000001800036e0 f   njsOracle.obj
 0001:00002870       ?SetPoolMax@Oracledb@@CAXV?$Local@VString@v8@@@v8@@V?$Local@VValue@v8@@@3@AEBV?$PropertyCallbackInfo@X@Nan@@@Z 0000000180003870 f   njsOracle.obj
 0001:00002ab0       ?GetPoolIncrement@Oracledb@@CAXV?$Local@VString@v8@@@v8@@AEBV?$PropertyCallbackInfo@VValue@v8@@@Nan@@@Z 0000000180003ab0 f   njsOracle.obj
 0001:00002c60       ?SetPoolIncrement@Oracledb@@CAXV?$Local@VString@v8@@@v8@@V?$Local@VValue@v8@@@3@AEBV?$PropertyCallbackInfo@X@Nan@@@Z 0000000180003c60 f   njsOracle.obj
 0001:00002ea0       ?GetPoolTimeout@Oracledb@@CAXV?$Local@VString@v8@@@v8@@AEBV?$PropertyCallbackInfo@VValue@v8@@@Nan@@@Z 0000000180003ea0 f   njsOracle.obj
 0001:00003030       ?SetPoolTimeout@Oracledb@@CAXV?$Local@VString@v8@@@v8@@V?$Local@VValue@v8@@@3@AEBV?$PropertyCallbackInfo@X@Nan@@@Z 0000000180004030 f   njsOracle.obj
 0001:00003270       ?GetMaxRows@Oracledb@@CAXV?$Local@VString@v8@@@v8@@AEBV?$PropertyCallbackInfo@VValue@v8@@@Nan@@@Z 0000000180004270 f   njsOracle.obj
 0001:00003420       ?SetMaxRows@Oracledb@@CAXV?$Local@VString@v8@@@v8@@V?$Local@VValue@v8@@@3@AEBV?$PropertyCallbackInfo@X@Nan@@@Z 0000000180004420 f   njsOracle.obj
 0001:00003660       ?GetOutFormat@Oracledb@@CAXV?$Local@VString@v8@@@v8@@AEBV?$PropertyCallbackInfo@VValue@v8@@@Nan@@@Z 0000000180004660 f   njsOracle.obj
 0001:000037f0       ?SetOutFormat@Oracledb@@CAXV?$Local@VString@v8@@@v8@@V?$Local@VValue@v8@@@3@AEBV?$PropertyCallbackInfo@X@Nan@@@Z 00000001800047f0 f   njsOracle.obj
 0001:00003a30       ?GetStmtCacheSize@Oracledb@@CAXV?$Local@VString@v8@@@v8@@AEBV?$PropertyCallbackInfo@VValue@v8@@@Nan@@@Z 0000000180004a30 f   njsOracle.obj
 0001:00003be0       ?SetStmtCacheSize@Oracledb@@CAXV?$Local@VString@v8@@@v8@@V?$Local@VValue@v8@@@3@AEBV?$PropertyCallbackInfo@X@Nan@@@Z 0000000180004be0 f   njsOracle.obj
 0001:00003e20       ?GetPrefetchRows@Oracledb@@CAXV?$Local@VString@v8@@@v8@@AEBV?$PropertyCallbackInfo@VValue@v8@@@Nan@@@Z 0000000180004e20 f   njsOracle.obj
 0001:00003fb0       ?SetPrefetchRows@Oracledb@@CAXV?$Local@VString@v8@@@v8@@V?$Local@VValue@v8@@@3@AEBV?$PropertyCallbackInfo@X@Nan@@@Z 0000000180004fb0 f   njsOracle.obj
 0001:000041f0       ?GetAutoCommit@Oracledb@@CAXV?$Local@VString@v8@@@v8@@AEBV?$PropertyCallbackInfo@VValue@v8@@@Nan@@@Z 00000001800051f0 f   njsOracle.obj
 0001:00004360       ?SetAutoCommit@Oracledb@@CAXV?$Local@VString@v8@@@v8@@V?$Local@VValue@v8@@@3@AEBV?$PropertyCallbackInfo@X@Nan@@@Z 0000000180005360 f   njsOracle.obj
 0001:00004490       ?GetVersion@Oracledb@@CAXV?$Local@VString@v8@@@v8@@AEBV?$PropertyCallbackInfo@VValue@v8@@@Nan@@@Z 0000000180005490 f   njsOracle.obj
 0001:000044b0       ?SetVersion@Oracledb@@CAXV?$Local@VString@v8@@@v8@@V?$Local@VValue@v8@@@3@AEBV?$PropertyCallbackInfo@X@Nan@@@Z 00000001800054b0 f   njsOracle.obj
 0001:00004610       ?GetConnectionClass@Oracledb@@CAXV?$Local@VString@v8@@@v8@@AEBV?$PropertyCallbackInfo@VValue@v8@@@Nan@@@Z 0000000180005610 f   njsOracle.obj
 0001:000047b0       ?SetConnectionClass@Oracledb@@CAXV?$Local@VString@v8@@@v8@@V?$Local@VValue@v8@@@3@AEBV?$PropertyCallbackInfo@X@Nan@@@Z 00000001800057b0 f   njsOracle.obj
 0001:00004960       ?GetExternalAuth@Oracledb@@CAXV?$Local@VString@v8@@@v8@@AEBV?$PropertyCallbackInfo@VValue@v8@@@Nan@@@Z 0000000180005960 f   njsOracle.obj
 0001:00004ab0       ?SetExternalAuth@Oracledb@@CAXV?$Local@VString@v8@@@v8@@V?$Local@VValue@v8@@@3@AEBV?$PropertyCallbackInfo@X@Nan@@@Z 0000000180005ab0 f   njsOracle.obj
 0001:00004be0       ?GetLobPrefetchSize@Oracledb@@CAXV?$Local@VString@v8@@@v8@@AEBV?$PropertyCallbackInfo@VValue@v8@@@Nan@@@Z 0000000180005be0 f   njsOracle.obj
 0001:00004d90       ?SetLobPrefetchSize@Oracledb@@CAXV?$Local@VString@v8@@@v8@@V?$Local@VValue@v8@@@3@AEBV?$PropertyCallbackInfo@X@Nan@@@Z 0000000180005d90 f   njsOracle.obj
 0001:00004fd0       ?GetFetchAsString@Oracledb@@CAXV?$Local@VString@v8@@@v8@@AEBV?$PropertyCallbackInfo@VValue@v8@@@Nan@@@Z 0000000180005fd0 f   njsOracle.obj
 0001:000051f0       ?SetFetchAsString@Oracledb@@CAXV?$Local@VString@v8@@@v8@@V?$Local@VValue@v8@@@3@AEBV?$PropertyCallbackInfo@X@Nan@@@Z 00000001800061f0 f   njsOracle.obj
 0001:000055e0       ?GetOracleClientVersion@Oracledb@@CAXV?$Local@VString@v8@@@v8@@AEBV?$PropertyCallbackInfo@VValue@v8@@@Nan@@@Z 00000001800065e0 f   njsOracle.obj
 0001:00005790       ?SetOracleClientVersion@Oracledb@@CAXV?$Local@VString@v8@@@v8@@V?$Local@VValue@v8@@@3@AEBV?$PropertyCallbackInfo@X@Nan@@@Z 0000000180006790 f   njsOracle.obj
 0001:000058f0       ?GetConnection@Oracledb@@CAXAEBV?$FunctionCallbackInfo@VValue@v8@@@Nan@@@Z 00000001800068f0 f   njsOracle.obj
 0001:000062d0       ?Async_GetConnection@Oracledb@@CAXPEAUuv_work_s@@@Z 00000001800072d0 f   njsOracle.obj
 0001:00006380       ?Async_AfterGetConnection@Oracledb@@CAXPEAUuv_work_s@@@Z 0000000180007380 f   njsOracle.obj
 0001:00006580       ??1TryCatch@Nan@@QEAA@XZ   0000000180007580 f i njsOracle.obj
 0001:00006590       ?CreatePool@Oracledb@@CAXAEBV?$FunctionCallbackInfo@VValue@v8@@@Nan@@@Z 0000000180007590 f   njsOracle.obj
 0001:000072e0       ?Async_CreatePool@Oracledb@@CAXPEAUuv_work_s@@@Z 00000001800082e0 f   njsOracle.obj
 0001:000073a0       ?Async_AfterCreatePool@Oracledb@@CAXPEAUuv_work_s@@@Z 00000001800083a0 f   njsOracle.obj
 0001:00007650       ??0?$basic_string@DU?$char_traits@D@std@@V?$allocator@D@2@@std@@QEAA@XZ 0000000180008650 f i njsOracle.obj
 0001:00007670       ??0?$basic_string@DU?$char_traits@D@std@@V?$allocator@D@2@@std@@QEAA@$$QEAV01@@Z 0000000180008670 f i njsOracle.obj
 0001:000076f0       ??4?$basic_string@DU?$char_traits@D@std@@V?$allocator@D@2@@std@@QEAAAEAV01@$$QEAV01@@Z 00000001800086f0 f i njsOracle.obj
 0001:00007740       ??1?$basic_string@DU?$char_traits@D@std@@V?$allocator@D@2@@std@@QEAA@XZ 0000000180008740 f i njsOracle.obj
 0001:00007740       ??1fetchInfo@@QEAA@XZ      0000000180008740 f i njsConnection.obj
 0001:00007780       ??1?$_Yarn@_W@std@@QEAA@XZ 0000000180008780 f i njsOracle.obj
 0001:00007780       ??1?$_Yarn@D@std@@QEAA@XZ  0000000180008780 f i njsOracle.obj
 0001:000077b0       ??1?$basic_istream@DU?$char_traits@D@std@@@std@@UEAA@XZ 00000001800087b0 f i njsOracle.obj
 0001:000077e0       ??1?$basic_ios@DU?$char_traits@D@std@@@std@@UEAA@XZ 00000001800087e0 f i njsOracle.obj
 0001:000077f0       ??1?$basic_streambuf@DU?$char_traits@D@std@@@std@@UEAA@XZ 00000001800087f0 f i njsOracle.obj
 0001:00007840       ?pbackfail@?$basic_streambuf@DU?$char_traits@D@std@@@std@@MEAAHH@Z 0000000180008840 f i njsOracle.obj
 0001:00007840       ?underflow@?$basic_streambuf@DU?$char_traits@D@std@@@std@@MEAAHXZ 0000000180008840 f i njsOracle.obj
 0001:00007840       ?overflow@?$basic_streambuf@DU?$char_traits@D@std@@@std@@MEAAHH@Z 0000000180008840 f i njsOracle.obj
 0001:00007850       __init_dummy               0000000180008850 f i LIBCMT:wsetloca.obj
 0001:00007850       __init_collate             0000000180008850 f i LIBCMT:initcoll.obj
 0001:00007850       ?sync@?$basic_streambuf@DU?$char_traits@D@std@@@std@@MEAAHXZ 0000000180008850 f i njsOracle.obj
 0001:00007850       ?showmanyc@?$basic_streambuf@DU?$char_traits@D@std@@@std@@MEAA_JXZ 0000000180008850 f i njsOracle.obj
 0001:00007860       ?uflow@?$basic_streambuf@DU?$char_traits@D@std@@@std@@MEAAHXZ 0000000180008860 f i njsOracle.obj
 0001:000078a0       ?xsgetn@?$basic_streambuf@DU?$char_traits@D@std@@@std@@MEAA_JPEAD_J@Z 00000001800088a0 f i njsOracle.obj
 0001:00007960       ?xsputn@?$basic_streambuf@DU?$char_traits@D@std@@@std@@MEAA_JPEBD_J@Z 0000000180008960 f i njsOracle.obj
 0001:00007a20       ?seekpos@?$basic_streambuf@DU?$char_traits@D@std@@@std@@MEAA?AV?$fpos@H@2@V32@H@Z 0000000180008a20 f i njsOracle.obj
 0001:00007a20       ?seekoff@?$basic_streambuf@DU?$char_traits@D@std@@@std@@MEAA?AV?$fpos@H@2@_JHH@Z 0000000180008a20 f i njsOracle.obj
 0001:00007a40       ?setbuf@?$basic_streambuf@DU?$char_traits@D@std@@@std@@MEAAPEAV12@PEAD_J@Z 0000000180008a40 f i njsOracle.obj
 0001:00007a50       ??6?$basic_ostream@DU?$char_traits@D@std@@@std@@QEAAAEAV01@H@Z 0000000180008a50 f i njsOracle.obj
 0001:00007c00       ??0?$basic_stringstream@DU?$char_traits@D@std@@V?$allocator@D@2@@std@@QEAA@H@Z 0000000180008c00 f i njsOracle.obj
 0001:00007cc0       ??1?$basic_stringstream@DU?$char_traits@D@std@@V?$allocator@D@2@@std@@UEAA@XZ 0000000180008cc0 f i njsOracle.obj
 0001:00007d90       ?str@?$basic_stringstream@DU?$char_traits@D@std@@V?$allocator@D@2@@std@@QEBA?AV?$basic_string@DU?$char_traits@D@std@@V?$allocator@D@2@@2@XZ 0000000180008d90 f i njsOracle.obj
 0001:00007dc0       ??1?$basic_iostream@DU?$char_traits@D@std@@@std@@UEAA@XZ 0000000180008dc0 f i njsOracle.obj
 0001:00007e40       ??1?$basic_stringbuf@DU?$char_traits@D@std@@V?$allocator@D@2@@std@@UEAA@XZ 0000000180008e40 f i njsOracle.obj
 0001:00007ee0       ?overflow@?$basic_stringbuf@DU?$char_traits@D@std@@V?$allocator@D@2@@std@@MEAAHH@Z 0000000180008ee0 f i njsOracle.obj
 0001:00008160       ?pbackfail@?$basic_stringbuf@DU?$char_traits@D@std@@V?$allocator@D@2@@std@@MEAAHH@Z 0000000180009160 f i njsOracle.obj
 0001:000081b0       ?underflow@?$basic_stringbuf@DU?$char_traits@D@std@@V?$allocator@D@2@@std@@MEAAHXZ 00000001800091b0 f i njsOracle.obj
 0001:00008210       ?seekoff@?$basic_stringbuf@DU?$char_traits@D@std@@V?$allocator@D@2@@std@@MEAA?AV?$fpos@H@2@_JHH@Z 0000000180009210 f i njsOracle.obj
 0001:000083a0       ?seekpos@?$basic_stringbuf@DU?$char_traits@D@std@@V?$allocator@D@2@@std@@MEAA?AV?$fpos@H@2@V32@H@Z 00000001800093a0 f i njsOracle.obj
 0001:000084b0       ??_G?$basic_istream@DU?$char_traits@D@std@@@std@@UEAAPEAXI@Z 00000001800094b0 f i njsOracle.obj
 0001:000084b0       ??_E?$basic_istream@DU?$char_traits@D@std@@@std@@UEAAPEAXI@Z 00000001800094b0 f i * CIL library *:* CIL module *
 0001:00008520       ??_G?$basic_streambuf@DU?$char_traits@D@std@@@std@@UEAAPEAXI@Z 0000000180009520 f i njsOracle.obj
 0001:00008520       ??_E?$basic_streambuf@DU?$char_traits@D@std@@@std@@UEAAPEAXI@Z 0000000180009520 f i * CIL library *:* CIL module *
 0001:000085a0       ??_G?$basic_ostream@DU?$char_traits@D@std@@@std@@UEAAPEAXI@Z 00000001800095a0 f i njsOracle.obj
 0001:000085a0       ??_E?$basic_ostream@DU?$char_traits@D@std@@@std@@UEAAPEAXI@Z 00000001800095a0 f i * CIL library *:* CIL module *
 0001:00008610       ??_G?$basic_stringstream@DU?$char_traits@D@std@@V?$allocator@D@2@@std@@UEAAPEAXI@Z 0000000180009610 f i njsOracle.obj
 0001:00008610       ??_E?$basic_stringstream@DU?$char_traits@D@std@@V?$allocator@D@2@@std@@UEAAPEAXI@Z 0000000180009610 f i * CIL library *:* CIL module *
 0001:00008670       ??_G?$basic_iostream@DU?$char_traits@D@std@@@std@@UEAAPEAXI@Z 0000000180009670 f i njsOracle.obj
 0001:00008670       ??_E?$basic_iostream@DU?$char_traits@D@std@@@std@@UEAAPEAXI@Z 0000000180009670 f i * CIL library *:* CIL module *
 0001:000086b0       ??_E?$basic_stringbuf@DU?$char_traits@D@std@@V?$allocator@D@2@@std@@UEAAPEAXI@Z 00000001800096b0 f i * CIL library *:* CIL module *
 0001:000086b0       ??_G?$basic_stringbuf@DU?$char_traits@D@std@@V?$allocator@D@2@@std@@UEAAPEAXI@Z 00000001800096b0 f i njsOracle.obj
 0001:000086e0       ??_D?$basic_iostream@DU?$char_traits@D@std@@@std@@QEAAXXZ 00000001800096e0 f i njsOracle.obj
 0001:00008770       ?_Assign_rv@?$basic_string@DU?$char_traits@D@std@@V?$allocator@D@2@@std@@QEAAX$$QEAV12@@Z 0000000180009770 f i njsOracle.obj
 0001:000087e0       ?append@?$basic_string@DU?$char_traits@D@std@@V?$allocator@D@2@@std@@QEAAAEAV12@AEBV12@_K1@Z 00000001800097e0 f i njsOracle.obj
 0001:00008910       ?append@?$basic_string@DU?$char_traits@D@std@@V?$allocator@D@2@@std@@QEAAAEAV12@PEBD_K@Z 0000000180009910 f i njsOracle.obj
 0001:00008a60       ?assign@?$basic_string@DU?$char_traits@D@std@@V?$allocator@D@2@@std@@QEAAAEAV12@AEBV12@_K1@Z 0000000180009a60 f i njsOracle.obj
 0001:00008b90       ?assign@?$basic_string@DU?$char_traits@D@std@@V?$allocator@D@2@@std@@QEAAAEAV12@PEBD_K@Z 0000000180009b90 f i njsOracle.obj
 0001:00008cd0       ?init@?$basic_ios@DU?$char_traits@D@std@@@std@@IEAAXPEAV?$basic_streambuf@DU?$char_traits@D@std@@@2@_N@Z 0000000180009cd0 f i njsOracle.obj
 0001:00008d70       ?_Gnavail@?$basic_streambuf@DU?$char_traits@D@std@@@std@@IEBA_JXZ 0000000180009d70 f i njsOracle.obj
 0001:00008d90       ?_Pnavail@?$basic_streambuf@DU?$char_traits@D@std@@@std@@IEBA_JXZ 0000000180009d90 f i njsOracle.obj
 0001:00008db0       ??0?$basic_iostream@DU?$char_traits@D@std@@@std@@QEAA@PEAV?$basic_streambuf@DU?$char_traits@D@std@@@1@@Z 0000000180009db0 f i njsOracle.obj
 0001:00008e60       ?str@?$basic_stringbuf@DU?$char_traits@D@std@@V?$allocator@D@2@@std@@QEBA?AV?$basic_string@DU?$char_traits@D@std@@V?$allocator@D@2@@2@XZ 0000000180009e60 f i njsOracle.obj
 0001:00008ff0       ??0sentry@?$basic_ostream@DU?$char_traits@D@std@@@std@@QEAA@AEAV12@@Z 0000000180009ff0 f i njsOracle.obj
 0001:00009070       ??1sentry@?$basic_ostream@DU?$char_traits@D@std@@@std@@QEAA@XZ 000000018000a070 f i njsOracle.obj
 0001:000090f0       ?do_put@?$num_put@DV?$ostreambuf_iterator@DU?$char_traits@D@std@@@std@@@std@@MEBA?AV?$ostreambuf_iterator@DU?$char_traits@D@std@@@2@V32@AEAVios_base@2@D_N@Z 000000018000a0f0 f i njsOracle.obj
 0001:000093e0       ?do_put@?$num_put@DV?$ostreambuf_iterator@DU?$char_traits@D@std@@@std@@@std@@MEBA?AV?$ostreambuf_iterator@DU?$char_traits@D@std@@@2@V32@AEAVios_base@2@DJ@Z 000000018000a3e0 f i njsOracle.obj
 0001:000094e0       ?do_put@?$num_put@DV?$ostreambuf_iterator@DU?$char_traits@D@std@@@std@@@std@@MEBA?AV?$ostreambuf_iterator@DU?$char_traits@D@std@@@2@V32@AEAVios_base@2@DK@Z 000000018000a4e0 f i njsOracle.obj
 0001:000095e0       ?do_put@?$num_put@DV?$ostreambuf_iterator@DU?$char_traits@D@std@@@std@@@std@@MEBA?AV?$ostreambuf_iterator@DU?$char_traits@D@std@@@2@V32@AEAVios_base@2@D_J@Z 000000018000a5e0 f i njsOracle.obj
 0001:000096e0       ?do_put@?$num_put@DV?$ostreambuf_iterator@DU?$char_traits@D@std@@@std@@@std@@MEBA?AV?$ostreambuf_iterator@DU?$char_traits@D@std@@@2@V32@AEAVios_base@2@D_K@Z 000000018000a6e0 f i njsOracle.obj
 0001:000097e0       ?do_put@?$num_put@DV?$ostreambuf_iterator@DU?$char_traits@D@std@@@std@@@std@@MEBA?AV?$ostreambuf_iterator@DU?$char_traits@D@std@@@2@V32@AEAVios_base@2@DN@Z 000000018000a7e0 f i njsOracle.obj
 0001:00009a20       ?do_put@?$num_put@DV?$ostreambuf_iterator@DU?$char_traits@D@std@@@std@@@std@@MEBA?AV?$ostreambuf_iterator@DU?$char_traits@D@std@@@2@V32@AEAVios_base@2@DO@Z 000000018000aa20 f i njsOracle.obj
 0001:00009c50       ?do_put@?$num_put@DV?$ostreambuf_iterator@DU?$char_traits@D@std@@@std@@@std@@MEBA?AV?$ostreambuf_iterator@DU?$char_traits@D@std@@@2@V32@AEAVios_base@2@DPEBX@Z 000000018000ac50 f i njsOracle.obj
 0001:00009cf0       ?falsename@?$numpunct@D@std@@QEBA?AV?$basic_string@DU?$char_traits@D@std@@V?$allocator@D@2@@2@XZ 000000018000acf0 f i njsOracle.obj
 0001:00009d10       ?truename@?$numpunct@D@std@@QEBA?AV?$basic_string@DU?$char_traits@D@std@@V?$allocator@D@2@@2@XZ 000000018000ad10 f i njsOracle.obj
 0001:00009d30       ?do_decimal_point@?$numpunct@D@std@@MEBADXZ 000000018000ad30 f i njsOracle.obj
 0001:00009d40       ?do_thousands_sep@?$numpunct@D@std@@MEBADXZ 000000018000ad40 f i njsOracle.obj
 0001:00009d50       ?do_grouping@?$numpunct@D@std@@MEBA?AV?$basic_string@DU?$char_traits@D@std@@V?$allocator@D@2@@2@XZ 000000018000ad50 f i njsOracle.obj
 0001:00009da0       ?do_falsename@?$numpunct@D@std@@MEBA?AV?$basic_string@DU?$char_traits@D@std@@V?$allocator@D@2@@2@XZ 000000018000ada0 f i njsOracle.obj
 0001:00009df0       ?do_truename@?$numpunct@D@std@@MEBA?AV?$basic_string@DU?$char_traits@D@std@@V?$allocator@D@2@@2@XZ 000000018000adf0 f i njsOracle.obj
 0001:00009e40       ??_G?$numpunct@D@std@@MEAAPEAXI@Z 000000018000ae40 f i njsOracle.obj
 0001:00009e40       ??_E?$numpunct@D@std@@MEAAPEAXI@Z 000000018000ae40 f i * CIL library *:* CIL module *
 0001:00009ea0       ?insert@?$basic_string@DU?$char_traits@D@std@@V?$allocator@D@2@@std@@QEAAAEAV12@_K0D@Z 000000018000aea0 f i njsOracle.obj
 0001:0000a010       ?erase@?$basic_string@DU?$char_traits@D@std@@V?$allocator@D@2@@std@@QEAAAEAV12@_K0@Z 000000018000b010 f i njsOracle.obj
 0001:0000a0e0       ?_Grow@?$basic_string@DU?$char_traits@D@std@@V?$allocator@D@2@@std@@QEAA_N_K_N@Z 000000018000b0e0 f i njsOracle.obj
 0001:0000a1b0       ??0?$basic_streambuf@DU?$char_traits@D@std@@@std@@IEAA@XZ 000000018000b1b0 f i njsOracle.obj
 0001:0000a270       ?flush@?$basic_ostream@DU?$char_traits@D@std@@@std@@QEAAAEAV12@XZ 000000018000b270 f i njsOracle.obj
 0001:0000a360       ??1_Sentry_base@?$basic_ostream@DU?$char_traits@D@std@@@std@@QEAA@XZ 000000018000b360 f i njsOracle.obj
 0001:0000a380       ?_Fput@?$num_put@DV?$ostreambuf_iterator@DU?$char_traits@D@std@@@std@@@std@@AEBA?AV?$ostreambuf_iterator@DU?$char_traits@D@std@@@2@V32@AEAVios_base@2@DPEBD_K333@Z 000000018000b380 f i njsOracle.obj
 0001:0000ab10       ?_Iput@?$num_put@DV?$ostreambuf_iterator@DU?$char_traits@D@std@@@std@@@std@@AEBA?AV?$ostreambuf_iterator@DU?$char_traits@D@std@@@2@V32@AEAVios_base@2@DPEAD_K@Z 000000018000bb10 f i njsOracle.obj
 0001:0000b0c0       ?grouping@?$numpunct@D@std@@QEBA?AV?$basic_string@DU?$char_traits@D@std@@V?$allocator@D@2@@2@XZ 000000018000c0c0 f i njsOracle.obj
 0001:0000b0e0       ?assign@?$basic_string@DU?$char_traits@D@std@@V?$allocator@D@2@@std@@QEAAAEAV12@_KD@Z 000000018000c0e0 f i njsOracle.obj
 0001:0000b1f0       ?_Copy@?$basic_string@DU?$char_traits@D@std@@V?$allocator@D@2@@std@@QEAAX_K0@Z 000000018000c1f0 f i njsOracle.obj
 0001:0000b2e0       ??$use_facet@V?$ctype@D@std@@@std@@YAAEBV?$ctype@D@0@AEBVlocale@0@@Z 000000018000c2e0 f i njsOracle.obj
 0001:0000b3f0       ??$?6U?$char_traits@D@std@@@std@@YAAEAV?$basic_ostream@DU?$char_traits@D@std@@@0@AEAV10@PEBD@Z 000000018000c3f0 f i njsOracle.obj
 0001:0000b650       ??$Unwrap@VILob@@@ObjectWrap@Nan@@SAPEAVILob@@V?$Local@VObject@v8@@@v8@@@Z 000000018000c650 f i njsConnection.obj
 0001:0000b650       ??$Unwrap@VConnection@@@ObjectWrap@Nan@@SAPEAVConnection@@V?$Local@VObject@v8@@@v8@@@Z 000000018000c650 f i njsOracle.obj
 0001:0000b650       ??$Unwrap@VPool@@@ObjectWrap@Nan@@SAPEAVPool@@V?$Local@VObject@v8@@@v8@@@Z 000000018000c650 f i njsOracle.obj
 0001:0000b650       ??$Unwrap@VOracledb@@@ObjectWrap@Nan@@SAPEAVOracledb@@V?$Local@VObject@v8@@@v8@@@Z 000000018000c650 f i njsOracle.obj
 0001:0000b650       ??$Unwrap@VResultSet@@@ObjectWrap@Nan@@SAPEAVResultSet@@V?$Local@VObject@v8@@@v8@@@Z 000000018000c650 f i njsConnection.obj
 0001:0000b6d0       ??$use_facet@V?$num_put@DV?$ostreambuf_iterator@DU?$char_traits@D@std@@@std@@@std@@@std@@YAAEBV?$num_put@DV?$ostreambuf_iterator@DU?$char_traits@D@std@@@std@@@0@AEBVlocale@0@@Z 000000018000c6d0 f i njsOracle.obj
 0001:0000b7e0       ??$use_facet@V?$numpunct@D@std@@@std@@YAAEBV?$numpunct@D@0@AEBVlocale@0@@Z 000000018000c7e0 f i njsOracle.obj
 0001:0000b8f0       ?_Getcat@?$num_put@DV?$ostreambuf_iterator@DU?$char_traits@D@std@@@std@@@std@@SA_KPEAPEBVfacet@locale@2@PEBV42@@Z 000000018000c8f0 f i njsOracle.obj
 0001:0000b9c0       ?_Getcat@?$numpunct@D@std@@SA_KPEAPEBVfacet@locale@2@PEBV42@@Z 000000018000c9c0 f i njsOracle.obj
 0001:0000baa0       ?_Init@?$numpunct@D@std@@IEAAXAEBV_Locinfo@2@_N@Z 000000018000caa0 f i njsOracle.obj
 0001:0000bbd0       ??_E?$basic_stringstream@DU?$char_traits@D@std@@V?$allocator@D@2@@std@@$4PPPPPPPM@A@EAAPEAXI@Z 000000018000cbd0 f i njsOracle.obj
 0001:0000bbdc       ??_E?$basic_iostream@DU?$char_traits@D@std@@@std@@$4PPPPPPPM@A@EAAPEAXI@Z 000000018000cbdc f i njsOracle.obj
 0001:0000bbe8       ??_E?$basic_ostream@DU?$char_traits@D@std@@@std@@$4PPPPPPPM@A@EAAPEAXI@Z 000000018000cbe8 f i njsOracle.obj
 0001:0000bbf4       ??_E?$basic_istream@DU?$char_traits@D@std@@@std@@$4PPPPPPPM@A@EAAPEAXI@Z 000000018000cbf4 f i njsOracle.obj
 0001:0000bc00       ??0poolBaton@@QEAA@V?$Local@VFunction@v8@@@v8@@@Z 000000018000cc00 f i njsPool.obj
 0001:0000bce0       ??1poolBaton@@QEAA@XZ      000000018000cce0 f i njsPool.obj
 0001:0000bd80       ??_EConnection@@EEAAPEAXI@Z 000000018000cd80 f i * CIL library *:* CIL module *
 0001:0000bd80       ??_EPool@@EEAAPEAXI@Z      000000018000cd80 f i * CIL library *:* CIL module *
 0001:0000bd80       ??_GResultSet@@UEAAPEAXI@Z 000000018000cd80 f i njsResultSet.obj
 0001:0000bd80       ??_EResultSet@@UEAAPEAXI@Z 000000018000cd80 f i * CIL library *:* CIL module *
 0001:0000bd80       ??_GPool@@EEAAPEAXI@Z      000000018000cd80 f i njsPool.obj
 0001:0000bd80       ??_GConnection@@EEAAPEAXI@Z 000000018000cd80 f i njsConnection.obj
 0001:0000bdc0       ?Init@Pool@@SAXV?$Local@VObject@v8@@@v8@@@Z 000000018000cdc0 f   njsPool.obj
 0001:0000c400       ?New@Pool@@CAXAEBV?$FunctionCallbackInfo@VValue@v8@@@Nan@@@Z 000000018000d400 f   njsPool.obj
 0001:0000c470       ?getPoolProperty@Pool@@CA?AV?$Local@VPrimitive@v8@@@v8@@PEAV1@I@Z 000000018000d470 f   njsPool.obj
 0001:0000c620       ?GetPoolMin@Pool@@CAXV?$Local@VString@v8@@@v8@@AEBV?$PropertyCallbackInfo@VValue@v8@@@Nan@@@Z 000000018000d620 f   njsPool.obj
 0001:0000c780       ?GetPoolMax@Pool@@CAXV?$Local@VString@v8@@@v8@@AEBV?$PropertyCallbackInfo@VValue@v8@@@Nan@@@Z 000000018000d780 f   njsPool.obj
 0001:0000c8e0       ?GetPoolIncrement@Pool@@CAXV?$Local@VString@v8@@@v8@@AEBV?$PropertyCallbackInfo@VValue@v8@@@Nan@@@Z 000000018000d8e0 f   njsPool.obj
 0001:0000ca40       ?GetPoolTimeout@Pool@@CAXV?$Local@VString@v8@@@v8@@AEBV?$PropertyCallbackInfo@VValue@v8@@@Nan@@@Z 000000018000da40 f   njsPool.obj
 0001:0000cba0       ?GetConnectionsOpen@Pool@@CAXV?$Local@VString@v8@@@v8@@AEBV?$PropertyCallbackInfo@VValue@v8@@@Nan@@@Z 000000018000dba0 f   njsPool.obj
 0001:0000ce20       ?GetConnectionsInUse@Pool@@CAXV?$Local@VString@v8@@@v8@@AEBV?$PropertyCallbackInfo@VValue@v8@@@Nan@@@Z 000000018000de20 f   njsPool.obj
 0001:0000d0a0       ?GetStmtCacheSize@Pool@@CAXV?$Local@VString@v8@@@v8@@AEBV?$PropertyCallbackInfo@VValue@v8@@@Nan@@@Z 000000018000e0a0 f   njsPool.obj
 0001:0000d200       ?setPoolProperty@Pool@@CAXPEAV1@V?$basic_string@DU?$char_traits@D@std@@V?$allocator@D@2@@std@@@Z 000000018000e200 f   njsPool.obj
 0001:0000d490       ?SetPoolMin@Pool@@CAXV?$Local@VString@v8@@@v8@@V?$Local@VValue@v8@@@3@AEBV?$PropertyCallbackInfo@X@Nan@@@Z 000000018000e490 f   njsPool.obj
 0001:0000d500       ?SetPoolMax@Pool@@CAXV?$Local@VString@v8@@@v8@@V?$Local@VValue@v8@@@3@AEBV?$PropertyCallbackInfo@X@Nan@@@Z 000000018000e500 f   njsPool.obj
 0001:0000d570       ?SetPoolIncrement@Pool@@CAXV?$Local@VString@v8@@@v8@@V?$Local@VValue@v8@@@3@AEBV?$PropertyCallbackInfo@X@Nan@@@Z 000000018000e570 f   njsPool.obj
 0001:0000d5e0       ?SetPoolTimeout@Pool@@CAXV?$Local@VString@v8@@@v8@@V?$Local@VValue@v8@@@3@AEBV?$PropertyCallbackInfo@X@Nan@@@Z 000000018000e5e0 f   njsPool.obj
 0001:0000d650       ?SetConnectionsOpen@Pool@@CAXV?$Local@VString@v8@@@v8@@V?$Local@VValue@v8@@@3@AEBV?$PropertyCallbackInfo@X@Nan@@@Z 000000018000e650 f   njsPool.obj
 0001:0000d6c0       ?SetConnectionsInUse@Pool@@CAXV?$Local@VString@v8@@@v8@@V?$Local@VValue@v8@@@3@AEBV?$PropertyCallbackInfo@X@Nan@@@Z 000000018000e6c0 f   njsPool.obj
 0001:0000d730       ?SetStmtCacheSize@Pool@@CAXV?$Local@VString@v8@@@v8@@V?$Local@VValue@v8@@@3@AEBV?$PropertyCallbackInfo@X@Nan@@@Z 000000018000e730 f   njsPool.obj
 0001:0000d7a0       ?GetConnection@Pool@@CAXAEBV?$FunctionCallbackInfo@VValue@v8@@@Nan@@@Z 000000018000e7a0 f   njsPool.obj
 0001:0000db40       ?Async_GetConnection@Pool@@CAXPEAUuv_work_s@@@Z 000000018000eb40 f   njsPool.obj
 0001:0000dbc0       ?Async_AfterGetConnection@Pool@@CAXPEAUuv_work_s@@@Z 000000018000ebc0 f   njsPool.obj
 0001:0000ddd0       ?Terminate@Pool@@CAXAEBV?$FunctionCallbackInfo@VValue@v8@@@Nan@@@Z 000000018000edd0 f   njsPool.obj
 0001:0000e150       ?Async_Terminate@Pool@@CAXPEAUuv_work_s@@@Z 000000018000f150 f   njsPool.obj
 0001:0000e1b0       ?Async_AfterTerminate@Pool@@CAXPEAUuv_work_s@@@Z 000000018000f1b0 f   njsPool.obj
 0001:0000e370       ??1RefCounter@@QEAA@XZ     000000018000f370 f i njsConnection.obj
 0001:0000e380       ??0fetchInfo@@QEAA@XZ      000000018000f380 f i njsConnection.obj
 0001:0000e3c0       ??0eBaton@@QEAA@AEAIV?$Local@VFunction@v8@@@v8@@@Z 000000018000f3c0 f i njsConnection.obj
 0001:0000e530       ??1eBaton@@QEAA@XZ         000000018000f530 f i njsConnection.obj
 0001:0000e890       ?GetValueType@Connection@@CA?AW4ValueType@@V?$Local@VValue@v8@@@v8@@@Z 000000018000f890 f i njsConnection.obj
 0001:0000e9a0       ?Init@Connection@@SAXV?$Local@VObject@v8@@@v8@@@Z 000000018000f9a0 f   njsConnection.obj
 0001:0000f1d0       ?New@Connection@@CAXAEBV?$FunctionCallbackInfo@VValue@v8@@@Nan@@@Z 00000001800101d0 f   njsConnection.obj
 0001:0000f240       ?connectionPropertyException@Connection@@CAXPEAV1@W4NJSErrorType@@V?$basic_string@DU?$char_traits@D@std@@V?$allocator@D@2@@std@@@Z 0000000180010240 f   njsConnection.obj
 0001:0000f410       ?GetStmtCacheSize@Connection@@CAXV?$Local@VString@v8@@@v8@@AEBV?$PropertyCallbackInfo@VValue@v8@@@Nan@@@Z 0000000180010410 f   njsConnection.obj
 0001:0000f6b0       ?SetStmtCacheSize@Connection@@CAXV?$Local@VString@v8@@@v8@@V?$Local@VValue@v8@@@3@AEBV?$PropertyCallbackInfo@X@Nan@@@Z 00000001800106b0 f   njsConnection.obj
 0001:0000f800       ?GetClientId@Connection@@CAXV?$Local@VString@v8@@@v8@@AEBV?$PropertyCallbackInfo@VValue@v8@@@Nan@@@Z 0000000180010800 f   njsConnection.obj
 0001:0000f800       ?GetAction@Connection@@CAXV?$Local@VString@v8@@@v8@@AEBV?$PropertyCallbackInfo@VValue@v8@@@Nan@@@Z 0000000180010800 f   njsConnection.obj
 0001:0000f800       ?GetModule@Connection@@CAXV?$Local@VString@v8@@@v8@@AEBV?$PropertyCallbackInfo@VValue@v8@@@Nan@@@Z 0000000180010800 f   njsConnection.obj
 0001:0000f820       ?SetClientId@Connection@@CAXV?$Local@VString@v8@@@v8@@V?$Local@VValue@v8@@@3@AEBV?$PropertyCallbackInfo@X@Nan@@@Z 0000000180010820 f   njsConnection.obj
 0001:0000fc70       ?SetModule@Connection@@CAXV?$Local@VString@v8@@@v8@@V?$Local@VValue@v8@@@3@AEBV?$PropertyCallbackInfo@X@Nan@@@Z 0000000180010c70 f   njsConnection.obj
 0001:000100c0       ?SetAction@Connection@@CAXV?$Local@VString@v8@@@v8@@V?$Local@VValue@v8@@@3@AEBV?$PropertyCallbackInfo@X@Nan@@@Z 00000001800110c0 f   njsConnection.obj
 0001:00010510       ?GetOracleServerVersion@Connection@@CAXV?$Local@VString@v8@@@v8@@AEBV?$PropertyCallbackInfo@VValue@v8@@@Nan@@@Z 0000000180011510 f   njsConnection.obj
 0001:000107f0       ?SetOracleServerVersion@Connection@@CAXV?$Local@VString@v8@@@v8@@V?$Local@VValue@v8@@@3@AEBV?$PropertyCallbackInfo@X@Nan@@@Z 00000001800117f0 f   njsConnection.obj
 0001:00010940       ?Execute@Connection@@CAXAEBV?$FunctionCallbackInfo@VValue@v8@@@Nan@@@Z 0000000180011940 f   njsConnection.obj
 0001:00010f50       ?ProcessBinds@Connection@@CAXAEBV?$FunctionCallbackInfo@VValue@v8@@@Nan@@IPEAUeBaton@@@Z 0000000180011f50 f   njsConnection.obj
 0001:00011100       ?ProcessOptions@Connection@@CAXAEBV?$FunctionCallbackInfo@VValue@v8@@@Nan@@IPEAUeBaton@@@Z 0000000180012100 f   njsConnection.obj
 0001:00011960       ?GetBinds@Connection@@CAXV?$Local@VObject@v8@@@v8@@PEAUeBaton@@@Z 0000000180012960 f   njsConnection.obj
 0001:00011d40       ?GetBinds@Connection@@CAXV?$Local@VArray@v8@@@v8@@PEAUeBaton@@@Z 0000000180012d40 f   njsConnection.obj
 0001:00011e60       ?GetBindUnit@Connection@@CAXV?$Local@VValue@v8@@@v8@@PEAUBind@@PEAUeBaton@@@Z 0000000180012e60 f   njsConnection.obj
 0001:000124b0       ?GetOutBindParams@Connection@@CAXGPEAUBind@@PEAUeBaton@@@Z 00000001800134b0 f   njsConnection.obj
 0001:000126f0       ?GetInBindParams@Connection@@CAXV?$Local@VValue@v8@@@v8@@PEAUBind@@PEAUeBaton@@W4BindType@@@Z 00000001800136f0 f   njsConnection.obj
 0001:00012770       ?GetInBindParamsScalar@Connection@@CAXV?$Local@VValue@v8@@@v8@@PEAUBind@@PEAUeBaton@@W4BindType@@@Z 0000000180013770 f   njsConnection.obj
 0001:00012d50       ?GetInBindParamsArray@Connection@@CAXV?$Local@VArray@v8@@@v8@@PEAUBind@@PEAUeBaton@@W4BindType@@@Z 0000000180013d50 f   njsConnection.obj
 0001:00013490       ?AllocateBindArray@Connection@@CA_NGPEAUBind@@PEAUeBaton@@PEA_K@Z 0000000180014490 f   njsConnection.obj
 0001:000136f0       ?Async_Execute@Connection@@CAXPEAUuv_work_s@@@Z 00000001800146f0 f   njsConnection.obj
 0001:00013c20       ?PrepareAndBind@Connection@@CAXPEAUeBaton@@@Z 0000000180014c20 f   njsConnection.obj
 0001:00014130       ?CopyMetaData@Connection@@SAXPEAV?$basic_string@DU?$char_traits@D@std@@V?$allocator@D@2@@std@@PEBUMetaData@dpi@@I@Z 0000000180015130 f   njsConnection.obj
 0001:00014250       ?SourceDBType2TargetDBType@Connection@@CAGI@Z 0000000180015250 f   njsConnection.obj
 0001:00014390       ?MapByName@Connection@@CAHPEAUeBaton@@AEAV?$basic_string@DU?$char_traits@D@std@@V?$allocator@D@2@@std@@AEAG@Z 0000000180015390 f   njsConnection.obj
 0001:00014460       ?MapByType@Connection@@CAHPEAUeBaton@@AEAG@Z 0000000180015460 f   njsConnection.obj
 0001:000145d0       ?GetTargetType@Connection@@CAGPEAUeBaton@@AEAV?$basic_string@DU?$char_traits@D@std@@V?$allocator@D@2@@std@@G@Z 00000001800155d0 f   njsConnection.obj
 0001:00014660       ?DoDefines@Connection@@SAXPEAUeBaton@@PEBUMetaData@dpi@@I@Z 0000000180015660 f   njsConnection.obj
 0001:00015120       ?DoFetch@Connection@@SAXPEAUeBaton@@@Z 0000000180016120 f   njsConnection.obj
 0001:00015190       ?Descr2Double@Connection@@CAXPEAUDefine@@II_N@Z 0000000180016190 f   njsConnection.obj
 0001:00015260       ?Descr2protoILob@Connection@@CAXPEAUeBaton@@II@Z 0000000180016260 f   njsConnection.obj
 0001:00015560       ?Async_AfterExecute@Connection@@CAXPEAUuv_work_s@@@Z 0000000180016560 f   njsConnection.obj
 0001:00016000       ?GetMetaData@Connection@@SA?AV?$Local@VValue@v8@@@v8@@PEAV?$basic_string@DU?$char_traits@D@std@@V?$allocator@D@2@@std@@I@Z 0000000180017000 f   njsConnection.obj
 0001:000161c0       ?GetRows@Connection@@SA?AV?$Local@VValue@v8@@@v8@@PEAUeBaton@@@Z 00000001800171c0 f   njsConnection.obj
 0001:00016530       ?GetValue@Connection@@CA?AV?$Local@VValue@v8@@@v8@@PEAUeBaton@@_NII@Z 0000000180017530 f   njsConnection.obj
 0001:000166f0       ?GetValueRefCursor@Connection@@CA?AV?$Local@VValue@v8@@@v8@@PEAUeBaton@@PEAUBind@@@Z 00000001800176f0 f   njsConnection.obj
 0001:000167d0       ?GetValueLob@Connection@@CA?AV?$Local@VValue@v8@@@v8@@PEAUeBaton@@PEAUBind@@@Z 00000001800177d0 f   njsConnection.obj
 0001:000168a0       ?GetValueCommon@Connection@@CA?AV?$Local@VValue@v8@@@v8@@PEAUeBaton@@FGPEAXG@Z 00000001800178a0 f   njsConnection.obj
 0001:00016c40       ?GetArrayValue@Connection@@CA?AV?$Local@VValue@v8@@@v8@@PEAUeBaton@@PEAUBind@@K@Z 0000000180017c40 f   njsConnection.obj
 0001:00017130       ?GetOutBinds@Connection@@CA?AV?$Local@VValue@v8@@@v8@@PEAUeBaton@@@Z 0000000180018130 f   njsConnection.obj
 0001:000171d0       ?GetOutBindArray@Connection@@CA?AV?$Local@VValue@v8@@@v8@@PEAUeBaton@@@Z 00000001800181d0 f   njsConnection.obj
 0001:00017310       ?GetOutBindObject@Connection@@CA?AV?$Local@VValue@v8@@@v8@@PEAUeBaton@@@Z 0000000180018310 f   njsConnection.obj
 0001:000174d0       ?Release@Connection@@CAXAEBV?$FunctionCallbackInfo@VValue@v8@@@Nan@@@Z 00000001800184d0 f   njsConnection.obj
 0001:000179e0       ?Async_Release@Connection@@CAXPEAUuv_work_s@@@Z 00000001800189e0 f   njsConnection.obj
 0001:00017a30       ?Async_AfterRelease@Connection@@CAXPEAUuv_work_s@@@Z 0000000180018a30 f   njsConnection.obj
 0001:00017a30       ?Async_AfterRollback@Connection@@CAXPEAUuv_work_s@@@Z 0000000180018a30 f   njsConnection.obj
 0001:00017a30       ?Async_AfterBreak@Connection@@CAXPEAUuv_work_s@@@Z 0000000180018a30 f   njsConnection.obj
 0001:00017a30       ?Async_AfterCommit@Connection@@CAXPEAUuv_work_s@@@Z 0000000180018a30 f   njsConnection.obj
 0001:00017be0       ?Commit@Connection@@CAXAEBV?$FunctionCallbackInfo@VValue@v8@@@Nan@@@Z 0000000180018be0 f   njsConnection.obj
 0001:00018010       ?Async_Commit@Connection@@CAXPEAUuv_work_s@@@Z 0000000180019010 f   njsConnection.obj
 0001:00018060       ?Rollback@Connection@@CAXAEBV?$FunctionCallbackInfo@VValue@v8@@@Nan@@@Z 0000000180019060 f   njsConnection.obj
 0001:00018490       ?Async_Rollback@Connection@@CAXPEAUuv_work_s@@@Z 0000000180019490 f   njsConnection.obj
 0001:000184e0       ?Break@Connection@@CAXAEBV?$FunctionCallbackInfo@VValue@v8@@@Nan@@@Z 00000001800194e0 f   njsConnection.obj
 0001:00018910       ?Async_Break@Connection@@CAXPEAUuv_work_s@@@Z 0000000180019910 f   njsConnection.obj
 0001:00018960       ?cbDynBufferAllocate@Connection@@CAXPEAX_NII@Z 0000000180019960 f   njsConnection.obj
 0001:00019120       ?cbDynBufferGet@Connection@@CAHPEAXHIKKPEAPEAX11PEAPEAGPEAE@Z 000000018001a120 f   njsConnection.obj
 0001:00019380       ?NewLob@Connection@@CA?AV?$Local@VValue@v8@@@v8@@PEAUeBaton@@PEAVProtoILob@@@Z 000000018001a380 f   njsConnection.obj
 0001:00019520       ?compare@?$basic_string@DU?$char_traits@D@std@@V?$allocator@D@2@@std@@QEBAHAEBV12@@Z 000000018001a520 f i njsConnection.obj
 0001:000195a0       ??0?$vector@PEAUBind@@V?$allocator@PEAUBind@@@std@@@std@@QEAA@AEBV01@@Z 000000018001a5a0 f i njsConnection.obj
 0001:00019660       ??1?$vector@PEAUBind@@V?$allocator@PEAUBind@@@std@@@std@@QEAA@XZ 000000018001a660 f i njsConnection.obj
 0001:00019690       ?push_back@?$vector@PEAUBind@@V?$allocator@PEAUBind@@@std@@@std@@QEAAXAEBQEAUBind@@@Z 000000018001a690 f i njsConnection.obj
 0001:00019720       ?_Reserve@?$vector@PEAUBind@@V?$allocator@PEAUBind@@@std@@@std@@IEAAX_K@Z 000000018001a720 f i njsConnection.obj
 0001:000197b0       ?_Reallocate@?$vector@PEAUBind@@V?$allocator@PEAUBind@@@std@@@std@@IEAAX_K@Z 000000018001a7b0 f i njsConnection.obj
 0001:00019860       ??$New@VString@v8@@V?$basic_string@DU?$char_traits@D@std@@V?$allocator@D@2@@std@@@Nan@@YA?AV?$MaybeLocal@VString@v8@@@v8@@V?$basic_string@DU?$char_traits@D@std@@V?$allocator@D@2@@std@@@Z 000000018001a860 f i njsConnection.obj
 0001:00019930       ??$?HDU?$char_traits@D@std@@V?$allocator@D@1@@std@@YA?AV?$basic_string@DU?$char_traits@D@std@@V?$allocator@D@2@@0@PEBD$$QEAV10@@Z 000000018001a930 f i njsConnection.obj
 0001:00019970       ?insert@?$basic_string@DU?$char_traits@D@std@@V?$allocator@D@2@@std@@QEAAAEAV12@_KPEBD0@Z 000000018001a970 f i njsConnection.obj
 0001:00019ab0       ?insert@?$basic_string@DU?$char_traits@D@std@@V?$allocator@D@2@@std@@QEAAAEAV12@_KAEBV12@00@Z 000000018001aab0 f i njsConnection.obj
 0001:00019c10       ??0rsBaton@@QEAA@AEAIV?$Local@VFunction@v8@@@v8@@@Z 000000018001ac10 f i njsResultSet.obj
 0001:00019cb0       ??1rsBaton@@QEAA@XZ        000000018001acb0 f i njsResultSet.obj
 0001:00019d30       ?setResultSet@ResultSet@@QEAAXPEAVStmt@dpi@@PEAUeBaton@@@Z 000000018001ad30 f   njsResultSet.obj
 0001:00019f20       ?Init@ResultSet@@SAXV?$Local@VObject@v8@@@v8@@@Z 000000018001af20 f   njsResultSet.obj
 0001:0001a3d0       ?New@ResultSet@@CAXAEBV?$FunctionCallbackInfo@VValue@v8@@@Nan@@@Z 000000018001b3d0 f   njsResultSet.obj
 0001:0001a440       ?GetMetaData@ResultSet@@CAXV?$Local@VString@v8@@@v8@@AEBV?$PropertyCallbackInfo@VValue@v8@@@Nan@@@Z 000000018001b440 f   njsResultSet.obj
 0001:0001a830       ?SetMetaData@ResultSet@@CAXV?$Local@VString@v8@@@v8@@V?$Local@VValue@v8@@@3@AEBV?$PropertyCallbackInfo@X@Nan@@@Z 000000018001b830 f   njsResultSet.obj
 0001:0001aa70       ?GetRow@ResultSet@@CAXAEBV?$FunctionCallbackInfo@VValue@v8@@@Nan@@@Z 000000018001ba70 f   njsResultSet.obj
 0001:0001ae00       ?GetRows@ResultSet@@CAXAEBV?$FunctionCallbackInfo@VValue@v8@@@Nan@@@Z 000000018001be00 f   njsResultSet.obj
 0001:0001b240       ?GetRowsCommon@ResultSet@@CAXPEAUrsBaton@@@Z 000000018001c240 f   njsResultSet.obj
 0001:0001b540       ?Async_GetRows@ResultSet@@CAXPEAUuv_work_s@@@Z 000000018001c540 f   njsResultSet.obj
 0001:0001b710       ?Async_AfterGetRows@ResultSet@@CAXPEAUuv_work_s@@@Z 000000018001c710 f   njsResultSet.obj
 0001:0001b9d0       ?Close@ResultSet@@CAXAEBV?$FunctionCallbackInfo@VValue@v8@@@Nan@@@Z 000000018001c9d0 f   njsResultSet.obj
 0001:0001be50       ?Async_Close@ResultSet@@CAXPEAUuv_work_s@@@Z 000000018001ce50 f   njsResultSet.obj
 0001:0001bf50       ?Async_AfterClose@ResultSet@@CAXPEAUuv_work_s@@@Z 000000018001cf50 f   njsResultSet.obj
 0001:0001c130       ?clearFetchBuffer@ResultSet@@CAXPEAUDefine@@I@Z 000000018001d130 f   njsResultSet.obj
 0001:0001c1b0       ?getErrorMsg@NJSMessages@@SA?AV?$basic_string@DU?$char_traits@D@std@@V?$allocator@D@2@@std@@W4NJSErrorType@@ZZ 000000018001d1b0 f   njsMessages.obj
 0001:0001c290       ??0LobBaton@@QEAA@AEAIV?$Local@VFunction@v8@@@v8@@@Z 000000018001d290 f i njsIntLob.obj
 0001:0001c370       ??1LobBaton@@QEAA@XZ       000000018001d370 f i njsIntLob.obj
 0001:0001c3f0       ??_EILob@@EEAAPEAXI@Z      000000018001d3f0 f i * CIL library *:* CIL module *
 0001:0001c3f0       ??_GILob@@EEAAPEAXI@Z      000000018001d3f0 f i njsIntLob.obj
 0001:0001c440       ?cleanup@ILob@@AEAAXXZ     000000018001d440 f   njsIntLob.obj
 0001:0001c4a0       ?setILob@ILob@@QEAAXPEAUeBaton@@PEAVProtoILob@@@Z 000000018001d4a0 f   njsIntLob.obj
 0001:0001c590       ?Init@ILob@@SAXV?$Local@VObject@v8@@@v8@@@Z 000000018001d590 f   njsIntLob.obj
 0001:0001cbe0       ?New@ILob@@CAXAEBV?$FunctionCallbackInfo@VValue@v8@@@Nan@@@Z 000000018001dbe0 f   njsIntLob.obj
 0001:0001cc90       ?Release@ILob@@CAXAEBV?$FunctionCallbackInfo@VValue@v8@@@Nan@@@Z 000000018001dc90 f   njsIntLob.obj
 0001:0001cee0       ?lobPropertyException@ILob@@CAXPEAV1@W4NJSErrorType@@V?$basic_string@DU?$char_traits@D@std@@V?$allocator@D@2@@std@@@Z 000000018001dee0 f   njsIntLob.obj
 0001:0001d0b0       ?GetChunkSize@ILob@@CAXV?$Local@VString@v8@@@v8@@AEBV?$PropertyCallbackInfo@VValue@v8@@@Nan@@@Z 000000018001e0b0 f   njsIntLob.obj
 0001:0001d410       ?SetChunkSize@ILob@@CAXV?$Local@VString@v8@@@v8@@V?$Local@VValue@v8@@@3@AEBV?$PropertyCallbackInfo@X@Nan@@@Z 000000018001e410 f   njsIntLob.obj
 0001:0001d560       ?GetLength@ILob@@CAXV?$Local@VString@v8@@@v8@@AEBV?$PropertyCallbackInfo@VValue@v8@@@Nan@@@Z 000000018001e560 f   njsIntLob.obj
 0001:0001d8b0       ?SetLength@ILob@@CAXV?$Local@VString@v8@@@v8@@V?$Local@VValue@v8@@@3@AEBV?$PropertyCallbackInfo@X@Nan@@@Z 000000018001e8b0 f   njsIntLob.obj
 0001:0001da00       ?GetPieceSize@ILob@@CAXV?$Local@VString@v8@@@v8@@AEBV?$PropertyCallbackInfo@VValue@v8@@@Nan@@@Z 000000018001ea00 f   njsIntLob.obj
 0001:0001dd60       ?SetPieceSize@ILob@@CAXV?$Local@VString@v8@@@v8@@V?$Local@VValue@v8@@@3@AEBV?$PropertyCallbackInfo@X@Nan@@@Z 000000018001ed60 f   njsIntLob.obj
 0001:0001e2d0       ?GetOffset@ILob@@CAXV?$Local@VString@v8@@@v8@@AEBV?$PropertyCallbackInfo@VValue@v8@@@Nan@@@Z 000000018001f2d0 f   njsIntLob.obj
 0001:0001e630       ?SetOffset@ILob@@CAXV?$Local@VString@v8@@@v8@@V?$Local@VValue@v8@@@3@AEBV?$PropertyCallbackInfo@X@Nan@@@Z 000000018001f630 f   njsIntLob.obj
 0001:0001eb80       ?GetType@ILob@@CAXV?$Local@VString@v8@@@v8@@AEBV?$PropertyCallbackInfo@VValue@v8@@@Nan@@@Z 000000018001fb80 f   njsIntLob.obj
 0001:0001ed10       ?SetType@ILob@@CAXV?$Local@VString@v8@@@v8@@V?$Local@VValue@v8@@@3@AEBV?$PropertyCallbackInfo@X@Nan@@@Z 000000018001fd10 f   njsIntLob.obj
 0001:0001ee60       ?Read@ILob@@CAXAEBV?$FunctionCallbackInfo@VValue@v8@@@Nan@@@Z 000000018001fe60 f   njsIntLob.obj
 0001:0001f2a0       ?Async_Read@ILob@@CAXPEAUuv_work_s@@@Z 00000001800202a0 f   njsIntLob.obj
 0001:0001f3e0       ?Async_AfterRead@ILob@@CAXPEAUuv_work_s@@@Z 00000001800203e0 f   njsIntLob.obj
 0001:0001f620       ?Write@ILob@@CAXAEBV?$FunctionCallbackInfo@VValue@v8@@@Nan@@@Z 0000000180020620 f   njsIntLob.obj
 0001:0001fab0       ?Async_Write@ILob@@CAXPEAUuv_work_s@@@Z 0000000180020ab0 f   njsIntLob.obj
 0001:0001fbe0       ?Async_AfterWrite@ILob@@CAXPEAUuv_work_s@@@Z 0000000180020be0 f   njsIntLob.obj
 0001:0001fda0       ??0ProtoILob@@QEAA@PEAUeBaton@@PEAUDescriptor@dpi@@G@Z 0000000180020da0 f   njsIntLob.obj
 0001:0001fec0       ?cleanup@ProtoILob@@AEAAXXZ 0000000180020ec0 f   njsIntLob.obj
 0001:0001ff10       ??_GEnv@dpi@@MEAAPEAXI@Z   0000000180020f10 f i dpiEnv.obj
 0001:0001ff10       ??_EEnv@dpi@@MEAAPEAXI@Z   0000000180020f10 f i * CIL library *:* CIL module *
 0001:0001ff40       ??1Env@dpi@@MEAA@XZ        0000000180020f40 f   dpiEnv.obj
 0001:0001ff50       ??0exception@stdext@@QEAA@AEBV01@@Z 0000000180020f50 f i dpiEnvImpl.obj
 0001:0001ff70       ??0EnvImpl@@QEAA@AEBV?$basic_string@DU?$char_traits@D@std@@V?$allocator@D@2@@std@@@Z 0000000180020f70 f   dpiEnvImpl.obj
 0001:000200a0       ??_GEnvImpl@@UEAAPEAXI@Z   00000001800210a0 f i dpiEnvImpl.obj
 0001:000200a0       ??_EEnvImpl@@UEAAPEAXI@Z   00000001800210a0 f i * CIL library *:* CIL module *
 0001:00020120       ??0ExceptionImpl@@QEAA@AEBV0@@Z 0000000180021120 f i dpiEnvImpl.obj
 0001:000201c0       ??0Exception@dpi@@QEAA@AEBV01@@Z 00000001800211c0 f i dpiEnvImpl.obj
 0001:000201e0       ??_GExceptionImpl@@UEAAPEAXI@Z 00000001800211e0 f i dpiEnvImpl.obj
 0001:000201e0       ??_EExceptionImpl@@UEAAPEAXI@Z 00000001800211e0 f i * CIL library *:* CIL module *
 0001:00020210       ?terminate@EnvImpl@@UEAAXXZ 0000000180021210 f   dpiEnvImpl.obj
 0001:00020260       ?poolMax@EnvImpl@@UEAAXI@Z 0000000180021260 f   dpiEnvImpl.obj
 0001:00020270       ?poolMax@EnvImpl@@UEBAIXZ  0000000180021270 f   dpiEnvImpl.obj
 0001:00020280       ?poolMin@EnvImpl@@UEAAXI@Z 0000000180021280 f   dpiEnvImpl.obj
 0001:00020290       ?poolMin@EnvImpl@@UEBAIXZ  0000000180021290 f   dpiEnvImpl.obj
 0001:000202a0       ?poolIncrement@EnvImpl@@UEAAXI@Z 00000001800212a0 f   dpiEnvImpl.obj
 0001:000202b0       ?poolIncrement@EnvImpl@@UEBAIXZ 00000001800212b0 f   dpiEnvImpl.obj
 0001:000202c0       ?poolTimeout@EnvImpl@@UEAAXI@Z 00000001800212c0 f   dpiEnvImpl.obj
 0001:000202d0       ?poolTimeout@EnvImpl@@UEBAIXZ 00000001800212d0 f   dpiEnvImpl.obj
 0001:000202e0       ?drvName@EnvImpl@@UEAAAEBV?$basic_string@DU?$char_traits@D@std@@V?$allocator@D@2@@std@@XZ 00000001800212e0 f   dpiEnvImpl.obj
 0001:000202f0       ?externalAuth@EnvImpl@@UEAAX_N@Z 00000001800212f0 f   dpiEnvImpl.obj
 0001:00020300       ?externalAuth@EnvImpl@@UEBA_NXZ 0000000180021300 f   dpiEnvImpl.obj
 0001:00020310       ?isEventEnabled@EnvImpl@@UEAAX_N@Z 0000000180021310 f   dpiEnvImpl.obj
 0001:00020320       ?isEventEnabled@EnvImpl@@UEBA_NXZ 0000000180021320 f   dpiEnvImpl.obj
 0001:00020330       ?createPool@EnvImpl@@UEAAPEAVSPool@dpi@@AEBV?$basic_string@DU?$char_traits@D@std@@V?$allocator@D@2@@std@@00HHHHH_N@Z 0000000180021330 f   dpiEnvImpl.obj
 0001:00020430       ?getConnection@EnvImpl@@UEAAPEAVConn@dpi@@AEBV?$basic_string@DU?$char_traits@D@std@@V?$allocator@D@2@@std@@00H0_N@Z 0000000180021430 f   dpiEnvImpl.obj
 0001:000204e0       ?releaseDateTimeArray@EnvImpl@@UEBAXPEAVDateTimeArray@dpi@@@Z 00000001800214e0 f   dpiEnvImpl.obj
 0001:000204e0       ?terminatePool@EnvImpl@@UEAAXPEAVPoolImpl@@@Z 00000001800214e0 f   dpiEnvImpl.obj
 0001:00020500       ?releaseConnection@EnvImpl@@UEAAXPEAVConnImpl@@@Z 0000000180021500 f   dpiEnvImpl.obj
 0001:00020500       ?releaseConnection@PoolImpl@@UEAAXPEAVConnImpl@@@Z 0000000180021500 f   dpiPoolImpl.obj
 0001:00020520       ?getDateTimeArray@EnvImpl@@UEBAPEAVDateTimeArray@dpi@@PEAUOCIError@@@Z 0000000180021520 f   dpiEnvImpl.obj
 0001:000205c0       ?allocHandle@EnvImpl@@UEAAPEAUDpiHandle@dpi@@W4HandleType@3@@Z 00000001800215c0 f   dpiEnvImpl.obj
 0001:00020610       ?allocDescriptor@EnvImpl@@UEAAPEAUDescriptor@dpi@@W4DescriptorType@3@@Z 0000000180021610 f   dpiEnvImpl.obj
 0001:00020660       ?allocDescriptorArray@EnvImpl@@UEAAXW4DescriptorType@dpi@@IQEAPEAUDescriptor@3@@Z 0000000180021660 f   dpiEnvImpl.obj
 0001:000206a0       ?envHandle@EnvImpl@@UEBAPEAUDpiHandle@dpi@@XZ 00000001800216a0 f   dpiEnvImpl.obj
 0001:000206b0       ??0ExceptionImpl@@QEAA@W4DpiError@dpi@@@Z 00000001800216b0 f   dpiExceptionImpl.obj
 0001:00020890       ??1ExceptionImpl@@UEAA@XZ  0000000180021890 f   dpiExceptionImpl.obj
 0001:00020900       ?what@ExceptionImpl@@UEBAPEBDXZ 0000000180021900 f   dpiExceptionImpl.obj
 0001:00020910       ?errnum@ExceptionImpl@@UEBAHXZ 0000000180021910 f   dpiExceptionImpl.obj
 0001:00020920       ?origin@ExceptionImpl@@UEBAPEBDXZ 0000000180021920 f   dpiExceptionImpl.obj
 0001:00020930       ??$?6DU?$char_traits@D@std@@V?$allocator@D@1@@std@@YAAEAV?$basic_ostream@DU?$char_traits@D@std@@@0@AEAV10@AEBV?$basic_string@DU?$char_traits@D@std@@V?$allocator@D@2@@0@@Z 0000000180021930 f i dpiExceptionImpl.obj
 0001:00020b90       ??1Conn@dpi@@MEAA@XZ       0000000180021b90 f i dpiConnImpl.obj
 0001:00020ba0       ??_GConn@dpi@@MEAAPEAXI@Z  0000000180021ba0 f i dpiConnImpl.obj
 0001:00020ba0       ??_EConn@dpi@@MEAAPEAXI@Z  0000000180021ba0 f i * CIL library *:* CIL module *
 0001:00020bd0       ?getSvch@ConnImpl@@UEAAPEAUDpiHandle@dpi@@XZ 0000000180021bd0 f i dpiConnImpl.obj
 0001:00020be0       ?getErrh@ConnImpl@@UEAAPEAUDpiHandle@dpi@@XZ 0000000180021be0 f i dpiConnImpl.obj
 0001:00020bf0       ??0ConnImpl@@QEAA@PEAVEnvImpl@@PEAUOCIEnv@@_NIAEBV?$basic_string@DU?$char_traits@D@std@@V?$allocator@D@2@@std@@333@Z 0000000180021bf0 f   dpiConnImpl.obj
 0001:00020cf0       ??0ConnImpl@@QEAA@PEAVPoolImpl@@PEAUOCIEnv@@_NPEAEIAEBV?$basic_string@DU?$char_traits@D@std@@V?$allocator@D@2@@std@@@Z 0000000180021cf0 f   dpiConnImpl.obj
 0001:00020e60       ??_EConnImpl@@UEAAPEAXI@Z  0000000180021e60 f i * CIL library *:* CIL module *
 0001:00020e60       ??_GConnImpl@@UEAAPEAXI@Z  0000000180021e60 f i dpiConnImpl.obj
 0001:00020ec0       ?release@ConnImpl@@UEAAXXZ 0000000180021ec0 f   dpiConnImpl.obj
 0001:00020f10       ?releaseStmt@ConnImpl@@UEAAXPEAVStmt@dpi@@@Z 0000000180021f10 f   dpiConnImpl.obj
 0001:00020f30       ?stmtCacheSize@ConnImpl@@UEAAXI@Z 0000000180021f30 f   dpiConnImpl.obj
 0001:00020f80       ?getByteExpansionRatio@ConnImpl@@UEAAHXZ 0000000180021f80 f   dpiConnImpl.obj
 0001:00020f90       ?stmtCacheSize@ConnImpl@@UEBAIXZ 0000000180021f90 f   dpiConnImpl.obj
 0001:00020fe0       ?lobPrefetchSize@ConnImpl@@UEBAIXZ 0000000180021fe0 f   dpiConnImpl.obj
 0001:00021030       ?clientId@ConnImpl@@UEAAXAEBV?$basic_string@DU?$char_traits@D@std@@V?$allocator@D@2@@std@@@Z 0000000180022030 f   dpiConnImpl.obj
 0001:00021080       ?module@ConnImpl@@UEAAXAEBV?$basic_string@DU?$char_traits@D@std@@V?$allocator@D@2@@std@@@Z 0000000180022080 f   dpiConnImpl.obj
 0001:000210d0       ?action@ConnImpl@@UEAAXAEBV?$basic_string@DU?$char_traits@D@std@@V?$allocator@D@2@@std@@@Z 00000001800220d0 f   dpiConnImpl.obj
 0001:00021120       ?getStmt@ConnImpl@@UEAAPEAVStmt@dpi@@AEBV?$basic_string@DU?$char_traits@D@std@@V?$allocator@D@2@@std@@@Z 0000000180022120 f   dpiConnImpl.obj
 0001:00021180       ?commit@ConnImpl@@UEAAXXZ  0000000180022180 f   dpiConnImpl.obj
 0001:000211b0       ?rollback@ConnImpl@@UEAAXXZ 00000001800221b0 f   dpiConnImpl.obj
 0001:000211e0       ?breakExecution@ConnImpl@@UEAAXXZ 00000001800221e0 f   dpiConnImpl.obj
 0001:00021230       ?setErrState@ConnImpl@@UEAAXH@Z 0000000180022230 f   dpiConnImpl.obj
 0001:00021270       ?getServerVersion@ConnImpl@@UEAAIXZ 0000000180022270 f   dpiConnImpl.obj
 0001:000212f0       ?initConnImpl@ConnImpl@@AEAAX_N0AEBV?$basic_string@DU?$char_traits@D@std@@V?$allocator@D@2@@std@@PEAEI11@Z 00000001800222f0 f   dpiConnImpl.obj
 0001:000216c0       ?cleanup@ConnImpl@@AEAAXXZ 00000001800226c0 f   dpiConnImpl.obj
 0001:000217a0       ??1DateTimeArray@dpi@@UEAA@XZ 00000001800227a0 f i dpiDateTimeArrayImpl.obj
 0001:000217a0       ??1SPool@dpi@@MEAA@XZ      00000001800227a0 f i dpiPoolImpl.obj
 0001:000217b0       ??_GDateTimeArray@dpi@@UEAAPEAXI@Z 00000001800227b0 f i dpiDateTimeArrayImpl.obj
 0001:000217b0       ??_GSPool@dpi@@MEAAPEAXI@Z 00000001800227b0 f i dpiPoolImpl.obj
 0001:000217b0       ??_EDateTimeArray@dpi@@UEAAPEAXI@Z 00000001800227b0 f i * CIL library *:* CIL module *
 0001:000217b0       ??_ESPool@dpi@@MEAAPEAXI@Z 00000001800227b0 f i * CIL library *:* CIL module *
 0001:000217e0       ??_EDateTimeArrayImpl@dpi@@UEAAPEAXI@Z 00000001800227e0 f i * CIL library *:* CIL module *
 0001:000217e0       ??_GDateTimeArrayImpl@dpi@@UEAAPEAXI@Z 00000001800227e0 f i dpiDateTimeArrayImpl.obj
 0001:00021860       ?init@DateTimeArrayImpl@dpi@@UEAAPEAXH@Z 0000000180022860 f   dpiDateTimeArrayImpl.obj
 0001:00021960       ?release@DateTimeArrayImpl@dpi@@UEAAXXZ 0000000180022960 f   dpiDateTimeArrayImpl.obj
 0001:000219b0       ?getDateTime@DateTimeArrayImpl@dpi@@UEAAOH@Z 00000001800229b0 f   dpiDateTimeArrayImpl.obj
 0001:00021b80       ?setDateTime@DateTimeArrayImpl@dpi@@UEAAXHO@Z 0000000180022b80 f   dpiDateTimeArrayImpl.obj
 0001:00021db0       ?initBaseDate@DateTimeArrayImpl@dpi@@SAXPEAUOCIEnv@@@Z 0000000180022db0 f   dpiDateTimeArrayImpl.obj
 0001:00021f10       ??0PoolImpl@@QEAA@PEAVEnvImpl@@PEAUOCIEnv@@AEBV?$basic_string@DU?$char_traits@D@std@@V?$allocator@D@2@@std@@22HHHH_NH@Z 0000000180022f10 f   dpiPoolImpl.obj
 0001:00022300       ??_GPoolImpl@@UEAAPEAXI@Z  0000000180023300 f i dpiPoolImpl.obj
 0001:00022300       ??_EPoolImpl@@UEAAPEAXI@Z  0000000180023300 f i * CIL library *:* CIL module *
 0001:00022350       ?terminate@PoolImpl@@UEAAXXZ 0000000180023350 f   dpiPoolImpl.obj
 0001:000223b0       ?poolTimeout@PoolImpl@@UEAAXI@Z 00000001800233b0 f   dpiPoolImpl.obj
 0001:00022400       ?stmtCacheSize@PoolImpl@@UEAAXI@Z 0000000180023400 f   dpiPoolImpl.obj
 0001:00022450       ?connectionsOpen@PoolImpl@@UEBAIXZ 0000000180023450 f   dpiPoolImpl.obj
 0001:000224a0       ?connectionsInUse@PoolImpl@@UEBAIXZ 00000001800234a0 f   dpiPoolImpl.obj
 0001:000224f0       ?getConnection@PoolImpl@@UEAAPEAVConn@dpi@@AEBV?$basic_string@DU?$char_traits@D@std@@V?$allocator@D@2@@std@@@Z 00000001800234f0 f   dpiPoolImpl.obj
 0001:00022560       ?cleanup@PoolImpl@@AEAAXXZ 0000000180023560 f   dpiPoolImpl.obj
 0001:000225e0       ??1Stmt@dpi@@UEAA@XZ       00000001800235e0 f i dpiStmtImpl.obj
 0001:000225f0       ??_GStmt@dpi@@UEAAPEAXI@Z  00000001800235f0 f i dpiStmtImpl.obj
 0001:000225f0       ??_EStmt@dpi@@UEAAPEAXI@Z  00000001800235f0 f i * CIL library *:* CIL module *
 0001:00022620       ?getError@StmtImpl@@UEAAPEAUOCIError@@XZ 0000000180023620 f i dpiStmtImpl.obj
 0001:00022630       ??0StmtImpl@@QEAA@PEAVEnvImpl@@PEAUOCIEnv@@PEAVConnImpl@@PEAUOCISvcCtx@@AEBV?$basic_string@DU?$char_traits@D@std@@V?$allocator@D@2@@std@@@Z 0000000180023630 f   dpiStmtImpl.obj
 0001:00022780       ??_EStmtImpl@@UEAAPEAXI@Z  0000000180023780 f i * CIL library *:* CIL module *
 0001:00022780       ??_GStmtImpl@@UEAAPEAXI@Z  0000000180023780 f i dpiStmtImpl.obj
 0001:000227e0       ?stmtType@StmtImpl@@UEBA?AW4DpiStmtType@dpi@@XZ 00000001800237e0 f   dpiStmtImpl.obj
 0001:00022840       ?rowsAffected@StmtImpl@@UEBAHXZ 0000000180023840 f   dpiStmtImpl.obj
 0001:00022890       ?numCols@StmtImpl@@UEAAIXZ 0000000180023890 f   dpiStmtImpl.obj
 0001:000228f0       ?prefetchRows@StmtImpl@@UEAAXI@Z 00000001800238f0 f   dpiStmtImpl.obj
 0001:00022940       ?bind@StmtImpl@@UEAAXIGPEAXHPEAFPEAGIPEAI0P6AH0HIKKPEAPEAX44PEAPEAGPEAE@Z@Z 0000000180023940 f   dpiStmtImpl.obj
 0001:00022ab0       ?bind@StmtImpl@@UEAAXPEBEHIGPEAXHPEAFPEAGIPEAI1P6AH1HIKKPEAPEAX55PEAPEAGPEAE@Z@Z 0000000180023ab0 f   dpiStmtImpl.obj
 0001:00022c30       ?execute@StmtImpl@@UEAAXH_N@Z 0000000180023c30 f   dpiStmtImpl.obj
 0001:00022cb0       ?release@StmtImpl@@UEAAXXZ 0000000180023cb0 f   dpiStmtImpl.obj
 0001:00022cd0       ?define@StmtImpl@@UEAAXIGPEAXHPEAFPEAG@Z 0000000180023cd0 f   dpiStmtImpl.obj
 0001:00022db0       ?fetch@StmtImpl@@UEAAXI@Z  0000000180023db0 f   dpiStmtImpl.obj
 0001:00022e00       ?rowsFetched@StmtImpl@@UEBAIXZ 0000000180023e00 f   dpiStmtImpl.obj
 0001:00022e50       ?getMetaData@StmtImpl@@UEAAPEBUMetaData@dpi@@XZ 0000000180023e50 f   dpiStmtImpl.obj
 0001:000230f0       ?cleanup@StmtImpl@@AEAAXXZ 00000001800240f0 f   dpiStmtImpl.obj
 0001:00023190       ?inbindCallback@StmtImpl@@SAHPEAXPEAUOCIBind@@IIPEAPEAXPEAIPEAE2@Z 0000000180024190 f   dpiStmtImpl.obj
 0001:000231c0       ?outbindCallback@StmtImpl@@SAHPEAXPEAUOCIBind@@IIPEAPEAXPEAPEAIPEAE2PEAPEAG@Z 00000001800241c0 f   dpiStmtImpl.obj
 0001:00023300       ?isReturning@StmtImpl@@UEAA_NXZ 0000000180024300 f   dpiStmtImpl.obj
 0001:00023380       ?getState@StmtImpl@@UEAAIXZ 0000000180024380 f   dpiStmtImpl.obj
 0001:0002358c       __imp_load_?FatalException@node@@YAXPEAVIsolate@v8@@AEBVTryCatch@3@@Z 000000018002458c f   node:node.exe
 0001:00023598       __tailMerge_node_exe       0000000180024598 f i node:node.exe
 0001:00023611       __imp_load_node_module_register 0000000180024611 f   node:node.exe
 0001:0002361d       __imp_load_?MakeCallback@node@@YA?AV?$Local@VValue@v8@@@v8@@PEAVIsolate@3@V?$Local@VObject@v8@@@3@V?$Local@VFunction@v8@@@3@HPEAV23@@Z 000000018002461d f   node:node.exe
 0001:00023629       __imp_load_uv_default_loop 0000000180024629 f   node:node.exe
 0001:00023635       __imp_load_?HasCaught@TryCatch@v8@@QEBA_NXZ 0000000180024635 f   node:node.exe
 0001:00023641       __imp_load_??1TryCatch@v8@@QEAA@XZ 0000000180024641 f   node:node.exe
 0001:0002364d       __imp_load_??0TryCatch@v8@@QEAA@PEAVIsolate@1@@Z 000000018002464d f   node:node.exe
 0001:00023659       __imp_load_?New@Signature@v8@@SA?AV?$Local@VSignature@v8@@@2@PEAVIsolate@2@V?$Local@VFunctionTemplate@v8@@@2@@Z 0000000180024659 f   node:node.exe
 0001:00023665       __imp_load_?Global@Context@v8@@QEAA?AV?$Local@VObject@v8@@@2@XZ 0000000180024665 f   node:node.exe
 0001:00023671       __imp_load_?ToLocalEmpty@V8@v8@@CAXXZ 0000000180024671 f   node:node.exe
 0001:0002367d       __imp_load_?ClearWeak@V8@v8@@CAPEAXPEAPEAVObject@internal@2@@Z 000000018002467d f   node:node.exe
 0001:00023689       __imp_load_?MakeWeak@V8@v8@@CAXPEAPEAVObject@internal@2@PEAXP6AXAEBV?$WeakCallbackInfo@X@2@@ZW4WeakCallbackType@2@@Z 0000000180024689 f   node:node.exe
 0001:00023695       __imp_load_?DisposeGlobal@V8@v8@@CAXPEAPEAVObject@internal@2@@Z 0000000180024695 f   node:node.exe
 0001:000236a1       __imp_load_?GlobalizeReference@V8@v8@@CAPEAPEAVObject@internal@2@PEAVIsolate@42@PEAPEAV342@@Z 00000001800246a1 f   node:node.exe
 0001:000236ad       __imp_load_?Escape@EscapableHandleScope@v8@@AEAAPEAPEAVObject@internal@2@PEAPEAV342@@Z 00000001800246ad f   node:node.exe
 0001:000236b9       __imp_load_??0EscapableHandleScope@v8@@QEAA@PEAVIsolate@1@@Z 00000001800246b9 f   node:node.exe
 0001:000236c5       __imp_load_?ToInteger@Value@v8@@QEBA?AV?$MaybeLocal@VInteger@v8@@@2@V?$Local@VContext@v8@@@2@@Z 00000001800246c5 f   node:node.exe
 0001:000236d1       __imp_load_?IsUint32@Value@v8@@QEBA_NXZ 00000001800246d1 f   node:node.exe
 0001:000236dd       __imp_load_?IsNumber@Value@v8@@QEBA_NXZ 00000001800246dd f   node:node.exe
 0001:000236e9       __imp_load_?IsObject@Value@v8@@QEBA_NXZ 00000001800246e9 f   node:node.exe
 0001:000236f5       __imp_load_?IsArray@Value@v8@@QEBA_NXZ 00000001800246f5 f   node:node.exe
 0001:00023701       __imp_load_?IsFunction@Value@v8@@QEBA_NXZ 0000000180024701 f   node:node.exe
 0001:0002370d       __imp_load_?SetClassName@FunctionTemplate@v8@@QEAAXV?$Local@VString@v8@@@2@@Z 000000018002470d f   node:node.exe
 0001:00023719       __imp_load_?PrototypeTemplate@FunctionTemplate@v8@@QEAA?AV?$Local@VObjectTemplate@v8@@@2@XZ 0000000180024719 f   node:node.exe
 0001:00023725       __imp_load_?InstanceTemplate@FunctionTemplate@v8@@QEAA?AV?$Local@VObjectTemplate@v8@@@2@XZ 0000000180024725 f   node:node.exe
 0001:00023731       __imp_load_?GetFunction@FunctionTemplate@v8@@QEAA?AV?$Local@VFunction@v8@@@2@XZ 0000000180024731 f   node:node.exe
 0001:0002373d       __imp_load_?GetFunction@FunctionTemplate@v8@@QEAA?AV?$MaybeLocal@VFunction@v8@@@2@V?$Local@VContext@v8@@@2@@Z 000000018002473d f   node:node.exe
 0001:00023749       __imp_load_?New@FunctionTemplate@v8@@SA?AV?$Local@VFunctionTemplate@v8@@@2@PEAVIsolate@2@P6AXAEBV?$FunctionCallbackInfo@VValue@v8@@@2@@ZV?$Local@VValue@v8@@@2@V?$Local@VSignature@v8@@@2@H@Z 0000000180024749 f   node:node.exe
 0001:00023755       __imp_load_?Error@Exception@v8@@SA?AV?$Local@VValue@v8@@@2@V?$Local@VString@v8@@@2@@Z 0000000180024755 f   node:node.exe
 0001:00023761       __imp_load_??1Utf8Value@String@v8@@QEAA@XZ 0000000180024761 f   node:node.exe
 0001:0002376d       __imp_load_??0Utf8Value@String@v8@@QEAA@V?$Local@VValue@v8@@@2@@Z 000000018002476d f   node:node.exe
 0001:00023779       __imp_load_?NewFromUtf8@String@v8@@SA?AV?$MaybeLocal@VString@v8@@@2@PEAVIsolate@2@PEBDW4NewStringType@2@H@Z 0000000180024779 f   node:node.exe
 0001:00023785       __imp_load_?New@Array@v8@@SA?AV?$Local@VArray@v8@@@2@PEAVIsolate@2@H@Z 0000000180024785 f   node:node.exe
 0001:00023791       __imp_load_?Length@Array@v8@@QEBAIXZ 0000000180024791 f   node:node.exe
 0001:0002379d       __imp_load_?CreateHandle@HandleScope@v8@@KAPEAPEAVObject@internal@2@PEAVIsolate@42@PEAV342@@Z 000000018002479d f   node:node.exe
 0001:000237a9       __imp_load_?CreateHandle@HandleScope@v8@@CAPEAPEAVObject@internal@2@PEAVHeapObject@42@PEAV342@@Z 00000001800247a9 f   node:node.exe
 0001:000237b5       __imp_load_??1HandleScope@v8@@QEAA@XZ 00000001800247b5 f   node:node.exe
 0001:000237c1       __imp_load_??0HandleScope@v8@@QEAA@PEAVIsolate@1@@Z 00000001800247c1 f   node:node.exe
 0001:000237cd       __imp_load_?Value@Boolean@v8@@QEBA_NXZ 00000001800247cd f   node:node.exe
 0001:000237d9       __imp_load_?SlowGetAlignedPointerFromInternalField@Object@v8@@AEAAPEAXH@Z 00000001800247d9 f   node:node.exe
 0001:000237e5       __imp_load_?SlowGetInternalField@Object@v8@@AEAA?AV?$Local@VValue@v8@@@2@H@Z 00000001800247e5 f   node:node.exe
 0001:000237f1       __imp_load_?SetAlignedPointerInInternalField@Object@v8@@QEAAXHPEAX@Z 00000001800247f1 f   node:node.exe
 0001:000237fd       __imp_load_?SetInternalField@Object@v8@@QEAAXHV?$Local@VValue@v8@@@2@@Z 00000001800247fd f   node:node.exe
 0001:00023809       __imp_load_?InternalFieldCount@Object@v8@@QEAAHXZ 0000000180024809 f   node:node.exe
 0001:00023815       __imp_load_?Get@Object@v8@@QEAA?AV?$Local@VValue@v8@@@2@V32@@Z 0000000180024815 f   node:node.exe
 0001:00023821       __imp_load_?Get@Object@v8@@QEAA?AV?$Local@VValue@v8@@@2@I@Z 0000000180024821 f   node:node.exe
 0001:0002382d       __imp_load_?Set@Object@v8@@QEAA?AV?$Maybe@_N@2@V?$Local@VContext@v8@@@2@V?$Local@VValue@v8@@@2@1@Z 000000018002482d f   node:node.exe
 0001:00023839       __imp_load_?Set@Object@v8@@QEAA_NIV?$Local@VValue@v8@@@2@@Z 0000000180024839 f   node:node.exe
 0001:00023845       __imp_load_?Set@Template@v8@@QEAAXV?$Local@VName@v8@@@2@V?$Local@VData@v8@@@2@W4PropertyAttribute@2@@Z 0000000180024845 f   node:node.exe
 0001:00023851       __imp_load_?Value@Int32@v8@@QEBAHXZ 0000000180024851 f   node:node.exe
 0001:0002385d       __imp_load_?SetInternalFieldCount@ObjectTemplate@v8@@QEAAXH@Z 000000018002485d f   node:node.exe
 0001:00023869       __imp_load_?SetAccessor@ObjectTemplate@v8@@QEAAXV?$Local@VName@v8@@@2@P6AX0AEBV?$PropertyCallbackInfo@VValue@v8@@@2@@ZP6AX0V?$Local@VValue@v8@@@2@AEBV?$PropertyCallbackInfo@X@2@@Z3W4AccessControl@2@W4PropertyAttribute@2@V?$Local@VAccessorSignature@v8@@@2@@Z 0000000180024869 f   node:node.exe
 0001:00023875       __imp_load_?NewInstance@ObjectTemplate@v8@@QEAA?AV?$MaybeLocal@VObject@v8@@@2@V?$Local@VContext@v8@@@2@@Z 0000000180024875 f   node:node.exe
 0001:00023881       __imp_load_?New@ObjectTemplate@v8@@SA?AV?$Local@VObjectTemplate@v8@@@2@PEAVIsolate@2@V?$Local@VFunctionTemplate@v8@@@2@@Z 0000000180024881 f   node:node.exe
 0001:0002388d       __imp_load_?NewFromUnsigned@Integer@v8@@SA?AV?$Local@VInteger@v8@@@2@PEAVIsolate@2@I@Z 000000018002488d f   node:node.exe
 0001:00023899       __imp_load_?New@Integer@v8@@SA?AV?$Local@VInteger@v8@@@2@PEAVIsolate@2@H@Z 0000000180024899 f   node:node.exe
 0001:000238a5       __imp_load_?SetName@Function@v8@@QEAAXV?$Local@VString@v8@@@2@@Z 00000001800248a5 f   node:node.exe
 0001:000238b1       __imp_load_?NewInstance@Function@v8@@QEBA?AV?$Local@VObject@v8@@@2@XZ 00000001800248b1 f   node:node.exe
 0001:000238bd       __imp_load_?Value@Uint32@v8@@QEBAIXZ 00000001800248bd f   node:node.exe
 0001:000238c9       __imp_load_?ThrowException@Isolate@v8@@QEAA?AV?$Local@VValue@v8@@@2@V32@@Z 00000001800248c9 f   node:node.exe
 0001:000238d5       __imp_load_?GetCurrentContext@Isolate@v8@@QEAA?AV?$Local@VContext@v8@@@2@XZ 00000001800248d5 f   node:node.exe
 0001:000238e1       __imp_load_?GetCurrent@Isolate@v8@@SAPEAV12@XZ 00000001800248e1 f   node:node.exe
 0001:000238ed       __imp_load_?Value@External@v8@@QEBAPEAXXZ 00000001800248ed f   node:node.exe
 0001:000238f9       __imp_load_?New@External@v8@@SA?AV?$Local@VExternal@v8@@@2@PEAVIsolate@2@PEAX@Z 00000001800248f9 f   node:node.exe
 0001:00023905       __imp_load_uv_queue_work   0000000180024905 f   node:node.exe
 0001:00023911       __imp_load_?ToInt32@Value@v8@@QEBA?AV?$Local@VInt32@v8@@@2@XZ 0000000180024911 f   node:node.exe
 0001:0002391d       __imp_load_?ToUint32@Value@v8@@QEBA?AV?$Local@VUint32@v8@@@2@XZ 000000018002491d f   node:node.exe
 0001:00023929       __imp_load_?ToObject@Value@v8@@QEBA?AV?$Local@VObject@v8@@@2@XZ 0000000180024929 f   node:node.exe
 0001:00023935       __imp_load_?ToString@Value@v8@@QEBA?AV?$Local@VString@v8@@@2@XZ 0000000180024935 f   node:node.exe
 0001:00023941       __imp_load_?ToBoolean@Value@v8@@QEBA?AV?$Local@VBoolean@v8@@@2@XZ 0000000180024941 f   node:node.exe
 0001:0002394d       __imp_load_?length@Utf8Value@String@v8@@QEBAHXZ 000000018002494d f   node:node.exe
 0001:00023959       __imp_load_??DUtf8Value@String@v8@@QEAAPEADXZ 0000000180024959 f   node:node.exe
 0001:00023965       __imp_load_??1EscapableHandleScope@v8@@QEAA@XZ 0000000180024965 f   node:node.exe
 0001:00023971       __imp_load_?Length@Buffer@node@@YA_KV?$Local@VObject@v8@@@v8@@@Z 0000000180024971 f   node:node.exe
 0001:0002397d       __imp_load_?Data@Buffer@node@@YAPEADV?$Local@VObject@v8@@@v8@@@Z 000000018002497d f   node:node.exe
 0001:00023989       __imp_load_?HasInstance@Buffer@node@@YA_NV?$Local@VValue@v8@@@v8@@@Z 0000000180024989 f   node:node.exe
 0001:00023995       __imp_load_?HasInstance@Buffer@node@@YA_NV?$Local@VObject@v8@@@v8@@@Z 0000000180024995 f   node:node.exe
 0001:000239a1       __imp_load_?Copy@Buffer@node@@YA?AV?$MaybeLocal@VObject@v8@@@v8@@PEAVIsolate@4@PEBD_K@Z 00000001800249a1 f   node:node.exe
 0001:000239ad       __imp_load_?New@Date@v8@@SA?AV?$MaybeLocal@VValue@v8@@@2@V?$Local@VContext@v8@@@2@N@Z 00000001800249ad f   node:node.exe
 0001:000239b9       __imp_load_?NumberValue@Value@v8@@QEBANXZ 00000001800249b9 f   node:node.exe
 0001:000239c5       __imp_load_?IsDate@Value@v8@@QEBA_NXZ 00000001800249c5 f   node:node.exe
 0001:000239d1       __imp_load_?IsInt32@Value@v8@@QEBA_NXZ 00000001800249d1 f   node:node.exe
 0001:000239dd       __imp_load_?New@Number@v8@@SA?AV?$Local@VNumber@v8@@@2@PEAVIsolate@2@N@Z 00000001800249dd f   node:node.exe
 0001:000239e9       __imp_load_?New@Object@v8@@SA?AV?$Local@VObject@v8@@@2@PEAVIsolate@2@@Z 00000001800249e9 f   node:node.exe
 0001:000239f5       __imp_load_?GetOwnPropertyNames@Object@v8@@QEAA?AV?$Local@VArray@v8@@@2@XZ 00000001800249f5 f   node:node.exe
 0001:00023a01       __imp_load_?ForceSet@Object@v8@@QEAA?AV?$Maybe@_N@2@V?$Local@VContext@v8@@@2@V?$Local@VValue@v8@@@2@1W4PropertyAttribute@2@@Z 0000000180024a01 f   node:node.exe
 0001:00023a0d       __imp_load_?Set@Object@v8@@QEAA?AV?$Maybe@_N@2@V?$Local@VContext@v8@@@2@IV?$Local@VValue@v8@@@2@@Z 0000000180024a0d f   node:node.exe
 0001:00023a19       __imp_load_?Call@Function@v8@@QEAA?AV?$Local@VValue@v8@@@2@V32@HQEAV32@@Z 0000000180024a19 f   node:node.exe
 0001:00023a28       _Getcvt                    0000000180024a28 f   libcpmt:xwctomb.obj
 0001:00023ab8       ??4?$_Yarn@D@std@@QEAAAEAV01@PEBD@Z 0000000180024ab8 f i libcpmt:locale0.obj
 0001:00023b30       ??_G_Locimp@locale@std@@MEAAPEAXI@Z 0000000180024b30 f i libcpmt:locale0.obj
 0001:00023b30       ??_E_Locimp@locale@std@@MEAAPEAXI@Z 0000000180024b30 f i libcpmt:locale0.obj
 0001:00023b88       ?_Facet_Register@std@@YAXPEAV_Facet_base@1@@Z 0000000180024b88 f   libcpmt:locale0.obj
 0001:00023bbc       ?_Getgloballocale@locale@std@@CAPEAV_Locimp@12@XZ 0000000180024bbc f   libcpmt:locale0.obj
 0001:00023bc4       ?_Init@locale@std@@CAPEAV_Locimp@12@_N@Z 0000000180024bc4 f   libcpmt:locale0.obj
 0001:00023c64       ?_Locimp_dtor@_Locimp@locale@std@@CAXPEAV123@@Z 0000000180024c64 f   libcpmt:locale0.obj
 0001:00023cdc       ?_Locinfo_ctor@_Locinfo@std@@SAXPEAV12@PEBD@Z 0000000180024cdc f   libcpmt:locale0.obj
 0001:00023d48       ?_Locinfo_dtor@_Locinfo@std@@SAXPEAV12@@Z 0000000180024d48 f   libcpmt:locale0.obj
 0001:00023d6c       ?_New_Locimp@_Locimp@locale@std@@CAPEAV123@_N@Z 0000000180024d6c f   libcpmt:locale0.obj
 0001:00023dd8       ?_Setgloballocale@locale@std@@CAXPEAX@Z 0000000180024dd8 f   libcpmt:locale0.obj
 0001:00023e0c       _Deletegloballocale        0000000180024e0c f   libcpmt:locale0.obj
 0001:00023e6c       ?_Ios_base_dtor@ios_base@std@@CAXPEAV12@@Z 0000000180024e6c f   libcpmt:ios.obj
 0001:00023ed0       ?_Tidy@ios_base@std@@AEAAXXZ 0000000180024ed0 f i libcpmt:ios.obj
 0001:00023f40       ??0bad_alloc@std@@QEAA@AEBV01@@Z 0000000180024f40 f i libcpmt:xthrow.obj
 0001:00023f64       ??0length_error@std@@QEAA@AEBV01@@Z 0000000180024f64 f i libcpmt:xthrow.obj
 0001:00023f88       ??0logic_error@std@@QEAA@AEBV01@@Z 0000000180024f88 f i libcpmt:xthrow.obj
 0001:00023fac       ??0out_of_range@std@@QEAA@AEBV01@@Z 0000000180024fac f i libcpmt:xthrow.obj
 0001:00023fd0       ??1bad_alloc@std@@UEAA@XZ  0000000180024fd0 f i libcpmt:xthrow.obj
 0001:00023fe0       ??1out_of_range@std@@UEAA@XZ 0000000180024fe0 f i libcpmt:xthrow.obj
 0001:00023fe0       ??1length_error@std@@UEAA@XZ 0000000180024fe0 f i libcpmt:xthrow.obj
 0001:00023fe8       ??_Gbad_alloc@std@@UEAAPEAXI@Z 0000000180024fe8 f i libcpmt:xthrow.obj
 0001:00023fe8       ??_Ebad_alloc@std@@UEAAPEAXI@Z 0000000180024fe8 f i libcpmt:xthrow.obj
 0001:00024024       ??_Elength_error@std@@UEAAPEAXI@Z 0000000180025024 f i libcpmt:xthrow.obj
 0001:00024024       ??_Eout_of_range@std@@UEAAPEAXI@Z 0000000180025024 f i libcpmt:xthrow.obj
 0001:00024024       ??_Glength_error@std@@UEAAPEAXI@Z 0000000180025024 f i libcpmt:xthrow.obj
 0001:00024024       ??_Elogic_error@std@@UEAAPEAXI@Z 0000000180025024 f i libcpmt:xthrow.obj
 0001:00024024       ??_Glogic_error@std@@UEAAPEAXI@Z 0000000180025024 f i libcpmt:xthrow.obj
 0001:00024024       ??_Gout_of_range@std@@UEAAPEAXI@Z 0000000180025024 f i libcpmt:xthrow.obj
 0001:00024054       ?_Xbad_alloc@std@@YAXXZ    0000000180025054 f   libcpmt:xthrow.obj
 0001:00024098       ?_Xlength_error@std@@YAXPEBD@Z 0000000180025098 f   libcpmt:xthrow.obj
 0001:000240d0       ?_Xout_of_range@std@@YAXPEBD@Z 00000001800250d0 f   libcpmt:xthrow.obj
 0001:00024108       ??0_Init_locks@std@@QEAA@XZ 0000000180025108 f   libcpmt:xlock.obj
 0001:00024154       ??0_Lockit@std@@QEAA@H@Z   0000000180025154 f   libcpmt:xlock.obj
 0001:00024194       ??1_Init_locks@std@@QEAA@XZ 0000000180025194 f   libcpmt:xlock.obj
 0001:000241d0       ??1_Lockit@std@@QEAA@XZ    00000001800251d0 f   libcpmt:xlock.obj
 0001:00024208       ??_U@YAPEAX_K@Z            0000000180025208 f   libcpmt:newaop.obj
 0001:00024210       _Getctype                  0000000180025210 f   libcpmt:_tolower.obj
 0001:0002428c       _Tolower                   000000018002528c f   libcpmt:_tolower.obj
 0001:000243c0       _Toupper                   00000001800253c0 f   libcpmt:_toupper.obj
 0001:00024504       ?setw@std@@YA?AU?$_Smanip@_J@1@_J@Z 0000000180025504 f   libcpmt:iomanip.obj
 0001:00024520       ?_Atexit@@YAXP6AXXZ@Z      0000000180025520 f   libcpmt:iosptrs.obj
 0001:00024560       _Mtxdst                    0000000180025560 f   libcpmt:xmtx.obj
 0001:00024568       _Mtxinit                   0000000180025568 f   libcpmt:xmtx.obj
 0001:00024578       _Mtxlock                   0000000180025578 f   libcpmt:xmtx.obj
 0001:00024580       _Mtxunlock                 0000000180025580 f   libcpmt:xmtx.obj
 0001:000245a0       __security_check_cookie    00000001800255a0 f   LIBCMT:amdsecgs.obj
 0001:000245c0       _set_abort_behavior        00000001800255c0 f   LIBCMT:abort.obj
 0001:000245dc       abort                      00000001800255dc f   LIBCMT:abort.obj
 0001:00024634       _call_reportfault          0000000180025634 f   LIBCMT:invarg.obj
 0001:00024728       _initp_misc_invarg         0000000180025728 f   LIBCMT:invarg.obj
 0001:00024730       _invalid_parameter         0000000180025730 f   LIBCMT:invarg.obj
 0001:00024798       _invalid_parameter_noinfo  0000000180025798 f   LIBCMT:invarg.obj
 0001:000247b8       _invoke_watson             00000001800257b8 f   LIBCMT:invarg.obj
 0001:000247f4       sprintf_s                  00000001800257f4 f   LIBCMT:sprintf.obj
 0001:00024830       memmove                    0000000180025830 f   LIBCMT:memcpy.obj
 0001:00024830       memcpy                     0000000180025830 f   LIBCMT:memcpy.obj
 0001:00024d98       free                       0000000180025d98 f   LIBCMT:free.obj
 0001:00024dd8       malloc                     0000000180025dd8 f   LIBCMT:malloc.obj
 0001:00024e90       localeconv                 0000000180025e90 f   LIBCMT:lconv.obj
 0001:00024ec8       _wassert                   0000000180025ec8 f   LIBCMT:wassert.obj
 0001:0002582c       __onexitinit               000000018002682c f   LIBCMT:onexit.obj
 0001:00025870       _onexit                    0000000180026870 f   LIBCMT:onexit.obj
 0001:0002597c       atexit                     000000018002697c f   LIBCMT:onexit.obj
 0001:00025994       ??_V@YAXPEAX@Z             0000000180026994 f   LIBCMT:delete2.obj
 0001:0002599c       _purecall                  000000018002699c f   LIBCMT:purevirt.obj
 0001:000259c8       ??3@YAXPEAX@Z              00000001800269c8 f   LIBCMT:delete.obj
 0001:000259d0       strcspn                    00000001800269d0 f   LIBCMT:strcspn.obj
 0001:00025a70       ??8type_info@@QEBA_NAEBV0@@Z 0000000180026a70 f   LIBCMT:typinfo.obj
 0001:00025a90       ??_Gtype_info@@UEAAPEAXI@Z 0000000180026a90 f i LIBCMT:typinfo.obj
 0001:00025a90       ??_Etype_info@@UEAAPEAXI@Z 0000000180026a90 f i LIBCMT:typinfo.obj
 0001:00025acc       ??2@YAPEAX_K@Z             0000000180026acc f   LIBCMT:new.obj
 0001:00025b38       ??_M@YAXPEAX_KHP6AX0@Z@Z   0000000180026b38 f   LIBCMT:ehvecdtr.obj
 0001:00025b98       ?__ArrayUnwind@@YAXPEAX_KHP6AX0@Z@Z 0000000180026b98 f   LIBCMT:ehvecdtr.obj
 0001:00025be4       ??_L@YAXPEAX_KHP6AX0@Z2@Z  0000000180026be4 f   LIBCMT:ehvecctr.obj
 0001:00025c4c       __raise_securityfailure    0000000180026c4c f   LIBCMT:gs_report.obj
 0001:00025c98       __report_gsfailure         0000000180026c98 f   LIBCMT:gs_report.obj
 0001:00025d6c       __report_rangecheckfailure 0000000180026d6c f   LIBCMT:gs_report.obj
 0001:00025d80       __report_securityfailure   0000000180026d80 f   LIBCMT:gs_report.obj
 0001:00025e1c       ??0_LocaleUpdate@@QEAA@PEAUlocaleinfo_struct@@@Z 0000000180026e1c f i LIBCMT:stricmp.obj
 0001:00025ec4       __ascii_stricmp            0000000180026ec4 f   LIBCMT:stricmp.obj
 0001:00025f00       _stricmp                   0000000180026f00 f   LIBCMT:stricmp.obj
 0001:00025f48       _stricmp_l                 0000000180026f48 f   LIBCMT:stricmp.obj
 0001:00025ffc       _CRT_INIT                  0000000180026ffc f   LIBCMT:dllcrt0.obj
 0001:0002615c       _DllMainCRTStartup         000000018002715c f   LIBCMT:dllcrt0.obj
 0001:000262bc       ___lc_codepage_func        00000001800272bc f   LIBCMT:initctyp.obj
 0001:000262f4       ___lc_locale_name_func     00000001800272f4 f   LIBCMT:initctyp.obj
 0001:00026330       ___mb_cur_max_func         0000000180027330 f   LIBCMT:initctyp.obj
 0001:0002636c       __init_ctype               000000018002736c f   LIBCMT:initctyp.obj
 0001:00026790       __doserrno                 0000000180027790 f   LIBCMT:dosmap.obj
 0001:000267b0       _dosmaperr                 00000001800277b0 f   LIBCMT:dosmap.obj
 0001:00026800       _errno                     0000000180027800 f   LIBCMT:dosmap.obj
 0001:00026820       _get_errno_from_oserr      0000000180027820 f   LIBCMT:dosmap.obj
 0001:000268ec       _ismbblead                 00000001800278ec f   LIBCMT:ismbbyte.obj
 0001:00026910       memset                     0000000180027910 f   LIBCMT:memset.obj
 0001:00026b50       strlen                     0000000180027b50 f   LIBCMT:strlen.obj
 0001:00026bf8       _CxxThrowException         0000000180027bf8 f   LIBCMT:throw.obj
 0001:00026cc0       ?_GetEstablisherFrame@@YAPEA_KPEA_KPEAU_xDISPATCHER_CONTEXT@@PEBU_s_FuncInfo@@0@Z 0000000180027cc0 f   LIBCMT:trnsctrl.obj
 0001:00026d8c       ?_GetRangeOfTrysToCheck@@YAPEBU_s_TryBlockMapEntry@@PEA_KPEBU_s_FuncInfo@@HHPEAI2PEAU_xDISPATCHER_CONTEXT@@@Z 0000000180027d8c f   LIBCMT:trnsctrl.obj
 0001:00026eb8       ?__FrameUnwindToEmptyState@@YAXPEA_KPEAU_xDISPATCHER_CONTEXT@@PEBU_s_FuncInfo@@@Z 0000000180027eb8 f   LIBCMT:trnsctrl.obj
 0001:00026f4c       ?__SehTransFilter@@YAHPEAU_EXCEPTION_POINTERS@@PEAUEHExceptionRecord@@PEA_KPEAU_CONTEXT@@PEAU_xDISPATCHER_CONTEXT@@PEBU_s_FuncInfo@@PEAH@Z 0000000180027f4c f   LIBCMT:trnsctrl.obj
 0001:00026ff0       _CallSETranslator          0000000180027ff0 f   LIBCMT:trnsctrl.obj
 0001:00027044       _CreateFrameInfo           0000000180028044 f   LIBCMT:trnsctrl.obj
 0001:00027088       _FindAndUnlinkFrame        0000000180028088 f   LIBCMT:trnsctrl.obj
 0001:000270e8       _GetImageBase              00000001800280e8 f   LIBCMT:trnsctrl.obj
 0001:00027100       _GetThrowImageBase         0000000180028100 f   LIBCMT:trnsctrl.obj
 0001:00027118       _IsExceptionObjectToBeDestroyed 0000000180028118 f   LIBCMT:trnsctrl.obj
 0001:0002714c       _SetImageBase              000000018002814c f   LIBCMT:trnsctrl.obj
 0001:00027168       _SetThrowImageBase         0000000180028168 f   LIBCMT:trnsctrl.obj
 0001:00027184       _UnwindNestedFrames        0000000180028184 f   LIBCMT:trnsctrl.obj
 0001:000272a8       __CxxFrameHandler3         00000001800282a8 f   LIBCMT:trnsctrl.obj
 0001:00027330       _fpmath                    0000000180028330 f   LIBCMT:fpinit.obj
 0001:00027338       _cfltcvt_init              0000000180028338 f   LIBCMT:fpinit.obj
 0001:000273c0       setlocale                  00000001800283c0 f   LIBCMT:setlocal.obj
 0001:00027630       ??0exception@std@@QEAA@AEBQEBD@Z 0000000180028630 f   LIBCMT:stdexcpt.obj
 0001:00027660       ??0exception@std@@QEAA@AEBQEBDH@Z 0000000180028660 f   LIBCMT:stdexcpt.obj
 0001:0002767c       ??0exception@std@@QEAA@AEBV01@@Z 000000018002867c f   LIBCMT:stdexcpt.obj
 0001:000276a8       ??1exception@std@@UEAA@XZ  00000001800286a8 f   LIBCMT:stdexcpt.obj
 0001:000276b8       ??4exception@std@@QEAAAEAV01@AEBV01@@Z 00000001800286b8 f   LIBCMT:stdexcpt.obj
 0001:000276fc       ??_Gexception@std@@UEAAPEAXI@Z 00000001800286fc f i LIBCMT:stdexcpt.obj
 0001:000276fc       ??_Eexception@std@@UEAAPEAXI@Z 00000001800286fc f i LIBCMT:stdexcpt.obj
 0001:00027738       ?_Copy_str@exception@std@@AEAAXPEBD@Z 0000000180028738 f   LIBCMT:stdexcpt.obj
 0001:00027794       ?_Tidy@exception@std@@AEAAXXZ 0000000180028794 f   LIBCMT:stdexcpt.obj
 0001:000277bc       ?what@exception@std@@UEBAPEBDXZ 00000001800287bc f   LIBCMT:stdexcpt.obj
 0001:000277d0       _lock                      00000001800287d0 f   LIBCMT:mlock.obj
 0001:00027814       _mtdeletelocks             0000000180028814 f   LIBCMT:mlock.obj
 0001:0002789c       _mtinitlocknum             000000018002889c f   LIBCMT:mlock.obj
 0001:0002795c       _mtinitlocks               000000018002895c f   LIBCMT:mlock.obj
 0001:000279c0       _unlock                    00000001800289c0 f   LIBCMT:mlock.obj
 0001:000279d8       __pctype_func              00000001800289d8 f   LIBCMT:ctype.obj
 0001:00027a14       isdigit                    0000000180028a14 f i LIBCMT:_ctype.obj
 0001:00027a90       islower                    0000000180028a90 f i LIBCMT:_ctype.obj
 0001:00027b0c       isupper                    0000000180028b0c f i LIBCMT:_ctype.obj
 0001:00027b88       _wcsdup                    0000000180028b88 f   LIBCMT:wcsdup.obj
 0001:00027eec       __crtLCMapStringA          0000000180028eec f   LIBCMT:a_map.obj
 0001:00027f84       _calloc_crt                0000000180028f84 f   LIBCMT:crtheap.obj
 0001:00028004       _malloc_crt                0000000180029004 f   LIBCMT:crtheap.obj
 0001:00028080       _realloc_crt               0000000180029080 f   LIBCMT:crtheap.obj
 0001:00028120       strcmp                     0000000180029120 f   LIBCMT:strcmp.obj
 0001:00028188       __GSHandlerCheck           0000000180029188 f   LIBCMT:gshandler.obj
 0001:000281a8       __GSHandlerCheckCommon     00000001800291a8 f   LIBCMT:gshandler.obj
 0001:0002820c       __GSHandlerCheck_EH        000000018002920c f   LIBCMT:gshandlereh.obj
 0001:0002829c       __crtCaptureCurrentContext 000000018002929c f   LIBCMT:winapisupp.obj
 0001:0002830c       __crtCapturePreviousContext 000000018002930c f   LIBCMT:winapisupp.obj
 0001:00028380       __crtFlsAlloc              0000000180029380 f   LIBCMT:winapisupp.obj
 0001:0002839c       __crtFlsFree               000000018002939c f   LIBCMT:winapisupp.obj
 0001:000283b8       __crtFlsGetValue           00000001800293b8 f   LIBCMT:winapisupp.obj
 0001:000283d4       __crtFlsSetValue           00000001800293d4 f   LIBCMT:winapisupp.obj
 0001:000283f0       __crtInitializeCriticalSectionEx 00000001800293f0 f   LIBCMT:winapisupp.obj
 0001:0002841c       __crtIsPackagedApp         000000018002941c f   LIBCMT:winapisupp.obj
 0001:00028468       __crtLoadWinApiPointers    0000000180029468 f   LIBCMT:winapisupp.obj
 0001:00028864       __crtSleep                 0000000180029864 f   LIBCMT:winapisupp.obj
 0001:0002886c       __crtTerminateProcess      000000018002986c f   LIBCMT:winapisupp.obj
 0001:0002888c       __crtUnhandledException    000000018002988c f   LIBCMT:winapisupp.obj
 0001:000288ac       memcpy_s                   00000001800298ac f   LIBCMT:memcpy_s.obj
 0001:00028934       wcslen                     0000000180029934 f   LIBCMT:wcslen.obj
 0001:00028950       _tolower_l                 0000000180029950 f   LIBCMT:tolower.obj
 0001:00028aa4       tolower                    0000000180029aa4 f   LIBCMT:tolower.obj
 0001:00028ae0       memcmp                     0000000180029ae0 f   LIBCMT:memcmp.obj
 0001:00028ba8       GetTableIndexFromLcid      0000000180029ba8 f   LIBCMT:winapinls.obj
 0001:00028bec       GetTableIndexFromLocaleName 0000000180029bec f   LIBCMT:winapinls.obj
 0001:00028c78       __crtDownlevelLCIDToLocaleName 0000000180029c78 f   LIBCMT:winapinls.obj
 0001:00028d28       __crtDownlevelLocaleNameToLCID 0000000180029d28 f   LIBCMT:winapinls.obj
 0001:00028d68       __crtEnumSystemLocalesEx   0000000180029d68 f   LIBCMT:winapinls.obj
 0001:00028dac       __crtGetLocaleInfoEx       0000000180029dac f   LIBCMT:winapinls.obj
 0001:00028dfc       __crtGetUserDefaultLocaleName 0000000180029dfc f   LIBCMT:winapinls.obj
 0001:00028e40       __crtIsValidLocaleName     0000000180029e40 f   LIBCMT:winapinls.obj
 0001:00028e74       __crtLCMapStringEx         0000000180029e74 f   LIBCMT:winapinls.obj
 0001:00028f04       __wcsnicmp_ascii           0000000180029f04 f   LIBCMT:winapinls.obj
 0001:00028f5c       __crtLCMapStringW          0000000180029f5c f   LIBCMT:w_map.obj
 0001:00028fa8       __crtCorExitProcess        0000000180029fa8 f   LIBCMT:crt0dat.obj
 0001:00028fec       __crtExitProcess           0000000180029fec f   LIBCMT:crt0dat.obj
 0001:00029004       __freeCrtMemory            000000018002a004 f   LIBCMT:crt0dat.obj
 0001:0002914c       _amsg_exit                 000000018002a14c f   LIBCMT:crt0dat.obj
 0001:00029174       _cexit                     000000018002a174 f   LIBCMT:crt0dat.obj
 0001:00029184       _cinit                     000000018002a184 f   LIBCMT:crt0dat.obj
 0001:0002921c       _exit                      000000018002a21c f   LIBCMT:crt0dat.obj
 0001:00029228       _init_pointers             000000018002a228 f   LIBCMT:crt0dat.obj
 0001:000292d4       _initterm_e                000000018002a2d4 f   LIBCMT:crt0dat.obj
 0001:00029310       _lockexit                  000000018002a310 f   LIBCMT:crt0dat.obj
 0001:0002931c       _unlockexit                000000018002a31c f   LIBCMT:crt0dat.obj
 0001:000294c0       __get_sigabrt              000000018002a4c0 f   LIBCMT:winsig.obj
 0001:000294d0       _initp_misc_winsig         000000018002a4d0 f   LIBCMT:winsig.obj
 0001:000294f0       raise                      000000018002a4f0 f   LIBCMT:winsig.obj
 0001:00029724       __crt_debugger_hook        000000018002a724 f   LIBCMT:dbghook.obj
 0001:0002972c       _flsbuf                    000000018002a72c f   LIBCMT:_flsbuf.obj
 0001:000298b8       _vsnprintf_helper          000000018002a8b8 f   LIBCMT:vsnprnc.obj
 0001:000299a0       _vsprintf_s_l              000000018002a9a0 f   LIBCMT:vsnprnc.obj
 0001:00029a10       _output_l                  000000018002aa10 f   LIBCMT:output.obj
 0001:0002a468       __isa_available_init       000000018002b468 f   LIBCMT:cpu_disp.obj
 0001:0002a60c       _heap_init                 000000018002b60c f   LIBCMT:heapinit.obj
 0001:0002a62c       _heap_term                 000000018002b62c f   LIBCMT:heapinit.obj
 0001:0002a638       _callnewh                  000000018002b638 f   LIBCMT:handler.obj
 0001:0002a66c       _initp_heap_handler        000000018002b66c f   LIBCMT:handler.obj
 0001:0002a674       _FF_MSGBANNER              000000018002b674 f   LIBCMT:crt0msg.obj
 0001:0002a6b8       _GET_RTERRMSG              000000018002b6b8 f   LIBCMT:crt0msg.obj
 0001:0002a6e8       _NMSG_WRITE                000000018002b6e8 f   LIBCMT:crt0msg.obj
 0001:0002a958       __addlocaleref             000000018002b958 f   LIBCMT:localref.obj
 0001:0002a9e4       __freetlocinfo             000000018002b9e4 f   LIBCMT:localref.obj
 0001:0002ab7c       __removelocaleref          000000018002bb7c f   LIBCMT:localref.obj
 0001:0002ac20       __updatetlocinfo           000000018002bc20 f   LIBCMT:localref.obj
 0001:0002ac98       _updatetlocinfoEx_nolock   000000018002bc98 f   LIBCMT:localref.obj
 0001:0002acfc       _freefls                   000000018002bcfc f   LIBCMT:tidtable.obj
 0001:0002ae30       _freeptd                   000000018002be30 f   LIBCMT:tidtable.obj
 0001:0002ae6c       _getptd                    000000018002be6c f   LIBCMT:tidtable.obj
 0001:0002ae90       _getptd_noexit             000000018002be90 f   LIBCMT:tidtable.obj
 0001:0002af14       _initptd                   000000018002bf14 f   LIBCMT:tidtable.obj
 0001:0002afd8       _mtinit                    000000018002bfd8 f   LIBCMT:tidtable.obj
 0001:0002b058       _mtterm                    000000018002c058 f   LIBCMT:tidtable.obj
 0001:0002b07c       wcscat_s                   000000018002c07c f   LIBCMT:wcscat_s.obj
 0001:0002b104       wcscpy_s                   000000018002c104 f   LIBCMT:wcscpy_s.obj
 0001:0002b170       wcsncat_s                  000000018002c170 f   LIBCMT:wcsncat_s.obj
 0001:0002b258       _set_error_mode            000000018002c258 f   LIBCMT:errmode.obj
 0001:0002b298       _itow_s                    000000018002c298 f   LIBCMT:xtows.obj
 0001:0002b3d0       __initstdio                000000018002c3d0 f   LIBCMT:_file.obj
 0001:0002b468       __endstdio                 000000018002c468 f   LIBCMT:_file.obj
 0001:0002b498       __iob_func                 000000018002c498 f   LIBCMT:_file.obj
 0001:0002b4a0       _lock_file                 000000018002c4a0 f   LIBCMT:_file.obj
 0001:0002b508       _lock_file2                000000018002c508 f   LIBCMT:_file.obj
 0001:0002b53c       _unlock_file               000000018002c53c f   LIBCMT:_file.obj
 0001:0002b58c       _unlock_file2              000000018002c58c f   LIBCMT:_file.obj
 0001:0002b5ac       _fflush_nolock             000000018002c5ac f   LIBCMT:fflush.obj
 0001:0002b5f8       _flush                     000000018002c5f8 f   LIBCMT:fflush.obj
 0001:0002b674       _flushall                  000000018002c674 f   LIBCMT:fflush.obj
 0001:0002b680       fflush                     000000018002c680 f   LIBCMT:fflush.obj
 0001:0002b7ac       setvbuf                    000000018002c7ac f   LIBCMT:setvbuf.obj
 0001:0002b8c4       fwprintf                   000000018002c8c4 f   LIBCMT:fwprintf.obj
 0001:0002b958       _vswprintf_c_l             000000018002c958 f   LIBCMT:vswprnc.obj
 0001:0002b990       _vswprintf_helper          000000018002c990 f   LIBCMT:vswprnc.obj
 0001:0002baac       __crtMessageBoxW           000000018002caac f   LIBCMT:crtmboxw.obj
 0001:0002bd20       _msize                     000000018002cd20 f   LIBCMT:msize.obj
 0001:0002bd5c       __C_specific_handler       000000018002cd5c f   LIBCMT:chandler.obj
 0001:0002bf40       __getlocaleinfo            000000018002cf40 f   LIBCMT:inithelp.obj
 0001:0002c128       _initp_misc_purevirt       000000018002d128 f   LIBCMT:inithelp.obj
 0001:0002c130       ?_Type_info_dtor@type_info@@CAXPEAV1@@Z 000000018002d130 f   LIBCMT:typname.obj
 0001:0002c19c       ?_inconsistency@@YAXXZ     000000018002d19c f   LIBCMT:hooks.obj
 0001:0002c1bc       ?terminate@@YAXXZ          000000018002d1bc f   LIBCMT:hooks.obj
 0001:0002c1dc       _initp_eh_hooks            000000018002d1dc f   LIBCMT:hooks.obj
 0001:0002c1fc       vsnprintf                  000000018002d1fc f   LIBCMT:vsnprint.obj
 0001:0002c1fc       _vsnprintf                 000000018002d1fc f   LIBCMT:vsnprint.obj
 0001:0002c214       _vsnprintf_l               000000018002d214 f   LIBCMT:vsnprint.obj
 0001:0002c2e0       __initmbctable             000000018002d2e0 f   LIBCMT:mbctype.obj
 0001:0002c5fc       __updatetmbcinfo           000000018002d5fc f   LIBCMT:mbctype.obj
 0001:0002c6b8       _setmbcp                   000000018002d6b8 f   LIBCMT:mbctype.obj
 0001:0002c8fc       _setmbcp_nolock            000000018002d8fc f   LIBCMT:mbctype.obj
 0001:0002cbac       _locterm                   000000018002dbac f   LIBCMT:wsetloca.obj
 0001:0002cbf4       __copy_locale_name         000000018002dbf4 f   LIBCMT:wsetloca.obj
 0001:0002cc78       __lc_lctowcs               000000018002dc78 f   LIBCMT:wsetloca.obj
 0001:0002cd1c       __lc_wcstolc               000000018002dd1c f   LIBCMT:wsetloca.obj
 0001:0002cf90       _expandlocale              000000018002df90 f   LIBCMT:wsetloca.obj
 0001:0002d364       _wcscats                   000000018002e364 f   LIBCMT:wsetloca.obj
 0001:0002d3cc       _wsetlocale                000000018002e3cc f   LIBCMT:wsetloca.obj
 0001:0002dcb8       _XcptFilter                000000018002ecb8 f   LIBCMT:winxfltr.obj
 0001:0002de84       __CppXcptFilter            000000018002ee84 f   LIBCMT:winxfltr.obj
 0001:0002de98       _ioinit                    000000018002ee98 f   LIBCMT:ioinit.obj
 0001:0002e1c8       _ioterm                    000000018002f1c8 f   LIBCMT:ioinit.obj
 0001:0002e23c       _setargv                   000000018002f23c f   LIBCMT:stdargv.obj
 0001:0002e4f8       _setenvp                   000000018002f4f8 f   LIBCMT:stdenvp.obj
 0001:0002e62c       __security_init_cookie     000000018002f62c f   LIBCMT:gs_support.obj
 0001:0002e6d8       DllMain                    000000018002f6d8 f   LIBCMT:dllmain.obj
 0001:0002e6e0       __crtGetEnvironmentStringsA 000000018002f6e0 f   LIBCMT:a_env.obj
 0001:0002e7d4       _RTC_Initialize            000000018002f7d4 f   LIBCMT:initsect.obj
 0001:0002e80c       _RTC_Terminate             000000018002f80c f   LIBCMT:initsect.obj
 0001:0002e9bc       __crtGetStringTypeA        000000018002f9bc f   LIBCMT:a_str.obj
 0001:0002ea38       __DestructExceptionObject  000000018002fa38 f   LIBCMT:frame.obj
 0001:0002eaa8       ??0bad_exception@std@@QEAA@AEBV01@@Z 000000018002faa8 f i LIBCMT:frame.obj
 0001:0002eacc       ??1bad_exception@std@@UEAA@XZ 000000018002facc f i LIBCMT:frame.obj
 0001:0002eadc       ??_Ebad_exception@std@@UEAAPEAXI@Z 000000018002fadc f i LIBCMT:frame.obj
 0001:0002eadc       ??_Gbad_exception@std@@UEAAPEAXI@Z 000000018002fadc f i LIBCMT:frame.obj
 0001:0002f3d0       __AdjustPointer            00000001800303d0 f   LIBCMT:frame.obj
 0001:0002f3f4       __BuildCatchObject         00000001800303f4 f   LIBCMT:frame.obj
 0001:0002f4ac       __BuildCatchObjectHelper   00000001800304ac f   LIBCMT:frame.obj
 0001:0002f6fc       __CxxCallCatchBlock        00000001800306fc f   LIBCMT:frame.obj
 0001:0002f900       __FrameUnwindFilter        0000000180030900 f   LIBCMT:frame.obj
 0001:0002f954       __FrameUnwindToState       0000000180030954 f   LIBCMT:frame.obj
 0001:0002fae8       __InternalCxxFrameHandler  0000000180030ae8 f   LIBCMT:frame.obj
 0001:0002fd0c       __TypeMatch                0000000180030d0c f   LIBCMT:frame.obj
 0001:0002fe3c       ?__GetCurrentState@@YAHPEA_KPEAU_xDISPATCHER_CONTEXT@@PEBU_s_FuncInfo@@@Z 0000000180030e3c f   LIBCMT:ehstate.obj
 0001:0002fe64       ?__GetUnwindTryBlock@@YAHPEA_KPEAU_xDISPATCHER_CONTEXT@@PEBU_s_FuncInfo@@@Z 0000000180030e64 f   LIBCMT:ehstate.obj
 0001:0002fe90       ?__SetState@@YAXPEA_KPEAU_xDISPATCHER_CONTEXT@@PEBU_s_FuncInfo@@H@Z 0000000180030e90 f   LIBCMT:ehstate.obj
 0001:0002fe9c       ?__SetUnwindTryBlock@@YAXPEA_KPEAU_xDISPATCHER_CONTEXT@@PEBU_s_FuncInfo@@H@Z 0000000180030e9c f   LIBCMT:ehstate.obj
 0001:0002fed8       ?__StateFromControlPc@@YAHPEBU_s_FuncInfo@@PEAU_xDISPATCHER_CONTEXT@@@Z 0000000180030ed8 f   LIBCMT:ehstate.obj
 0001:0002fee0       ?__StateFromIp@@YAHPEBU_s_FuncInfo@@PEAU_xDISPATCHER_CONTEXT@@_J@Z 0000000180030ee0 f   LIBCMT:ehstate.obj
 0001:0002ff6c       _cfltcvt                   0000000180030f6c f   LIBCMT:cvt.obj
 0001:0002ff90       _cfltcvt_l                 0000000180030f90 f   LIBCMT:cvt.obj
 0001:00030010       _cftoa_l                   0000000180031010 f   LIBCMT:cvt.obj
 0001:000305bc       _cftoe_l                   00000001800315bc f   LIBCMT:cvt.obj
 0001:00030818       _cftof_l                   0000000180031818 f   LIBCMT:cvt.obj
 0001:000308ec       _cftog_l                   00000001800318ec f   LIBCMT:cvt.obj
 0001:00030a20       _cropzeros                 0000000180031a20 f   LIBCMT:cvt.obj
 0001:00030a28       _cropzeros_l               0000000180031a28 f   LIBCMT:cvt.obj
 0001:00030ac0       _fassign                   0000000180031ac0 f   LIBCMT:cvt.obj
 0001:00030ac8       _fassign_l                 0000000180031ac8 f   LIBCMT:cvt.obj
 0001:00030b08       _forcdecpt                 0000000180031b08 f   LIBCMT:cvt.obj
 0001:00030b10       _forcdecpt_l               0000000180031b10 f   LIBCMT:cvt.obj
 0001:00030b90       _positive                  0000000180031b90 f   LIBCMT:cvt.obj
 0001:00030ba4       _initp_misc_cfltcvt_tab    0000000180031ba4 f   LIBCMT:cmiscdat.obj
 0001:00030be0       _mbstowcs_l_helper         0000000180031be0 f   LIBCMT:mbstowcs.obj
 0001:00030dbc       _mbstowcs_s_l              0000000180031dbc f   LIBCMT:mbstowcs.obj
 0001:00030eec       mbstowcs_s                 0000000180031eec f   LIBCMT:mbstowcs.obj
 0001:00030f0c       _wcstombs_l_helper         0000000180031f0c f   LIBCMT:wcstombs.obj
 0001:0003123c       _wcstombs_s_l              000000018003223c f   LIBCMT:wcstombs.obj
 0001:00031328       strcpy_s                   0000000180032328 f   LIBCMT:strcpy_s.obj
 0001:0003138c       _isctype_l                 000000018003238c f   LIBCMT:isctype.obj
 0001:00031468       calloc                     0000000180032468 f   LIBCMT:calloc.obj
 0001:000314c0       _alloca_probe              00000001800324c0 f   LIBCMT:chkstk.obj
 0001:000314c0       __chkstk                   00000001800324c0 f   LIBCMT:chkstk.obj
 0001:00031510       realloc                    0000000180032510 f   LIBCMT:realloc.obj
 0001:000315e4       _calloc_impl               00000001800325e4 f   LIBCMT:calloc_impl.obj
 0001:00031680       _wcsicmp                   0000000180032680 f   LIBCMT:wcsicmp.obj
 0001:00031704       _wcsicmp_l                 0000000180032704 f   LIBCMT:wcsicmp.obj
 0001:000317f4       _isleadbyte_l              00000001800327f4 f i LIBCMT:_wctype.obj
 0001:00031838       isleadbyte                 0000000180032838 f i LIBCMT:_wctype.obj
 0001:00031880       wcsnlen                    0000000180032880 f   LIBCMT:wcslen_s.obj
 0001:000318a0       _FindPESection             00000001800328a0 f   LIBCMT:pesect.obj
 0001:000318f0       _IsNonwritableInCurrentImage 00000001800328f0 f   LIBCMT:pesect.obj
 0001:00031940       _ValidateImageBase         0000000180032940 f   LIBCMT:pesect.obj
 0001:00031970       _initp_misc_rand_s         0000000180032970 f   LIBCMT:rand_s.obj
 0001:00031978       _ftbuf                     0000000180032978 f   LIBCMT:_sftbuf.obj
 0001:000319b0       _stbuf                     00000001800329b0 f   LIBCMT:_sftbuf.obj
 0001:00031a80       _fileno                    0000000180032a80 f   LIBCMT:fileno.obj
 0001:00031aa8       _isatty                    0000000180032aa8 f   LIBCMT:isatty.obj
 0001:00031b08       _write                     0000000180032b08 f   LIBCMT:write.obj
 0001:00031bec       _write_nolock              0000000180032bec f   LIBCMT:write.obj
 0001:000323e0       _lseeki64                  00000001800333e0 f   LIBCMT:lseeki64.obj
 0001:000324c8       _lseeki64_nolock           00000001800334c8 f   LIBCMT:lseeki64.obj
 0001:0003255c       _getbuf                    000000018003355c f   LIBCMT:_getbuf.obj
 0001:000325b0       _output_s_l                00000001800335b0 f   LIBCMT:outputs.obj
 0001:000330c0       _get_printf_count_output   00000001800340c0 f   LIBCMT:printf.obj
 0001:000330d8       _wctomb_s_l                00000001800340d8 f   LIBCMT:wctomb.obj
 0001:00033264       wctomb_s                   0000000180034264 f   LIBCMT:wctomb.obj
 0001:00033278       wcsncpy_s                  0000000180034278 f   LIBCMT:wcsncpy_s.obj
 0001:00033344       __free_lconv_mon           0000000180034344 f   LIBCMT:initmon.obj
 0001:00033450       __init_monetary            0000000180034450 f   LIBCMT:initmon.obj
 0001:00033950       __free_lconv_num           0000000180034950 f   LIBCMT:initnum.obj
 0001:000339bc       __init_numeric             00000001800349bc f   LIBCMT:initnum.obj
 0001:00033c84       __free_lc_time             0000000180034c84 f   LIBCMT:inittime.obj
 0001:00034080       __init_time                0000000180035080 f   LIBCMT:inittime.obj
 0001:00034c9c       _fcloseall                 0000000180035c9c f   LIBCMT:closeall.obj
 0001:00034d44       _commit                    0000000180035d44 f   LIBCMT:commit.obj
 0001:00034e1c       _freebuf                   0000000180035e1c f   LIBCMT:_freebuf.obj
 0001:00034e54       _woutput_l                 0000000180035e54 f   LIBCMT:woutput.obj
 0001:00035a30       _local_unwind              0000000180036a30 f   LIBCMT:jmpuwind.obj
 0001:00035a60       _NLG_Notify                0000000180036a60 f   LIBCMT:jmpuwind.obj
 0001:00035a80       __NLG_Dispatch2            0000000180036a80 f   LIBCMT:jmpuwind.obj
 0001:00035a90       __NLG_Return2              0000000180036a90 f   LIBCMT:jmpuwind.obj
 0001:00035a94       strncpy_s                  0000000180036a94 f   LIBCMT:strncpy_s.obj
 0001:00035cbc       __crtGetLocaleInfoA        0000000180036cbc f   LIBCMT:a_loc.obj
 0001:00035d40       _get_fpsr                  0000000180036d40 f   LIBCMT:fpsr.obj
 0001:00035d50       _set_fpsr                  0000000180036d50 f   LIBCMT:fpsr.obj
 0001:00035d5a       _fclrf                     0000000180036d5a f   LIBCMT:fpsr.obj
 0001:00035d6e       _frnd                      0000000180036d6e f   LIBCMT:fpsr.obj
 0001:00035d90       wcscmp                     0000000180036d90 f   LIBCMT:wcscmp.obj
 0001:00035dcc       wcscspn                    0000000180036dcc f   LIBCMT:wcscspn.obj
 0001:00035e0c       wcsncmp                    0000000180036e0c f   LIBCMT:wcsncmp.obj
 0001:00035e38       wcspbrk                    0000000180036e38 f   LIBCMT:wcspbrk.obj
 0001:00036530       __get_qualified_locale     0000000180037530 f   LIBCMT:getqloc.obj
 0001:00036f60       __get_qualified_locale_downlevel 0000000180037f60 f   LIBCMT:getqloc_downlevel.obj
 0001:000371f8       ?_ValidateRead@@YAHPEBXI@Z 00000001800381f8 f   LIBCMT:validate.obj
 0001:000371f8       ?_ValidateWrite@@YAHPEAXI@Z 00000001800381f8 f   LIBCMT:validate.obj
 0001:000371f8       ?_ValidateExecute@@YAHP6A_JXZ@Z 00000001800381f8 f   LIBCMT:validate.obj
 0001:00037220       _CallSettingFrame          0000000180038220 f   LIBCMT:handlers.obj
 0001:00037260       _GetNextInstrOffset        0000000180038260 f   LIBCMT:handlers.obj
 0001:00037268       strrchr                    0000000180038268 f   LIBCMT:strrchr.obj
 0001:000373ac       _fptostr                   00000001800383ac f   LIBCMT:_fptostr.obj
 0001:00037478       __crt_atoflt_l             0000000180038478 f   LIBCMT:atodbl.obj
 0001:00037548       _atodbl_l                  0000000180038548 f   LIBCMT:atodbl.obj
 0001:00037610       _atoflt_l                  0000000180038610 f   LIBCMT:atodbl.obj
 0001:00037618       __dtold                    0000000180038618 f   LIBCMT:cfout.obj
 0001:000376e8       _fltout2                   00000001800386e8 f   LIBCMT:cfout.obj
 0001:000377a0       _fptrap                    00000001800387a0 f   LIBCMT:crt0fp.obj
 0001:000377ac       _towlower_l                00000001800387ac f   LIBCMT:towlower.obj
 0001:00037878       iswctype                   0000000180038878 f   LIBCMT:iswctype.obj
 0001:000378e0       __lock_fhandle             00000001800388e0 f   LIBCMT:osfinfo.obj
 0001:00037978       _free_osfhnd               0000000180038978 f   LIBCMT:osfinfo.obj
 0001:00037a24       _get_osfhandle             0000000180038a24 f   LIBCMT:osfinfo.obj
 0001:00037a98       _unlock_fhandle            0000000180038a98 f   LIBCMT:osfinfo.obj
 0001:00037ac4       _mbtowc_l                  0000000180038ac4 f   LIBCMT:mbtowc.obj
 0001:00037c18       mbtowc                     0000000180038c18 f   LIBCMT:mbtowc.obj
 0001:00037c20       _putwch_nolock             0000000180038c20 f   LIBCMT:putwch.obj
 0001:00037c7c       _fclose_nolock             0000000180038c7c f   LIBCMT:fclose.obj
 0001:00037cf8       fclose                     0000000180038cf8 f   LIBCMT:fclose.obj
 0001:00037d60       _fputwc_nolock             0000000180038d60 f   LIBCMT:fputwc.obj
 0001:0003813c       wcstol                     000000018003913c f   LIBCMT:wcstol.obj
 0001:00038144       _wtol                      0000000180039144 f   LIBCMT:wtox.obj
 0001:00038150       wcschr                     0000000180039150 f   LIBCMT:wcschr.obj
 0001:000381dc       _wcsnicmp                  00000001800391dc f   LIBCMT:wcsnicmp.obj
 0001:00038274       _wcsnicmp_l                0000000180039274 f   LIBCMT:wcsnicmp.obj
 0001:0003838c       _ld12tod                   000000018003938c f   LIBCMT:intrncvt.obj
 0001:00038944       _ld12tof                   0000000180039944 f   LIBCMT:intrncvt.obj
 0001:00038efc       __strgtold12_l             0000000180039efc f   LIBCMT:strgtold.obj
 0001:00039760       $I10_OUTPUT                000000018003a760 f   LIBCMT:x10fout.obj
 0001:0003a238       __termconout               000000018003b238 f   LIBCMT:initcon.obj
 0001:0003a258       __initconout               000000018003b258 f   LIBCMT:initcon.obj
 0001:0003a294       _close                     000000018003b294 f   LIBCMT:close.obj
 0001:0003a358       _close_nolock              000000018003b358 f   LIBCMT:close.obj
 0001:0003a414       _flswbuf                   000000018003b414 f   LIBCMT:_flswbuf.obj
 0001:0003a5a4       _wchartodigit              000000018003b5a4 f   LIBCMT:wchtodig.obj
 0001:0003a73c       __mtold12                  000000018003b73c f   LIBCMT:mantold.obj
 0001:0003a960       IsProcessorFeaturePresent  000000018003b960 f   kernel32:KERNEL32.dll
 0001:0003a966       RtlUnwindEx                000000018003b966 f   kernel32:KERNEL32.dll
 0001:0003a96c       __delayLoadHelper2         000000018003b96c f   DelayImp:delayhlp.obj
 0002:00000000       __imp_GetModuleHandleA     000000018003f000     kernel32:KERNEL32.dll
 0002:00000008       __imp_CloseHandle          000000018003f008     kernel32:KERNEL32.dll
 0002:00000010       __imp_CreateFileW          000000018003f010     kernel32:KERNEL32.dll
 0002:00000018       __imp_SetStdHandle         000000018003f018     kernel32:KERNEL32.dll
 0002:00000020       __imp_FlushFileBuffers     000000018003f020     kernel32:KERNEL32.dll
 0002:00000028       __imp_SetFilePointerEx     000000018003f028     kernel32:KERNEL32.dll
 0002:00000030       __imp_GetConsoleMode       000000018003f030     kernel32:KERNEL32.dll
 0002:00000038       __imp_GetConsoleCP         000000018003f038     kernel32:KERNEL32.dll
 0002:00000040       __imp_FreeLibrary          000000018003f040     kernel32:KERNEL32.dll
 0002:00000048       __imp_HeapReAlloc          000000018003f048     kernel32:KERNEL32.dll
 0002:00000050       __imp_FreeEnvironmentStringsW 000000018003f050     kernel32:KERNEL32.dll
 0002:00000058       __imp_GetEnvironmentStringsW 000000018003f058     kernel32:KERNEL32.dll
 0002:00000060       __imp_GetSystemTimeAsFileTime 000000018003f060     kernel32:KERNEL32.dll
 0002:00000068       __imp_GetCurrentProcessId  000000018003f068     kernel32:KERNEL32.dll
 0002:00000070       __imp_QueryPerformanceCounter 000000018003f070     kernel32:KERNEL32.dll
 0002:00000078       __imp_GetModuleFileNameA   000000018003f078     kernel32:KERNEL32.dll
 0002:00000080       __imp_GetOEMCP             000000018003f080     kernel32:KERNEL32.dll
 0002:00000088       __imp_GetACP               000000018003f088     kernel32:KERNEL32.dll
 0002:00000090       __imp_IsValidCodePage      000000018003f090     kernel32:KERNEL32.dll
 0002:00000098       __imp_HeapSize             000000018003f098     kernel32:KERNEL32.dll
 0002:000000a0       __imp_LoadLibraryExW       000000018003f0a0     kernel32:KERNEL32.dll
 0002:000000a8       __imp_OutputDebugStringW   000000018003f0a8     kernel32:KERNEL32.dll
 0002:000000b0       __imp_WriteFile            000000018003f0b0     kernel32:KERNEL32.dll
 0002:000000b8       __imp_GetProcessHeap       000000018003f0b8     kernel32:KERNEL32.dll
 0002:000000c0       __imp_ExitProcess          000000018003f0c0     kernel32:KERNEL32.dll
 0002:000000c8       __imp_EnumSystemLocalesW   000000018003f0c8     kernel32:KERNEL32.dll
 0002:000000d0       __imp_GetUserDefaultLCID   000000018003f0d0     kernel32:KERNEL32.dll
 0002:000000d8       __imp_IsValidLocale        000000018003f0d8     kernel32:KERNEL32.dll
 0002:000000e0       __imp_GetLocaleInfoW       000000018003f0e0     kernel32:KERNEL32.dll
 0002:000000e8       __imp_LCMapStringW         000000018003f0e8     kernel32:KERNEL32.dll
 0002:000000f0       __imp_WideCharToMultiByte  000000018003f0f0     kernel32:KERNEL32.dll
 0002:000000f8       __imp_EncodePointer        000000018003f0f8     kernel32:KERNEL32.dll
 0002:00000100       __imp_DecodePointer        000000018003f100     kernel32:KERNEL32.dll
 0002:00000108       __imp_EnterCriticalSection 000000018003f108     kernel32:KERNEL32.dll
 0002:00000110       __imp_LeaveCriticalSection 000000018003f110     kernel32:KERNEL32.dll
 0002:00000118       __imp_DeleteCriticalSection 000000018003f118     kernel32:KERNEL32.dll
 0002:00000120       __imp_MultiByteToWideChar  000000018003f120     kernel32:KERNEL32.dll
 0002:00000128       __imp_GetStringTypeW       000000018003f128     kernel32:KERNEL32.dll
 0002:00000130       __imp_IsProcessorFeaturePresent 000000018003f130     kernel32:KERNEL32.dll
 0002:00000138       __imp_IsDebuggerPresent    000000018003f138     kernel32:KERNEL32.dll
 0002:00000140       __imp_GetLastError         000000018003f140     kernel32:KERNEL32.dll
 0002:00000148       __imp_HeapFree             000000018003f148     kernel32:KERNEL32.dll
 0002:00000150       __imp_HeapAlloc            000000018003f150     kernel32:KERNEL32.dll
 0002:00000158       __imp_GetStdHandle         000000018003f158     kernel32:KERNEL32.dll
 0002:00000160       __imp_GetFileType          000000018003f160     kernel32:KERNEL32.dll
 0002:00000168       __imp_GetModuleFileNameW   000000018003f168     kernel32:KERNEL32.dll
 0002:00000170       __imp_GetModuleHandleExW   000000018003f170     kernel32:KERNEL32.dll
 0002:00000178       __imp_WriteConsoleW        000000018003f178     kernel32:KERNEL32.dll
 0002:00000180       __imp_GetCommandLineA      000000018003f180     kernel32:KERNEL32.dll
 0002:00000188       __imp_GetCurrentThreadId   000000018003f188     kernel32:KERNEL32.dll
 0002:00000190       __imp_GetCPInfo            000000018003f190     kernel32:KERNEL32.dll
 0002:00000198       __imp_RtlPcToFileHeader    000000018003f198     kernel32:KERNEL32.dll
 0002:000001a0       __imp_RaiseException       000000018003f1a0     kernel32:KERNEL32.dll
 0002:000001a8       __imp_RtlLookupFunctionEntry 000000018003f1a8     kernel32:KERNEL32.dll
 0002:000001b0       __imp_RtlUnwindEx          000000018003f1b0     kernel32:KERNEL32.dll
 0002:000001b8       __imp_RtlCaptureContext    000000018003f1b8     kernel32:KERNEL32.dll
 0002:000001c0       __imp_RtlVirtualUnwind     000000018003f1c0     kernel32:KERNEL32.dll
 0002:000001c8       __imp_UnhandledExceptionFilter 000000018003f1c8     kernel32:KERNEL32.dll
 0002:000001d0       __imp_SetUnhandledExceptionFilter 000000018003f1d0     kernel32:KERNEL32.dll
 0002:000001d8       __imp_SetLastError         000000018003f1d8     kernel32:KERNEL32.dll
 0002:000001e0       __imp_InitializeCriticalSectionAndSpinCount 000000018003f1e0     kernel32:KERNEL32.dll
 0002:000001e8       __imp_Sleep                000000018003f1e8     kernel32:KERNEL32.dll
 0002:000001f0       __imp_GetCurrentProcess    000000018003f1f0     kernel32:KERNEL32.dll
 0002:000001f8       __imp_TerminateProcess     000000018003f1f8     kernel32:KERNEL32.dll
 0002:00000200       __imp_TlsAlloc             000000018003f200     kernel32:KERNEL32.dll
 0002:00000208       __imp_TlsGetValue          000000018003f208     kernel32:KERNEL32.dll
 0002:00000210       __imp_TlsSetValue          000000018003f210     kernel32:KERNEL32.dll
 0002:00000218       __imp_TlsFree              000000018003f218     kernel32:KERNEL32.dll
 0002:00000220       __imp_GetStartupInfoW      000000018003f220     kernel32:KERNEL32.dll
 0002:00000228       __imp_GetModuleHandleW     000000018003f228     kernel32:KERNEL32.dll
 0002:00000230       __imp_GetProcAddress       000000018003f230     kernel32:KERNEL32.dll
 0002:00000238       __imp_LoadLibraryExA       000000018003f238     kernel32:KERNEL32.dll
 0002:00000240       \177KERNEL32_NULL_THUNK_DATA 000000018003f240     kernel32:KERNEL32.dll
 0002:00000248       __imp_OCIClientVersion     000000018003f248     oci:OCI.dll
 0002:00000250       __imp_OCILobWrite2         000000018003f250     oci:OCI.dll
 0002:00000258       __imp_OCILobRead2          000000018003f258     oci:OCI.dll
 0002:00000260       __imp_OCILobGetLength2     000000018003f260     oci:OCI.dll
 0002:00000268       __imp_OCILobGetChunkSize   000000018003f268     oci:OCI.dll
 0002:00000270       __imp_OCIErrorGet          000000018003f270     oci:OCI.dll
 0002:00000278       __imp_OCIStmtExecute       000000018003f278     oci:OCI.dll
 0002:00000280       __imp_OCIStmtFetch2        000000018003f280     oci:OCI.dll
 0002:00000288       __imp_OCIStmtRelease       000000018003f288     oci:OCI.dll
 0002:00000290       __imp_OCIStmtPrepare2      000000018003f290     oci:OCI.dll
 0002:00000298       __imp_OCIParamGet          000000018003f298     oci:OCI.dll
 0002:000002a0       __imp_OCIDefineByPos       000000018003f2a0     oci:OCI.dll
 0002:000002a8       __imp_OCIBindByName        000000018003f2a8     oci:OCI.dll
 0002:000002b0       __imp_OCIBindByPos         000000018003f2b0     oci:OCI.dll
 0002:000002b8       __imp_OCIBindDynamic       000000018003f2b8     oci:OCI.dll
 0002:000002c0       __imp_OCISessionPoolCreate 000000018003f2c0     oci:OCI.dll
 0002:000002c8       __imp_OCISessionPoolDestroy 000000018003f2c8     oci:OCI.dll
 0002:000002d0       __imp_OCIDateTimeConstruct 000000018003f2d0     oci:OCI.dll
 0002:000002d8       __imp_OCIDateTimeIntervalAdd 000000018003f2d8     oci:OCI.dll
 0002:000002e0       __imp_OCIIntervalSetDaySecond 000000018003f2e0     oci:OCI.dll
 0002:000002e8       __imp_OCIDateTimeSubtract  000000018003f2e8     oci:OCI.dll
 0002:000002f0       __imp_OCIIntervalGetDaySecond 000000018003f2f0     oci:OCI.dll
 0002:000002f8       __imp_OCISessionRelease    000000018003f2f8     oci:OCI.dll
 0002:00000300       __imp_OCITransCommit       000000018003f300     oci:OCI.dll
 0002:00000308       __imp_OCIAttrGet           000000018003f308     oci:OCI.dll
 0002:00000310       __imp_OCIBreak             000000018003f310     oci:OCI.dll
 0002:00000318       __imp_OCISessionGet        000000018003f318     oci:OCI.dll
 0002:00000320       __imp_OCITransRollback     000000018003f320     oci:OCI.dll
 0002:00000328       __imp_OCIAttrSet           000000018003f328     oci:OCI.dll
 0002:00000330       __imp_OCIServerRelease     000000018003f330     oci:OCI.dll
 0002:00000338       __imp_OCIEnvNlsCreate      000000018003f338     oci:OCI.dll
 0002:00000340       __imp_OCIHandleAlloc       000000018003f340     oci:OCI.dll
 0002:00000348       __imp_OCIArrayDescriptorAlloc 000000018003f348     oci:OCI.dll
 0002:00000350       __imp_OCIDescriptorAlloc   000000018003f350     oci:OCI.dll
 0002:00000358       __imp_OCIArrayDescriptorFree 000000018003f358     oci:OCI.dll
 0002:00000360       __imp_OCIDescriptorFree    000000018003f360     oci:OCI.dll
 0002:00000368       __imp_OCIHandleFree        000000018003f368     oci:OCI.dll
 0002:00000370       \177OCI_NULL_THUNK_DATA    000000018003f370     oci:OCI.dll
 0002:00000378       __xc_a                     000000018003f378     LIBCMT:crt0init.obj
 0002:000003a8       _register_oracledb_        000000018003f3a8     njsOracle.obj
 0002:000003d8       __xc_z                     000000018003f3d8     LIBCMT:crt0init.obj
 0002:000003e0       __xi_a                     000000018003f3e0     LIBCMT:crt0init.obj
 0002:00000408       __xi_z                     000000018003f408     LIBCMT:crt0init.obj
 0002:00000410       __xp_a                     000000018003f410     LIBCMT:crt0init.obj
 0002:00000430       __xp_z                     000000018003f430     LIBCMT:crt0init.obj
 0002:00000438       __xt_a                     000000018003f438     LIBCMT:crt0init.obj
 0002:00000440       __xt_z                     000000018003f440     LIBCMT:crt0init.obj
 0002:00000490       __sz_node_exe              000000018003f490     node:node.exe
 0002:00000e40       ??_C@_0BC@CIJDGCDI@permission?5denied?$AA@ 000000018003fe40     libcpmt:syserror.obj
 0002:00000e58       ??_C@_0M@MIDIAGJP@file?5exists?$AA@ 000000018003fe58     libcpmt:syserror.obj
 0002:00000e68       ??_C@_0P@FDINDDOK@no?5such?5device?$AA@ 000000018003fe68     libcpmt:syserror.obj
 0002:00000e78       ??_C@_0BC@EJHOMAAK@filename?5too?5long?$AA@ 000000018003fe78     libcpmt:syserror.obj
 0002:00000e90       ??_C@_0BI@NGCEHDD@device?5or?5resource?5busy?$AA@ 000000018003fe90     libcpmt:syserror.obj
 0002:00000ea8       ??_C@_08GLNPIFBN@io?5error?$AA@ 000000018003fea8     libcpmt:syserror.obj
 0002:00000eb8       ??_C@_0BE@JIDOCPHM@directory?5not?5empty?$AA@ 000000018003feb8     libcpmt:syserror.obj
 0002:00000ed0       ??_C@_0BB@FCMFBGOM@invalid?5argument?$AA@ 000000018003fed0     libcpmt:syserror.obj
 0002:00000ee8       ??_C@_0BD@IJDJKDEA@no?5space?5on?5device?$AA@ 000000018003fee8     libcpmt:syserror.obj
 0002:00000f00       ??_C@_0BK@NDOCBPGE@no?5such?5file?5or?5directory?$AA@ 000000018003ff00     libcpmt:syserror.obj
 0002:00000f20       ??_C@_0BH@KEFGLDAF@function?5not?5supported?$AA@ 000000018003ff20     libcpmt:syserror.obj
 0002:00000f38       ??_C@_0BC@NJECKMKE@no?5lock?5available?$AA@ 000000018003ff38     libcpmt:syserror.obj
 0002:00000f50       ??_C@_0BC@ENOOLCNF@not?5enough?5memory?$AA@ 000000018003ff50     libcpmt:syserror.obj
 0002:00000f68       ??_C@_0BP@LKNGHENJ@resource?5unavailable?5try?5again?$AA@ 000000018003ff68     libcpmt:syserror.obj
 0002:00000f88       ??_C@_0BC@PPHBOELF@cross?5device?5link?$AA@ 000000018003ff88     libcpmt:syserror.obj
 0002:00000fa0       ??_C@_0BD@MOLBPMEA@operation?5canceled?$AA@ 000000018003ffa0     libcpmt:syserror.obj
 0002:00000fb8       ??_C@_0BE@GHAFMPAH@too?5many?5files?5open?$AA@ 000000018003ffb8     libcpmt:syserror.obj
 0002:00000fd0       ??_C@_0BC@FNODOBAE@permission_denied?$AA@ 000000018003ffd0     libcpmt:syserror.obj
 0002:00000fe8       ??_C@_0P@LNDJPBFK@address_in_use?$AA@ 000000018003ffe8     libcpmt:syserror.obj
 0002:00000ff8       ??_C@_0BG@IPMGOJF@address_not_available?$AA@ 000000018003fff8     libcpmt:syserror.obj
 0002:00001010       ??_C@_0BN@LCBDHODA@address_family_not_supported?$AA@ 0000000180040010     libcpmt:syserror.obj
 0002:00001030       ??_C@_0BP@FOJJHMCC@connection_already_in_progress?$AA@ 0000000180040030     libcpmt:syserror.obj
 0002:00001050       ??_C@_0BE@DLHHIBGN@bad_file_descriptor?$AA@ 0000000180040050     libcpmt:syserror.obj
 0002:00001068       ??_C@_0BD@OJMJDIGI@connection_aborted?$AA@ 0000000180040068     libcpmt:syserror.obj
 0002:00001080       ??_C@_0BD@NGKCIFEP@connection_refused?$AA@ 0000000180040080     libcpmt:syserror.obj
 0002:00001098       ??_C@_0BB@JOANDNCK@connection_reset?$AA@ 0000000180040098     libcpmt:syserror.obj
 0002:000010b0       ??_C@_0BN@JLJNLKLK@destination_address_required?$AA@ 00000001800400b0     libcpmt:syserror.obj
 0002:000010d0       ??_C@_0M@IJGMGFGP@bad_address?$AA@ 00000001800400d0     libcpmt:syserror.obj
 0002:000010e0       ??_C@_0BB@KKNHPPIN@host_unreachable?$AA@ 00000001800400e0     libcpmt:syserror.obj
 0002:000010f8       ??_C@_0BG@DJGBJIIK@operation_in_progress?$AA@ 00000001800400f8     libcpmt:syserror.obj
 0002:00001110       ??_C@_0M@EGEKIIMP@interrupted?$AA@ 0000000180040110     libcpmt:syserror.obj
 0002:00001120       ??_C@_0BB@FFIHMIPJ@invalid_argument?$AA@ 0000000180040120     libcpmt:syserror.obj
 0002:00001138       ??_C@_0BC@FIFLCHLO@already_connected?$AA@ 0000000180040138     libcpmt:syserror.obj
 0002:00001150       ??_C@_0BE@GJJJJDDA@too_many_files_open?$AA@ 0000000180040150     libcpmt:syserror.obj
 0002:00001168       ??_C@_0N@HPMLKHPL@message_size?$AA@ 0000000180040168     libcpmt:syserror.obj
 0002:00001178       ??_C@_0BC@LEEIKBAL@filename_too_long?$AA@ 0000000180040178     libcpmt:syserror.obj
 0002:00001190       ??_C@_0N@FCPALPJK@network_down?$AA@ 0000000180040190     libcpmt:syserror.obj
 0002:000011a0       ??_C@_0O@EHNDLHIG@network_reset?$AA@ 00000001800401a0     libcpmt:syserror.obj
 0002:000011b0       ??_C@_0BE@JFNJIDNF@network_unreachable?$AA@ 00000001800401b0     libcpmt:syserror.obj
 0002:000011c8       ??_C@_0BA@FDIJKJCL@no_buffer_space?$AA@ 00000001800401c8     libcpmt:syserror.obj
 0002:000011d8       ??_C@_0BD@JHIHCGKP@no_protocol_option?$AA@ 00000001800401d8     libcpmt:syserror.obj
 0002:000011f0       ??_C@_0O@GBCLHHD@not_connected?$AA@ 00000001800401f0     libcpmt:syserror.obj
 0002:00001200       ??_C@_0N@IMHKKLEM@not_a_socket?$AA@ 0000000180040200     libcpmt:syserror.obj
 0002:00001210       ??_C@_0BI@ICEIDKLJ@operation_not_supported?$AA@ 0000000180040210     libcpmt:syserror.obj
 0002:00001228       ??_C@_0BH@KAPBAIJF@protocol_not_supported?$AA@ 0000000180040228     libcpmt:syserror.obj
 0002:00001240       ??_C@_0BE@GAOJJFPC@wrong_protocol_type?$AA@ 0000000180040240     libcpmt:syserror.obj
 0002:00001258       ??_C@_09NCHNLHPG@timed_out?$AA@ 0000000180040258     libcpmt:syserror.obj
 0002:00001268       ??_C@_0BG@GDGHKFDH@operation_would_block?$AA@ 0000000180040268     libcpmt:syserror.obj
 0002:00001280       ??_C@_0BN@LKKBCCDB@address?5family?5not?5supported?$AA@ 0000000180040280     libcpmt:syserror.obj
 0002:000012a0       ??_C@_0P@LDMLAFHI@address?5in?5use?$AA@ 00000001800402a0     libcpmt:syserror.obj
 0002:000012b0       ??_C@_0BG@DHPCNBJB@address?5not?5available?$AA@ 00000001800402b0     libcpmt:syserror.obj
 0002:000012c8       ??_C@_0BC@DFIBIBIL@already?5connected?$AA@ 00000001800402c8     libcpmt:syserror.obj
 0002:000012e0       ??_C@_0BH@CAKOHOMI@argument?5list?5too?5long?$AA@ 00000001800402e0     libcpmt:syserror.obj
 0002:000012f8       ??_C@_0BH@CGIMPKIM@argument?5out?5of?5domain?$AA@ 00000001800402f8     libcpmt:syserror.obj
 0002:00001310       ??_C@_0M@KGHGGJGL@bad?5address?$AA@ 0000000180040310     libcpmt:syserror.obj
 0002:00001320       ??_C@_0BE@MPJPGCEO@bad?5file?5descriptor?$AA@ 0000000180040320     libcpmt:syserror.obj
 0002:00001338       ??_C@_0M@PMMIEFCP@bad?5message?$AA@ 0000000180040338     libcpmt:syserror.obj
 0002:00001348       ??_C@_0M@KPHOFDBE@broken?5pipe?$AA@ 0000000180040348     libcpmt:syserror.obj
 0002:00001358       ??_C@_0BD@MGNDDEGM@connection?5aborted?$AA@ 0000000180040358     libcpmt:syserror.obj
 0002:00001370       ??_C@_0BP@KAIHPOGN@connection?5already?5in?5progress?$AA@ 0000000180040370     libcpmt:syserror.obj
 0002:00001390       ??_C@_0BD@PJLIIJEL@connection?5refused?$AA@ 0000000180040390     libcpmt:syserror.obj
 0002:000013a8       ??_C@_0BB@IECNJNOI@connection?5reset?$AA@ 00000001800403a8     libcpmt:syserror.obj
 0002:000013c0       ??_C@_0BN@KDMIFEIP@destination?5address?5required?$AA@ 00000001800403c0     libcpmt:syserror.obj
 0002:000013e0       ??_C@_0BI@BNCLIGPB@executable?5format?5error?$AA@ 00000001800403e0     libcpmt:syserror.obj
 0002:000013f8       ??_C@_0P@DNAJLBJK@file?5too?5large?$AA@ 00000001800403f8     libcpmt:syserror.obj
 0002:00001408       ??_C@_0BB@DHFDFGDM@host?5unreachable?$AA@ 0000000180040408     libcpmt:syserror.obj
 0002:00001420       ??_C@_0BD@JPHBMONG@identifier?5removed?$AA@ 0000000180040420     libcpmt:syserror.obj
 0002:00001438       ??_C@_0BG@CDNPAGJK@illegal?5byte?5sequence?$AA@ 0000000180040438     libcpmt:syserror.obj
 0002:00001450       ??_C@_0CD@BNPLBMNA@inappropriate?5io?5control?5operati@ 0000000180040450     libcpmt:syserror.obj
 0002:00001478       ??_C@_0N@OHAFKDEK@invalid?5seek?$AA@ 0000000180040478     libcpmt:syserror.obj
 0002:00001488       ??_C@_0P@FLLDBIDK@is?5a?5directory?$AA@ 0000000180040488     libcpmt:syserror.obj
 0002:00001498       ??_C@_0N@IFLPBIOP@message?5size?$AA@ 0000000180040498     libcpmt:syserror.obj
 0002:000014a8       ??_C@_0N@KIIEAAIO@network?5down?$AA@ 00000001800404a8     libcpmt:syserror.obj
 0002:000014b8       ??_C@_0O@FNPDBHEE@network?5reset?$AA@ 00000001800404b8     libcpmt:syserror.obj
 0002:000014c8       ??_C@_0BE@IFNCKGE@network?5unreachable?$AA@ 00000001800404c8     libcpmt:syserror.obj
 0002:000014e0       ??_C@_0BA@PFFCAOFK@no?5buffer?5space?$AA@ 00000001800404e0     libcpmt:syserror.obj
 0002:000014f0       ??_C@_0BB@IEPBLJHK@no?5child?5process?$AA@ 00000001800404f0     libcpmt:syserror.obj
 0002:00001508       ??_C@_07PLECNNKG@no?5link?$AA@ 0000000180040508     libcpmt:syserror.obj
 0002:00001510       ??_C@_0BF@PBGGPKKE@no?5message?5available?$AA@ 0000000180040510     libcpmt:syserror.obj
 0002:00001528       ??_C@_0L@EDOLMPAK@no?5message?$AA@ 0000000180040528     libcpmt:syserror.obj
 0002:00001538       ??_C@_0BD@EAMBFIDF@no?5protocol?5option?$AA@ 0000000180040538     libcpmt:syserror.obj
 0002:00001550       ??_C@_0BE@MKFDAFMP@no?5stream?5resources?$AA@ 0000000180040550     libcpmt:syserror.obj
 0002:00001568       ??_C@_0BK@IMCPHCBI@no?5such?5device?5or?5address?$AA@ 0000000180040568     libcpmt:syserror.obj
 0002:00001588       ??_C@_0BA@ENLPPKBN@no?5such?5process?$AA@ 0000000180040588     libcpmt:syserror.obj
 0002:00001598       ??_C@_0BA@DOCPFFJG@not?5a?5directory?$AA@ 0000000180040598     libcpmt:syserror.obj
 0002:000015a8       ??_C@_0N@POEIPGGF@not?5a?5socket?$AA@ 00000001800405a8     libcpmt:syserror.obj
 0002:000015b8       ??_C@_0N@LGAPMMPI@not?5a?5stream?$AA@ 00000001800405b8     libcpmt:syserror.obj
 0002:000015c8       ??_C@_0O@GLMIBBEG@not?5connected?$AA@ 00000001800405c8     libcpmt:syserror.obj
 0002:000015d8       ??_C@_0O@NHEDABJP@not?5supported?$AA@ 00000001800405d8     libcpmt:syserror.obj
 0002:000015e8       ??_C@_0BG@KDKHOPCO@operation?5in?5progress?$AA@ 00000001800405e8     libcpmt:syserror.obj
 0002:00001600       ??_C@_0BI@OHIEJAAB@operation?5not?5permitted?$AA@ 0000000180040600     libcpmt:syserror.obj
 0002:00001618       ??_C@_0BI@LNEGIFLN@operation?5not?5supported?$AA@ 0000000180040618     libcpmt:syserror.obj
 0002:00001630       ??_C@_0BG@OEMDKMEE@operation?5would?5block?$AA@ 0000000180040630     libcpmt:syserror.obj
 0002:00001648       ??_C@_0L@BLPOFLNJ@owner?5dead?$AA@ 0000000180040648     libcpmt:syserror.obj
 0002:00001658       ??_C@_0P@FNPOCJBE@protocol?5error?$AA@ 0000000180040658     libcpmt:syserror.obj
 0002:00001668       ??_C@_0BH@JPPPLHJB@protocol?5not?5supported?$AA@ 0000000180040668     libcpmt:syserror.obj
 0002:00001680       ??_C@_0BG@EICBIHDP@read?5only?5file?5system?$AA@ 0000000180040680     libcpmt:syserror.obj
 0002:00001698       ??_C@_0BO@BJBOMOEJ@resource?5deadlock?5would?5occur?$AA@ 0000000180040698     libcpmt:syserror.obj
 0002:000016b8       ??_C@_0BE@GOIPJJHG@result?5out?5of?5range?$AA@ 00000001800406b8     libcpmt:syserror.obj
 0002:000016d0       ??_C@_0BG@MPLKFPAE@state?5not?5recoverable?$AA@ 00000001800406d0     libcpmt:syserror.obj
 0002:000016e8       ??_C@_0P@DIIFGFCG@stream?5timeout?$AA@ 00000001800406e8     libcpmt:syserror.obj
 0002:000016f8       ??_C@_0P@IPFDMIFL@text?5file?5busy?$AA@ 00000001800406f8     libcpmt:syserror.obj
 0002:00001708       ??_C@_09KJPPMAOI@timed?5out?$AA@ 0000000180040708     libcpmt:syserror.obj
 0002:00001718       ??_C@_0BO@HACHBEKI@too?5many?5files?5open?5in?5system?$AA@ 0000000180040718     libcpmt:syserror.obj
 0002:00001738       ??_C@_0P@HCOMKFCC@too?5many?5links?$AA@ 0000000180040738     libcpmt:syserror.obj
 0002:00001748       ??_C@_0BO@EFGOJEF@too?5many?5symbolic?5link?5levels?$AA@ 0000000180040748     libcpmt:syserror.obj
 0002:00001768       ??_C@_0BA@KGKGOOJA@value?5too?5large?$AA@ 0000000180040768     libcpmt:syserror.obj
 0002:00001778       ??_C@_0BE@MIEJDDNH@wrong?5protocol?5type?$AA@ 0000000180040778     libcpmt:syserror.obj
 0002:000017e8       ??_7_Facet_base@std@@6B@   00000001800407e8     libcpmt:locale0.obj
 0002:00001808       ??_7_Locimp@locale@std@@6B@ 0000000180040808     libcpmt:locale0.obj
 0002:00001820       ??_C@_01NBENCBCI@?$CK?$AA@ 0000000180040820     libcpmt:locale0.obj
 0002:00001824       ??_C@_01GFHCPBMG@C?$AA@    0000000180040824     libcpmt:locale0.obj
 0002:00001828       ?_BADOFF@std@@3_JB         0000000180040828     libcpmt:ios.obj
 0002:00001838       ??_7bad_alloc@std@@6B@     0000000180040838     libcpmt:xthrow.obj
 0002:00001848       ??_C@_0P@GHFPNOJB@bad?5allocation?$AA@ 0000000180040848     libcpmt:xthrow.obj
 0002:00001860       ??_7logic_error@std@@6B@   0000000180040860     libcpmt:xthrow.obj
 0002:00001878       ??_7length_error@std@@6B@  0000000180040878     libcpmt:xthrow.obj
 0002:00001890       ??_7out_of_range@std@@6B@  0000000180040890     libcpmt:xthrow.obj
 0002:000018a8       ??_7runtime_error@std@@6B@ 00000001800408a8     libcpmt:xthrow.obj
 0002:000018c0       ??_7?$ctype@D@std@@6B@     00000001800408c0     libcpmt:locale.obj
 0002:00001920       ??_7?$num_put@DV?$ostreambuf_iterator@DU?$char_traits@D@std@@@std@@@std@@6B@ 0000000180040920     libcpmt:locale.obj
 0002:00001980       ??_7?$numpunct@D@std@@6B@  0000000180040980     libcpmt:locale.obj
 0002:000019c0       ??_C@_11LOCGONAA@?$AA?$AA@ 00000001800409c0     libcpmt:wlocale.obj
 0002:00001aa8       __real@0000000000000000    0000000180040aa8     libcpmt:xprec.obj
 0002:00001b50       ??_C@_17LGKOMLJ@?$AA?4?$AA?4?$AA?4?$AA?$AA@ 0000000180040b50     LIBCMT:wassert.obj
 0002:00001b58       ??_C@_13LBAGMAIH@?$AA?6?$AA?$AA@ 0000000180040b58     LIBCMT:wassert.obj
 0002:00001b5c       ??_C@_15IABLJNFO@?$AA?6?$AA?6?$AA?$AA@ 0000000180040b5c     LIBCMT:wassert.obj
 0002:00001b68       ??_C@_1CE@OJBNHDMO@?$AAA?$AAs?$AAs?$AAe?$AAr?$AAt?$AAi?$AAo?$AAn?$AA?5?$AAf?$AAa?$AAi?$AAl?$AAe?$AAd?$AA?$CB?$AA?$AA@ 0000000180040b68     LIBCMT:wassert.obj
 0002:00001b90       ??_C@_1BE@PHKBBGE@?$AAP?$AAr?$AAo?$AAg?$AAr?$AAa?$AAm?$AA?3?$AA?5?$AA?$AA@ 0000000180040b90     LIBCMT:wassert.obj
 0002:00001ba8       ??_C@_1CO@EAEJAADC@?$AA?$DM?$AAp?$AAr?$AAo?$AAg?$AAr?$AAa?$AAm?$AA?5?$AAn?$AAa?$AAm?$AAe?$AA?5?$AAu?$AAn?$AAk?$AAn?$AAo?$AAw?$AAn?$AA?$DO?$AA?$AA@ 0000000180040ba8     LIBCMT:wassert.obj
 0002:00001bd8       ??_C@_1O@HEMHKNDC@?$AAF?$AAi?$AAl?$AAe?$AA?3?$AA?5?$AA?$AA@ 0000000180040bd8     LIBCMT:wassert.obj
 0002:00001be8       ??_C@_1O@KCAFKHJE@?$AAL?$AAi?$AAn?$AAe?$AA?3?$AA?5?$AA?$AA@ 0000000180040be8     LIBCMT:wassert.obj
 0002:00001bf8       ??_C@_1BK@PEDCIPMA@?$AAE?$AAx?$AAp?$AAr?$AAe?$AAs?$AAs?$AAi?$AAo?$AAn?$AA?3?$AA?5?$AA?$AA@ 0000000180040bf8     LIBCMT:wassert.obj
 0002:00001c20       ??_C@_1OA@EGMLFBHJ@?$AAF?$AAo?$AAr?$AA?5?$AAi?$AAn?$AAf?$AAo?$AAr?$AAm?$AAa?$AAt?$AAi?$AAo?$AAn?$AA?5?$AAo?$AAn?$AA?5?$AAh?$AAo?$AAw?$AA?5?$AAy?$AAo?$AAu?$AAr?$AA?5?$AAp?$AAr?$AAo?$AAg@ 0000000180040c20     LIBCMT:wassert.obj
 0002:00001d00       ??_C@_1HK@POCJMFGK@?$AA?$CI?$AAP?$AAr?$AAe?$AAs?$AAs?$AA?5?$AAR?$AAe?$AAt?$AAr?$AAy?$AA?5?$AAt?$AAo?$AA?5?$AAd?$AAe?$AAb?$AAu?$AAg?$AA?5?$AAt?$AAh?$AAe?$AA?5?$AAa?$AAp?$AAp?$AAl?$AAi?$AAc@ 0000000180040d00     LIBCMT:wassert.obj
 0002:00001d80       ??_C@_1EK@MBDPDCGA@?$AAM?$AAi?$AAc?$AAr?$AAo?$AAs?$AAo?$AAf?$AAt?$AA?5?$AAV?$AAi?$AAs?$AAu?$AAa?$AAl?$AA?5?$AAC?$AA?$CL?$AA?$CL?$AA?5?$AAR?$AAu?$AAn?$AAt?$AAi?$AAm?$AAe?$AA?5?$AAL?$AAi?$AAb@ 0000000180040d80     LIBCMT:wassert.obj
 0002:00001dcc       ??_C@_06MEIMCGCF@_hypot?$AA@ 0000000180040dcc     LIBCMT:hypot.obj
 0002:00001de0       ??_7type_info@@6B@         0000000180040de0     LIBCMT:typinfo.obj
 0002:00001df8       _pRawDllMain               0000000180040df8     LIBCMT:dllcrt0.obj
 0002:00001df8       _pDefaultRawDllMain        0000000180040df8     LIBCMT:dllcrt0.obj
 0002:00001ed8       _FPinit                    0000000180040ed8     LIBCMT:fpinit.obj
 0002:00001ee8       ??_7exception@std@@6B@     0000000180040ee8     LIBCMT:stdexcpt.obj
 0002:00001ef8       ??_C@_0BC@EOODALEL@Unknown?5exception?$AA@ 0000000180040ef8     LIBCMT:stdexcpt.obj
 0002:00001f10       __newctype                 0000000180040f10     LIBCMT:ctype.obj
 0002:00002210       _wctype                    0000000180041210     LIBCMT:ctype.obj
 0002:00002420       __newclmap                 0000000180041420     LIBCMT:ctype.obj
 0002:000025a0       __newcumap                 00000001800415a0     LIBCMT:ctype.obj
 0002:00002720       ??_C@_1BK@MGMFAEKH@?$AAk?$AAe?$AAr?$AAn?$AAe?$AAl?$AA3?$AA2?$AA?4?$AAd?$AAl?$AAl?$AA?$AA@ 0000000180041720     LIBCMT:winapisupp.obj
 0002:00002740       ??_C@_08KNHFBNJ@FlsAlloc?$AA@ 0000000180041740     LIBCMT:winapisupp.obj
 0002:00002750       ??_C@_07PEJMOBNF@FlsFree?$AA@ 0000000180041750     LIBCMT:winapisupp.obj
 0002:00002758       ??_C@_0M@GDNOONDI@FlsGetValue?$AA@ 0000000180041758     LIBCMT:winapisupp.obj
 0002:00002768       ??_C@_0M@JCPCPOEF@FlsSetValue?$AA@ 0000000180041768     LIBCMT:winapisupp.obj
 0002:00002778       ??_C@_0BM@HCFOFFN@InitializeCriticalSectionEx?$AA@ 0000000180041778     LIBCMT:winapisupp.obj
 0002:00002798       ??_C@_0P@DLHPPCNH@CreateEventExW?$AA@ 0000000180041798     LIBCMT:winapisupp.obj
 0002:000027a8       ??_C@_0BD@KIEEOEEH@CreateSemaphoreExW?$AA@ 00000001800417a8     LIBCMT:winapisupp.obj
 0002:000027c0       ??_C@_0BI@BKLFFAPO@SetThreadStackGuarantee?$AA@ 00000001800417c0     LIBCMT:winapisupp.obj
 0002:000027d8       ??_C@_0BG@OGFAJCKC@CreateThreadpoolTimer?$AA@ 00000001800417d8     LIBCMT:winapisupp.obj
 0002:000027f0       ??_C@_0BD@LPLEMMDI@SetThreadpoolTimer?$AA@ 00000001800417f0     LIBCMT:winapisupp.obj
 0002:00002808       ??_C@_0CA@FMNJENH@WaitForThreadpoolTimerCallbacks?$AA@ 0000000180041808     LIBCMT:winapisupp.obj
 0002:00002828       ??_C@_0BF@DCFCCNOC@CloseThreadpoolTimer?$AA@ 0000000180041828     LIBCMT:winapisupp.obj
 0002:00002840       ??_C@_0BF@FLABGKKM@CreateThreadpoolWait?$AA@ 0000000180041840     LIBCMT:winapisupp.obj
 0002:00002858       ??_C@_0BC@MGCOHNA@SetThreadpoolWait?$AA@ 0000000180041858     LIBCMT:winapisupp.obj
 0002:00002870       ??_C@_0BE@OCIOMIMP@CloseThreadpoolWait?$AA@ 0000000180041870     LIBCMT:winapisupp.obj
 0002:00002888       ??_C@_0BJ@LKGHFHBO@FlushProcessWriteBuffers?$AA@ 0000000180041888     LIBCMT:winapisupp.obj
 0002:000028a8       ??_C@_0BP@KALKKPMO@FreeLibraryWhenCallbackReturns?$AA@ 00000001800418a8     LIBCMT:winapisupp.obj
 0002:000028c8       ??_C@_0BK@DFNBACLA@GetCurrentProcessorNumber?$AA@ 00000001800418c8     LIBCMT:winapisupp.obj
 0002:000028e8       ??_C@_0BP@KHGALBC@GetLogicalProcessorInformation?$AA@ 00000001800418e8     LIBCMT:winapisupp.obj
 0002:00002908       ??_C@_0BE@FKKLLFLM@CreateSymbolicLinkW?$AA@ 0000000180041908     LIBCMT:winapisupp.obj
 0002:00002920       ??_C@_0BJ@OHNKDLIJ@SetDefaultDllDirectories?$AA@ 0000000180041920     LIBCMT:winapisupp.obj
 0002:00002940       ??_C@_0BE@LJANKFHF@EnumSystemLocalesEx?$AA@ 0000000180041940     LIBCMT:winapisupp.obj
 0002:00002958       ??_C@_0BA@IHGNDAEB@CompareStringEx?$AA@ 0000000180041958     LIBCMT:winapisupp.obj
 0002:00002968       ??_C@_0BA@EPCJIIPD@GetDateFormatEx?$AA@ 0000000180041968     LIBCMT:winapisupp.obj
 0002:00002978       ??_C@_0BA@ONOKGCMP@GetLocaleInfoEx?$AA@ 0000000180041978     LIBCMT:winapisupp.obj
 0002:00002988       ??_C@_0BA@CIJJKCJJ@GetTimeFormatEx?$AA@ 0000000180041988     LIBCMT:winapisupp.obj
 0002:00002998       ??_C@_0BJ@PBCCBIPI@GetUserDefaultLocaleName?$AA@ 0000000180041998     LIBCMT:winapisupp.obj
 0002:000029b8       ??_C@_0BC@CELBKLLA@IsValidLocaleName?$AA@ 00000001800419b8     LIBCMT:winapisupp.obj
 0002:000029d0       ??_C@_0O@KKBNKAPF@LCMapStringEx?$AA@ 00000001800419d0     LIBCMT:winapisupp.obj
 0002:000029e0       ??_C@_0BE@JOGNEJCI@GetCurrentPackageId?$AA@ 00000001800419e0     LIBCMT:winapisupp.obj
 0002:000029f8       ??_C@_0P@CDHHOHKP@GetTickCount64?$AA@ 00000001800419f8     LIBCMT:winapisupp.obj
 0002:00002a08       ??_C@_0BO@KPCLFDJJ@GetFileInformationByHandleExW?$AA@ 0000000180041a08     LIBCMT:winapisupp.obj
 0002:00002a28       ??_C@_0BM@MHIDLABK@SetFileInformationByHandleW?$AA@ 0000000180041a28     LIBCMT:winapisupp.obj
 0002:00002a50       LcidToLocaleNameTable      0000000180041a50     LIBCMT:winapinls.obj
 0002:00003890       LocaleNameToIndexTable     0000000180042890     LIBCMT:winapinls.obj
 0002:000046d0       ??_C@_15EMKDOKLE@?$AAa?$AAr?$AA?$AA@ 00000001800436d0     LIBCMT:winapinls.obj
 0002:000046d8       ??_C@_15KNPADPLH@?$AAb?$AAg?$AA?$AA@ 00000001800436d8     LIBCMT:winapinls.obj
 0002:000046e0       ??_C@_15EDMHLDMO@?$AAc?$AAa?$AA?$AA@ 00000001800436e0     LIBCMT:winapinls.obj
 0002:000046e8       ??_C@_1O@BPEAJADD@?$AAz?$AAh?$AA?9?$AAC?$AAH?$AAS?$AA?$AA@ 00000001800436e8     LIBCMT:winapinls.obj
 0002:000046f8       ??_C@_15LJNHCMNK@?$AAc?$AAs?$AA?$AA@ 00000001800436f8     LIBCMT:winapinls.obj
 0002:00004700       ??_C@_15FOMCIDHG@?$AAd?$AAa?$AA?$AA@ 0000000180043700     LIBCMT:winapinls.obj
 0002:00004708       ??_C@_15NBKABECB@?$AAd?$AAe?$AA?$AA@ 0000000180043708     LIBCMT:winapinls.obj
 0002:00004710       ??_C@_15GHPEIIAO@?$AAe?$AAl?$AA?$AA@ 0000000180043710     LIBCMT:winapinls.obj
 0002:00004718       ??_C@_15MNPNEAIF@?$AAe?$AAn?$AA?$AA@ 0000000180043718     LIBCMT:winapinls.obj
 0002:00004720       ??_C@_15GPIOMPMH@?$AAe?$AAs?$AA?$AA@ 0000000180043720     LIBCMT:winapinls.obj
 0002:00004728       ??_C@_15NGLOAKJC@?$AAf?$AAi?$AA?$AA@ 0000000180043728     LIBCMT:winapinls.obj
 0002:00004730       ??_C@_15FBKGNKAM@?$AAf?$AAr?$AA?$AA@ 0000000180043730     LIBCMT:winapinls.obj
 0002:00004738       ??_C@_15KGGCNEFK@?$AAh?$AAe?$AA?$AA@ 0000000180043738     LIBCMT:winapinls.obj
 0002:00004740       ??_C@_15PGHLIDMF@?$AAh?$AAu?$AA?$AA@ 0000000180043740     LIBCMT:winapinls.obj
 0002:00004748       ??_C@_15BIEMAPLM@?$AAi?$AAs?$AA?$AA@ 0000000180043748     LIBCMT:winapinls.obj
 0002:00004750       ??_C@_15IFJLDHAF@?$AAi?$AAt?$AA?$AA@ 0000000180043750     LIBCMT:winapinls.obj
 0002:00004758       ??_C@_15GEMIOCAG@?$AAj?$AAa?$AA?$AA@ 0000000180043758     LIBCMT:winapinls.obj
 0002:00004760       ??_C@_15EPELEGJA@?$AAk?$AAo?$AA?$AA@ 0000000180043760     LIBCMT:winapinls.obj
 0002:00004768       ??_C@_15NDDHIMN@?$AAn?$AAl?$AA?$AA@ 0000000180043768     LIBCMT:winapinls.obj
 0002:00004770       ??_C@_15BPIGNHCD@?$AAn?$AAo?$AA?$AA@ 0000000180043770     LIBCMT:winapinls.obj
 0002:00004778       ??_C@_15DEOPBLCG@?$AAp?$AAl?$AA?$AA@ 0000000180043778     LIBCMT:winapinls.obj
 0002:00004780       ??_C@_15KBECGEFG@?$AAp?$AAt?$AA?$AA@ 0000000180043780     LIBCMT:winapinls.obj
 0002:00004788       ??_C@_15GLJCBFMD@?$AAr?$AAo?$AA?$AA@ 0000000180043788     LIBCMT:winapinls.obj
 0002:00004790       ??_C@_15FEDGKCDI@?$AAr?$AAu?$AA?$AA@ 0000000180043790     LIBCMT:winapinls.obj
 0002:00004798       ??_C@_15GLKMLLHM@?$AAh?$AAr?$AA?$AA@ 0000000180043798     LIBCMT:winapinls.obj
 0002:000047a0       ??_C@_15CPKMFBDB@?$AAs?$AAk?$AA?$AA@ 00000001800437a0     LIBCMT:winapinls.obj
 0002:000047a8       ??_C@_15BAAIOGMK@?$AAs?$AAq?$AA?$AA@ 00000001800437a8     LIBCMT:winapinls.obj
 0002:000047b0       ??_C@_15INNPNOHD@?$AAs?$AAv?$AA?$AA@ 00000001800437b0     LIBCMT:winapinls.obj
 0002:000047b8       ??_C@_15CABMMOGH@?$AAt?$AAh?$AA?$AA@ 00000001800437b8     LIBCMT:winapinls.obj
 0002:000047c0       ??_C@_15BPLIHJJM@?$AAt?$AAr?$AA?$AA@ 00000001800437c0     LIBCMT:winapinls.obj
 0002:000047c8       ??_C@_15NEOEKKDJ@?$AAu?$AAr?$AA?$AA@ 00000001800437c8     LIBCMT:winapinls.obj
 0002:000047d0       ??_C@_15NFICGAJK@?$AAi?$AAd?$AA?$AA@ 00000001800437d0     LIBCMT:winapinls.obj
 0002:000047d8       ??_C@_15PJPFLCCM@?$AAu?$AAk?$AA?$AA@ 00000001800437d8     LIBCMT:winapinls.obj
 0002:000047e0       ??_C@_15HPJPHDM@?$AAb?$AAe?$AA?$AA@ 00000001800437e0     LIBCMT:winapinls.obj
 0002:000047e8       ??_C@_15LCHLGJII@?$AAs?$AAl?$AA?$AA@ 00000001800437e8     LIBCMT:winapinls.obj
 0002:000047f0       ??_C@_15PCFJPHHO@?$AAe?$AAt?$AA?$AA@ 00000001800437f0     LIBCMT:winapinls.obj
 0002:000047f8       ??_C@_15HPFPGODN@?$AAl?$AAv?$AA?$AA@ 00000001800437f8     LIBCMT:winapinls.obj
 0002:00004800       ??_C@_15NFFGKGLG@?$AAl?$AAt?$AA?$AA@ 0000000180043800     LIBCMT:winapinls.obj
 0002:00004808       ??_C@_15BDAKCCHN@?$AAf?$AAa?$AA?$AA@ 0000000180043808     LIBCMT:winapinls.obj
 0002:00004810       ??_C@_15NFGIAIAJ@?$AAv?$AAi?$AA?$AA@ 0000000180043810     LIBCMT:winapinls.obj
 0002:00004818       ??_C@_15LMKNDMHN@?$AAh?$AAy?$AA?$AA@ 0000000180043818     LIBCMT:winapinls.obj
 0002:00004820       ??_C@_15IJBHMCFL@?$AAa?$AAz?$AA?$AA@ 0000000180043820     LIBCMT:winapinls.obj
 0002:00004828       ??_C@_15EKOFJABL@?$AAe?$AAu?$AA?$AA@ 0000000180043828     LIBCMT:winapinls.obj
 0002:00004830       ??_C@_15BGHADCNK@?$AAm?$AAk?$AA?$AA@ 0000000180043830     LIBCMT:winapinls.obj
 0002:00004838       ??_C@_15JDNICKHM@?$AAa?$AAf?$AA?$AA@ 0000000180043838     LIBCMT:winapinls.obj
 0002:00004840       ??_C@_15KPJEDBKD@?$AAk?$AAa?$AA?$AA@ 0000000180043840     LIBCMT:winapinls.obj
 0002:00004848       ??_C@_15PDNFFFEO@?$AAf?$AAo?$AA?$AA@ 0000000180043848     LIBCMT:winapinls.obj
 0002:00004850       ??_C@_15OMLEGLOC@?$AAh?$AAi?$AA?$AA@ 0000000180043850     LIBCMT:winapinls.obj
 0002:00004858       ??_C@_15IDNNENKK@?$AAm?$AAs?$AA?$AA@ 0000000180043858     LIBCMT:winapinls.obj
 0002:00004860       ??_C@_15MACJNBMH@?$AAk?$AAk?$AA?$AA@ 0000000180043860     LIBCMT:winapinls.obj
 0002:00004868       ??_C@_15DKDJEOND@?$AAk?$AAy?$AA?$AA@ 0000000180043868     LIBCMT:winapinls.obj
 0002:00004870       ??_C@_15DFGDLJBG@?$AAs?$AAw?$AA?$AA@ 0000000180043870     LIBCMT:winapinls.obj
 0002:00004878       ??_C@_15BBFAICNG@?$AAu?$AAz?$AA?$AA@ 0000000180043878     LIBCMT:winapinls.obj
 0002:00004880       ??_C@_15DKNDCGEA@?$AAt?$AAt?$AA?$AA@ 0000000180043880     LIBCMT:winapinls.obj
 0002:00004888       ??_C@_15MGIFMDPL@?$AAp?$AAa?$AA?$AA@ 0000000180043888     LIBCMT:winapinls.obj
 0002:00004890       ??_C@_15HCNDBBA@?$AAg?$AAu?$AA?$AA@ 0000000180043890     LIBCMT:winapinls.obj
 0002:00004898       ??_C@_15FNBEIBON@?$AAt?$AAa?$AA?$AA@ 0000000180043898     LIBCMT:winapinls.obj
 0002:000048a0       ??_C@_15NCHGBGLK@?$AAt?$AAe?$AA?$AA@ 00000001800438a0     LIBCMT:winapinls.obj
 0002:000048a8       ??_C@_15PHPHCBPF@?$AAk?$AAn?$AA?$AA@ 00000001800438a8     LIBCMT:winapinls.obj
 0002:000048b0       ??_C@_15DLGBCKMP@?$AAm?$AAr?$AA?$AA@ 00000001800438b0     LIBCMT:winapinls.obj
 0002:000048b8       ??_C@_15EABBLBFF@?$AAs?$AAa?$AA?$AA@ 00000001800438b8     LIBCMT:winapinls.obj
 0002:000048c0       ??_C@_15CBKOMCOI@?$AAm?$AAn?$AA?$AA@ 00000001800438c0     LIBCMT:winapinls.obj
 0002:000048c8       ??_C@_15CKDMCJAF@?$AAg?$AAl?$AA?$AA@ 00000001800438c8     LIBCMT:winapinls.obj
 0002:000048d0       ??_C@_17CNJFBPG@?$AAk?$AAo?$AAk?$AA?$AA@ 00000001800438d0     LIBCMT:winapinls.obj
 0002:000048d8       ??_C@_17FFBJICPL@?$AAs?$AAy?$AAr?$AA?$AA@ 00000001800438d8     LIBCMT:winapinls.obj
 0002:000048e0       ??_C@_17KPNDCPAF@?$AAd?$AAi?$AAv?$AA?$AA@ 00000001800438e0     LIBCMT:winapinls.obj
 0002:000048e8       ??_C@_1M@OKAHONE@?$AAa?$AAr?$AA?9?$AAS?$AAA?$AA?$AA@ 00000001800438e8     LIBCMT:winapinls.obj
 0002:000048f8       ??_C@_1M@FFFIGIGK@?$AAb?$AAg?$AA?9?$AAB?$AAG?$AA?$AA@ 00000001800438f8     LIBCMT:winapinls.obj
 0002:00004908       ??_C@_1M@BJNKEDC@?$AAc?$AAa?$AA?9?$AAE?$AAS?$AA?$AA@ 0000000180043908     LIBCMT:winapinls.obj
 0002:00004918       ??_C@_1M@CLNBBOPM@?$AAz?$AAh?$AA?9?$AAT?$AAW?$AA?$AA@ 0000000180043918     LIBCMT:winapinls.obj
 0002:00004928       ??_C@_1M@IJJHFJHA@?$AAc?$AAs?$AA?9?$AAC?$AAZ?$AA?$AA@ 0000000180043928     LIBCMT:winapinls.obj
 0002:00004938       ??_C@_1M@CLPEOBGI@?$AAd?$AAa?$AA?9?$AAD?$AAK?$AA?$AA@ 0000000180043938     LIBCMT:winapinls.obj
 0002:00004948       ??_C@_1M@MCMADGCB@?$AAd?$AAe?$AA?9?$AAD?$AAE?$AA?$AA@ 0000000180043948     LIBCMT:winapinls.obj
 0002:00004958       ??_C@_1M@OOCKEMAM@?$AAe?$AAl?$AA?9?$AAG?$AAR?$AA?$AA@ 0000000180043958     LIBCMT:winapinls.obj
 0002:00004968       ??_C@_1M@BMHNFIME@?$AAe?$AAn?$AA?9?$AAU?$AAS?$AA?$AA@ 0000000180043968     LIBCMT:winapinls.obj
 0002:00004978       ??_C@_1M@DDNJFGID@?$AAf?$AAi?$AA?9?$AAF?$AAI?$AA?$AA@ 0000000180043978     LIBCMT:winapinls.obj
 0002:00004988       ??_C@_1M@GLIPPMAC@?$AAf?$AAr?$AA?9?$AAF?$AAR?$AA?$AA@ 0000000180043988     LIBCMT:winapinls.obj
 0002:00004998       ??_C@_1M@GFMCHPE@?$AAh?$AAe?$AA?9?$AAI?$AAL?$AA?$AA@ 0000000180043998     LIBCMT:winapinls.obj
 0002:000049a8       ??_C@_1M@MHLPGNKM@?$AAh?$AAu?$AA?9?$AAH?$AAU?$AA?$AA@ 00000001800439a8     LIBCMT:winapinls.obj
 0002:000049b8       ??_C@_1M@LPDDNNPN@?$AAi?$AAs?$AA?9?$AAI?$AAS?$AA?$AA@ 00000001800439b8     LIBCMT:winapinls.obj
 0002:000049c8       ??_C@_1M@MADIPODN@?$AAi?$AAt?$AA?9?$AAI?$AAT?$AA?$AA@ 00000001800439c8     LIBCMT:winapinls.obj
 0002:000049d8       ??_C@_1M@HPNHIDJI@?$AAj?$AAa?$AA?9?$AAJ?$AAP?$AA?$AA@ 00000001800439d8     LIBCMT:winapinls.obj
 0002:000049e8       ??_C@_1M@JLOOOEGK@?$AAk?$AAo?$AA?9?$AAK?$AAR?$AA?$AA@ 00000001800439e8     LIBCMT:winapinls.obj
 0002:000049f8       ??_C@_1M@IHBJJGG@?$AAn?$AAl?$AA?9?$AAN?$AAL?$AA?$AA@ 00000001800439f8     LIBCMT:winapinls.obj
 0002:00004a08       ??_C@_1M@EANAGDL@?$AAn?$AAb?$AA?9?$AAN?$AAO?$AA?$AA@ 0000000180043a08     LIBCMT:winapinls.obj
 0002:00004a18       ??_C@_1M@NEIEMEGP@?$AAp?$AAl?$AA?9?$AAP?$AAL?$AA?$AA@ 0000000180043a18     LIBCMT:winapinls.obj
 0002:00004a28       ??_C@_1M@BOCFIGEP@?$AAp?$AAt?$AA?9?$AAB?$AAR?$AA?$AA@ 0000000180043a28     LIBCMT:winapinls.obj
 0002:00004a38       ??_C@_1M@IMPFOPBG@?$AAr?$AAo?$AA?9?$AAR?$AAO?$AA?$AA@ 0000000180043a38     LIBCMT:winapinls.obj
 0002:00004a48       ??_C@_1M@IDNNEJMM@?$AAr?$AAu?$AA?9?$AAR?$AAU?$AA?$AA@ 0000000180043a48     LIBCMT:winapinls.obj
 0002:00004a58       ??_C@_1M@LILEEOGM@?$AAh?$AAr?$AA?9?$AAH?$AAR?$AA?$AA@ 0000000180043a58     LIBCMT:winapinls.obj
 0002:00004a68       ??_C@_1M@FKIFEHPB@?$AAs?$AAk?$AA?9?$AAS?$AAK?$AA?$AA@ 0000000180043a68     LIBCMT:winapinls.obj
 0002:00004a78       ??_C@_1M@LJMAMNPJ@?$AAs?$AAq?$AA?9?$AAA?$AAL?$AA?$AA@ 0000000180043a78     LIBCMT:winapinls.obj
 0002:00004a88       ??_C@_1M@GIAKDKJK@?$AAs?$AAv?$AA?9?$AAS?$AAE?$AA?$AA@ 0000000180043a88     LIBCMT:winapinls.obj
 0002:00004a98       ??_C@_1M@MKJKIKCL@?$AAt?$AAh?$AA?9?$AAT?$AAH?$AA?$AA@ 0000000180043a98     LIBCMT:winapinls.obj
 0002:00004aa8       ??_C@_1M@MFLCCMPB@?$AAt?$AAr?$AA?9?$AAT?$AAR?$AA?$AA@ 0000000180043aa8     LIBCMT:winapinls.obj
 0002:00004ab8       ??_C@_1M@OIJHDKJN@?$AAu?$AAr?$AA?9?$AAP?$AAK?$AA?$AA@ 0000000180043ab8     LIBCMT:winapinls.obj
 0002:00004ac8       ??_C@_1M@LHIPCIEK@?$AAi?$AAd?$AA?9?$AAI?$AAD?$AA?$AA@ 0000000180043ac8     LIBCMT:winapinls.obj
 0002:00004ad8       ??_C@_1M@MFMOBGI@?$AAu?$AAk?$AA?9?$AAU?$AAA?$AA?$AA@ 0000000180043ad8     LIBCMT:winapinls.obj
 0002:00004ae8       ??_C@_1M@OBGLJIPL@?$AAb?$AAe?$AA?9?$AAB?$AAY?$AA?$AA@ 0000000180043ae8     LIBCMT:winapinls.obj
 0002:00004af8       ??_C@_1M@BCFAJEAD@?$AAs?$AAl?$AA?9?$AAS?$AAI?$AA?$AA@ 0000000180043af8     LIBCMT:winapinls.obj
 0002:00004b08       ??_C@_1M@FKFFEDDN@?$AAe?$AAt?$AA?9?$AAE?$AAE?$AA?$AA@ 0000000180043b08     LIBCMT:winapinls.obj
 0002:00004b18       ??_C@_1M@KGKKAACI@?$AAl?$AAv?$AA?9?$AAL?$AAV?$AA?$AA@ 0000000180043b18     LIBCMT:winapinls.obj
 0002:00004b28       ??_C@_1M@IFGBIJO@?$AAl?$AAt?$AA?9?$AAL?$AAT?$AA?$AA@ 0000000180043b28     LIBCMT:winapinls.obj
 0002:00004b38       ??_C@_1M@FGEAHEDM@?$AAf?$AAa?$AA?9?$AAI?$AAR?$AA?$AA@ 0000000180043b38     LIBCMT:winapinls.obj
 0002:00004b48       ??_C@_1M@KBMAIBFN@?$AAv?$AAi?$AA?9?$AAV?$AAN?$AA?$AA@ 0000000180043b48     LIBCMT:winapinls.obj
 0002:00004b58       ??_C@_1M@GPCBKDJK@?$AAh?$AAy?$AA?9?$AAA?$AAM?$AA?$AA@ 0000000180043b58     LIBCMT:winapinls.obj
 0002:00004b68       ??_C@_1BG@BECMDDJB@?$AAa?$AAz?$AA?9?$AAA?$AAZ?$AA?9?$AAL?$AAa?$AAt?$AAn?$AA?$AA@ 0000000180043b68     LIBCMT:winapinls.obj
 0002:00004b80       ??_C@_1M@MAOFCAEA@?$AAe?$AAu?$AA?9?$AAE?$AAS?$AA?$AA@ 0000000180043b80     LIBCMT:winapinls.obj
 0002:00004b90       ??_C@_1M@IGHABKPI@?$AAm?$AAk?$AA?9?$AAM?$AAK?$AA?$AA@ 0000000180043b90     LIBCMT:winapinls.obj
 0002:00004ba0       ??_C@_1M@IAIGNEJG@?$AAt?$AAn?$AA?9?$AAZ?$AAA?$AA?$AA@ 0000000180043ba0     LIBCMT:winapinls.obj
 0002:00004bb0       ??_C@_1M@IIJCOJFA@?$AAx?$AAh?$AA?9?$AAZ?$AAA?$AA?$AA@ 0000000180043bb0     LIBCMT:winapinls.obj
 0002:00004bc0       ??_C@_1M@LGPJHNJH@?$AAz?$AAu?$AA?9?$AAZ?$AAA?$AA?$AA@ 0000000180043bc0     LIBCMT:winapinls.obj
 0002:00004bd0       ??_C@_1M@HOKAOIO@?$AAa?$AAf?$AA?9?$AAZ?$AAA?$AA?$AA@ 0000000180043bd0     LIBCMT:winapinls.obj
 0002:00004be0       ??_C@_1M@DPCLHLIE@?$AAk?$AAa?$AA?9?$AAG?$AAE?$AA?$AA@ 0000000180043be0     LIBCMT:winapinls.obj
 0002:00004bf0       ??_C@_1M@BLKMHJBI@?$AAf?$AAo?$AA?9?$AAF?$AAO?$AA?$AA@ 0000000180043bf0     LIBCMT:winapinls.obj
 0002:00004c00       ??_C@_1M@LGGJAPPB@?$AAh?$AAi?$AA?9?$AAI?$AAN?$AA?$AA@ 0000000180043c00     LIBCMT:winapinls.obj
 0002:00004c10       ??_C@_1M@FIKPIHFE@?$AAm?$AAt?$AA?9?$AAM?$AAT?$AA?$AA@ 0000000180043c10     LIBCMT:winapinls.obj
 0002:00004c20       ??_C@_1M@HEGGPBFA@?$AAs?$AAe?$AA?9?$AAN?$AAO?$AA?$AA@ 0000000180043c20     LIBCMT:winapinls.obj
 0002:00004c30       ??_C@_1M@EIBJEEPA@?$AAm?$AAs?$AA?9?$AAM?$AAY?$AA?$AA@ 0000000180043c30     LIBCMT:winapinls.obj
 0002:00004c40       ??_C@_1M@FHLBGMPP@?$AAk?$AAk?$AA?9?$AAK?$AAZ?$AA?$AA@ 0000000180043c40     LIBCMT:winapinls.obj
 0002:00004c50       ??_C@_1M@NGJJLCGI@?$AAk?$AAy?$AA?9?$AAK?$AAG?$AA?$AA@ 0000000180043c50     LIBCMT:winapinls.obj
 0002:00004c60       ??_C@_1M@GIENNBFC@?$AAs?$AAw?$AA?9?$AAK?$AAE?$AA?$AA@ 0000000180043c60     LIBCMT:winapinls.obj
 0002:00004c70       ??_C@_1BG@NDGMJIMJ@?$AAu?$AAz?$AA?9?$AAU?$AAZ?$AA?9?$AAL?$AAa?$AAt?$AAn?$AA?$AA@ 0000000180043c70     LIBCMT:winapinls.obj
 0002:00004c88       ??_C@_1M@IDCCIHBC@?$AAt?$AAt?$AA?9?$AAR?$AAU?$AA?$AA@ 0000000180043c88     LIBCMT:winapinls.obj
 0002:00004c98       ??_C@_1M@LOICPMOJ@?$AAb?$AAn?$AA?9?$AAI?$AAN?$AA?$AA@ 0000000180043c98     LIBCMT:winapinls.obj
 0002:00004ca8       ??_C@_1M@KPKKNEAH@?$AAp?$AAa?$AA?9?$AAI?$AAN?$AA?$AA@ 0000000180043ca8     LIBCMT:winapinls.obj
 0002:00004cb8       ??_C@_1M@PJGPPBOG@?$AAg?$AAu?$AA?9?$AAI?$AAN?$AA?$AA@ 0000000180043cb8     LIBCMT:winapinls.obj
 0002:00004cc8       ??_C@_1M@KMKMOPHI@?$AAt?$AAa?$AA?9?$AAI?$AAN?$AA?$AA@ 0000000180043cc8     LIBCMT:winapinls.obj
 0002:00004cd8       ??_C@_1M@KFEHEPAC@?$AAt?$AAe?$AA?9?$AAI?$AAN?$AA?$AA@ 0000000180043cd8     LIBCMT:winapinls.obj
 0002:00004ce8       ??_C@_1M@CDCLMGHI@?$AAk?$AAn?$AA?9?$AAI?$AAN?$AA?$AA@ 0000000180043ce8     LIBCMT:winapinls.obj
 0002:00004cf8       ??_C@_1M@MIODLDKF@?$AAm?$AAl?$AA?9?$AAI?$AAN?$AA?$AA@ 0000000180043cf8     LIBCMT:winapinls.obj
 0002:00004d08       ??_C@_1M@PBIEACPO@?$AAm?$AAr?$AA?9?$AAI?$AAN?$AA?$AA@ 0000000180043d08     LIBCMT:winapinls.obj
 0002:00004d18       ??_C@_1M@NIDEAGPH@?$AAs?$AAa?$AA?9?$AAI?$AAN?$AA?$AA@ 0000000180043d18     LIBCMT:winapinls.obj
 0002:00004d28       ??_C@_1M@FHIHCBIO@?$AAm?$AAn?$AA?9?$AAM?$AAN?$AA?$AA@ 0000000180043d28     LIBCMT:winapinls.obj
 0002:00004d38       ??_C@_1M@JAIJPENP@?$AAc?$AAy?$AA?9?$AAG?$AAB?$AA?$AA@ 0000000180043d38     LIBCMT:winapinls.obj
 0002:00004d48       ??_C@_1M@PHGFBEPN@?$AAg?$AAl?$AA?9?$AAE?$AAS?$AA?$AA@ 0000000180043d48     LIBCMT:winapinls.obj
 0002:00004d58       ??_C@_1O@KPIPDNCP@?$AAk?$AAo?$AAk?$AA?9?$AAI?$AAN?$AA?$AA@ 0000000180043d58     LIBCMT:winapinls.obj
 0002:00004d68       ??_C@_1O@KNHJLDJA@?$AAs?$AAy?$AAr?$AA?9?$AAS?$AAY?$AA?$AA@ 0000000180043d68     LIBCMT:winapinls.obj
 0002:00004d78       ??_C@_1O@MKEKBLAH@?$AAd?$AAi?$AAv?$AA?9?$AAM?$AAV?$AA?$AA@ 0000000180043d78     LIBCMT:winapinls.obj
 0002:00004d88       ??_C@_1O@OHDCKDDF@?$AAq?$AAu?$AAz?$AA?9?$AAB?$AAO?$AA?$AA@ 0000000180043d88     LIBCMT:winapinls.obj
 0002:00004d98       ??_C@_1M@LEPJNLFD@?$AAn?$AAs?$AA?9?$AAZ?$AAA?$AA?$AA@ 0000000180043d98     LIBCMT:winapinls.obj
 0002:00004da8       ??_C@_1M@OMLEIIJB@?$AAm?$AAi?$AA?9?$AAN?$AAZ?$AA?$AA@ 0000000180043da8     LIBCMT:winapinls.obj
 0002:00004db8       ??_C@_1M@PMPEAILG@?$AAa?$AAr?$AA?9?$AAI?$AAQ?$AA?$AA@ 0000000180043db8     LIBCMT:winapinls.obj
 0002:00004dc8       ??_C@_1M@BIBDDEMK@?$AAz?$AAh?$AA?9?$AAC?$AAN?$AA?$AA@ 0000000180043dc8     LIBCMT:winapinls.obj
 0002:00004dd8       ??_C@_1M@CNKPNOEE@?$AAd?$AAe?$AA?9?$AAC?$AAH?$AA?$AA@ 0000000180043dd8     LIBCMT:winapinls.obj
 0002:00004de8       ??_C@_1M@LKMGMLKO@?$AAe?$AAn?$AA?9?$AAG?$AAB?$AA?$AA@ 0000000180043de8     LIBCMT:winapinls.obj
 0002:00004df8       ??_C@_1M@PGKJFFGL@?$AAe?$AAs?$AA?9?$AAM?$AAX?$AA?$AA@ 0000000180043df8     LIBCMT:winapinls.obj
 0002:00004e08       ??_C@_1M@DNNANBDC@?$AAf?$AAr?$AA?9?$AAB?$AAE?$AA?$AA@ 0000000180043e08     LIBCMT:winapinls.obj
 0002:00004e18       ??_C@_1M@HLGMDFHM@?$AAi?$AAt?$AA?9?$AAC?$AAH?$AA?$AA@ 0000000180043e18     LIBCMT:winapinls.obj
 0002:00004e28       ??_C@_1M@CLLBGJH@?$AAn?$AAl?$AA?9?$AAB?$AAE?$AA?$AA@ 0000000180043e28     LIBCMT:winapinls.obj
 0002:00004e38       ??_C@_1M@BODBOGLF@?$AAn?$AAn?$AA?9?$AAN?$AAO?$AA?$AA@ 0000000180043e38     LIBCMT:winapinls.obj
 0002:00004e48       ??_C@_1M@HFFAHKAD@?$AAp?$AAt?$AA?9?$AAP?$AAT?$AA?$AA@ 0000000180043e48     LIBCMT:winapinls.obj
 0002:00004e58       ??_C@_1BG@LNOAKHIE@?$AAs?$AAr?$AA?9?$AAS?$AAP?$AA?9?$AAL?$AAa?$AAt?$AAn?$AA?$AA@ 0000000180043e58     LIBCMT:winapinls.obj
 0002:00004e70       ??_C@_1M@HBMHBGAK@?$AAs?$AAv?$AA?9?$AAF?$AAI?$AA?$AA@ 0000000180043e70     LIBCMT:winapinls.obj
 0002:00004e80       ??_C@_1BG@DGCJGJBE@?$AAa?$AAz?$AA?9?$AAA?$AAZ?$AA?9?$AAC?$AAy?$AAr?$AAl?$AA?$AA@ 0000000180043e80     LIBCMT:winapinls.obj
 0002:00004e98       ??_C@_1M@KEJDAAHB@?$AAs?$AAe?$AA?9?$AAS?$AAE?$AA?$AA@ 0000000180043e98     LIBCMT:winapinls.obj
 0002:00004ea8       ??_C@_1M@HEIBJJAD@?$AAm?$AAs?$AA?9?$AAB?$AAN?$AA?$AA@ 0000000180043ea8     LIBCMT:winapinls.obj
 0002:00004eb8       ??_C@_1BG@PBGJMCEM@?$AAu?$AAz?$AA?9?$AAU?$AAZ?$AA?9?$AAC?$AAy?$AAr?$AAl?$AA?$AA@ 0000000180043eb8     LIBCMT:winapinls.obj
 0002:00004ed0       ??_C@_1O@LAOBCMDF@?$AAq?$AAu?$AAz?$AA?9?$AAE?$AAC?$AA?$AA@ 0000000180043ed0     LIBCMT:winapinls.obj
 0002:00004ee0       ??_C@_1M@POEEMAIO@?$AAa?$AAr?$AA?9?$AAE?$AAG?$AA?$AA@ 0000000180043ee0     LIBCMT:winapinls.obj
 0002:00004ef0       ??_C@_1M@EFAKDEDL@?$AAz?$AAh?$AA?9?$AAH?$AAK?$AA?$AA@ 0000000180043ef0     LIBCMT:winapinls.obj
 0002:00004f00       ??_C@_1M@HKKIJHGI@?$AAd?$AAe?$AA?9?$AAA?$AAT?$AA?$AA@ 0000000180043f00     LIBCMT:winapinls.obj
 0002:00004f10       ??_C@_1M@KBFBEHJF@?$AAe?$AAn?$AA?9?$AAA?$AAU?$AA?$AA@ 0000000180043f10     LIBCMT:winapinls.obj
 0002:00004f20       ??_C@_1M@MNPLFAAH@?$AAe?$AAs?$AA?9?$AAE?$AAS?$AA?$AA@ 0000000180043f20     LIBCMT:winapinls.obj
 0002:00004f30       ??_C@_1M@HJOOJFMA@?$AAf?$AAr?$AA?9?$AAC?$AAA?$AA?$AA@ 0000000180043f30     LIBCMT:winapinls.obj
 0002:00004f40       ??_C@_1BG@JPOFPNAB@?$AAs?$AAr?$AA?9?$AAS?$AAP?$AA?9?$AAC?$AAy?$AAr?$AAl?$AA?$AA@ 0000000180043f40     LIBCMT:winapinls.obj
 0002:00004f58       ??_C@_1M@LNFOCMOB@?$AAs?$AAe?$AA?9?$AAF?$AAI?$AA?$AA@ 0000000180043f58     LIBCMT:winapinls.obj
 0002:00004f68       ??_C@_1O@MGJBOAMB@?$AAq?$AAu?$AAz?$AA?9?$AAP?$AAE?$AA?$AA@ 0000000180043f68     LIBCMT:winapinls.obj
 0002:00004f78       ??_C@_1M@GJINLBOK@?$AAa?$AAr?$AA?9?$AAL?$AAY?$AA?$AA@ 0000000180043f78     LIBCMT:winapinls.obj
 0002:00004f88       ??_C@_1M@GGMNHJNL@?$AAz?$AAh?$AA?9?$AAS?$AAG?$AA?$AA@ 0000000180043f88     LIBCMT:winapinls.obj
 0002:00004f98       ??_C@_1M@HOIKODND@?$AAd?$AAe?$AA?9?$AAL?$AAU?$AA?$AA@ 0000000180043f98     LIBCMT:winapinls.obj
 0002:00004fa8       ??_C@_1M@DDOCCGFG@?$AAe?$AAn?$AA?9?$AAC?$AAA?$AA?$AA@ 0000000180043fa8     LIBCMT:winapinls.obj
 0002:00004fb8       ??_C@_1M@BNOEMJLF@?$AAe?$AAs?$AA?9?$AAG?$AAT?$AA?$AA@ 0000000180043fb8     LIBCMT:winapinls.obj
 0002:00004fc8       ??_C@_1M@EOGNKEK@?$AAf?$AAr?$AA?9?$AAC?$AAH?$AA?$AA@ 0000000180043fc8     LIBCMT:winapinls.obj
 0002:00004fd8       ??_C@_1M@FLIDJFHL@?$AAh?$AAr?$AA?9?$AAB?$AAA?$AA?$AA@ 0000000180043fd8     LIBCMT:winapinls.obj
 0002:00004fe8       ??_C@_1O@FMCELNAJ@?$AAs?$AAm?$AAj?$AA?9?$AAN?$AAO?$AA?$AA@ 0000000180043fe8     LIBCMT:winapinls.obj
 0002:00004ff8       ??_C@_1M@JHGLJMGJ@?$AAa?$AAr?$AA?9?$AAD?$AAZ?$AA?$AA@ 0000000180043ff8     LIBCMT:winapinls.obj
 0002:00005008       ??_C@_1M@JKKFDCNP@?$AAz?$AAh?$AA?9?$AAM?$AAO?$AA?$AA@ 0000000180044008     LIBCMT:winapinls.obj
 0002:00005018       ??_C@_1M@GEEFALPE@?$AAd?$AAe?$AA?9?$AAL?$AAI?$AA?$AA@ 0000000180044018     LIBCMT:winapinls.obj
 0002:00005028       ??_C@_1M@IGEOFBG@?$AAe?$AAn?$AA?9?$AAN?$AAZ?$AA?$AA@ 0000000180044028     LIBCMT:winapinls.obj
 0002:00005038       ??_C@_1M@KDBONEHP@?$AAe?$AAs?$AA?9?$AAC?$AAR?$AA?$AA@ 0000000180044038     LIBCMT:winapinls.obj
 0002:00005048       ??_C@_1M@FHMDOHNN@?$AAf?$AAr?$AA?9?$AAL?$AAU?$AA?$AA@ 0000000180044048     LIBCMT:winapinls.obj
 0002:00005058       ??_C@_1BG@NFKKMAFG@?$AAb?$AAs?$AA?9?$AAB?$AAA?$AA?9?$AAL?$AAa?$AAt?$AAn?$AA?$AA@ 0000000180044058     LIBCMT:winapinls.obj
 0002:00005070       ??_C@_1O@IMNBEMCI@?$AAs?$AAm?$AAj?$AA?9?$AAS?$AAE?$AA?$AA@ 0000000180044070     LIBCMT:winapinls.obj
 0002:00005080       ??_C@_1M@DHHMBNDP@?$AAa?$AAr?$AA?9?$AAM?$AAA?$AA?$AA@ 0000000180044080     LIBCMT:winapinls.obj
 0002:00005090       ??_C@_1M@BNBLJCGH@?$AAe?$AAn?$AA?9?$AAI?$AAE?$AA?$AA@ 0000000180044090     LIBCMT:winapinls.obj
 0002:000050a0       ??_C@_1M@GEPAFMDL@?$AAe?$AAs?$AA?9?$AAP?$AAA?$AA?$AA@ 00000001800440a0     LIBCMT:winapinls.obj
 0002:000050b0       ??_C@_1M@OJONDMDL@?$AAf?$AAr?$AA?9?$AAM?$AAC?$AA?$AA@ 00000001800440b0     LIBCMT:winapinls.obj
 0002:000050c0       ??_C@_1BG@OBCNFJB@?$AAs?$AAr?$AA?9?$AAB?$AAA?$AA?9?$AAL?$AAa?$AAt?$AAn?$AA?$AA@ 00000001800440c0     LIBCMT:winapinls.obj
 0002:000050d8       ??_C@_1O@KEMEEGPO@?$AAs?$AAm?$AAa?$AA?9?$AAN?$AAO?$AA?$AA@ 00000001800440d8     LIBCMT:winapinls.obj
 0002:000050e8       ??_C@_1M@ELMGFODK@?$AAa?$AAr?$AA?9?$AAT?$AAN?$AA?$AA@ 00000001800440e8     LIBCMT:winapinls.obj
 0002:000050f8       ??_C@_1M@BHDLHFAF@?$AAe?$AAn?$AA?9?$AAZ?$AAA?$AA?$AA@ 00000001800440f8     LIBCMT:winapinls.obj
 0002:00005108       ??_C@_1M@BMGIGLIF@?$AAe?$AAs?$AA?9?$AAD?$AAO?$AA?$AA@ 0000000180044108     LIBCMT:winapinls.obj
 0002:00005118       ??_C@_1BG@CMBHIPBE@?$AAs?$AAr?$AA?9?$AAB?$AAA?$AA?9?$AAC?$AAy?$AAr?$AAl?$AA?$AA@ 0000000180044118     LIBCMT:winapinls.obj
 0002:00005130       ??_C@_1O@HEDBLHNP@?$AAs?$AAm?$AAa?$AA?9?$AAS?$AAE?$AA?$AA@ 0000000180044130     LIBCMT:winapinls.obj
 0002:00005140       ??_C@_1M@DAGCADIM@?$AAa?$AAr?$AA?9?$AAO?$AAM?$AA?$AA@ 0000000180044140     LIBCMT:winapinls.obj
 0002:00005150       ??_C@_1M@FODLMICG@?$AAe?$AAn?$AA?9?$AAJ?$AAM?$AA?$AA@ 0000000180044150     LIBCMT:winapinls.obj
 0002:00005160       ??_C@_1M@DNMLCIHB@?$AAe?$AAs?$AA?9?$AAV?$AAE?$AA?$AA@ 0000000180044160     LIBCMT:winapinls.obj
 0002:00005170       ??_C@_1O@EOKHMKJK@?$AAs?$AAm?$AAs?$AA?9?$AAF?$AAI?$AA?$AA@ 0000000180044170     LIBCMT:winapinls.obj
 0002:00005180       ??_C@_1M@CAFJMKOF@?$AAa?$AAr?$AA?9?$AAY?$AAE?$AA?$AA@ 0000000180044180     LIBCMT:winapinls.obj
 0002:00005190       ??_C@_1M@CBFHIJLI@?$AAe?$AAn?$AA?9?$AAC?$AAB?$AA?$AA@ 0000000180044190     LIBCMT:winapinls.obj
 0002:000051a0       ??_C@_1M@BGNFLDN@?$AAe?$AAs?$AA?9?$AAC?$AAO?$AA?$AA@ 00000001800441a0     LIBCMT:winapinls.obj
 0002:000051b0       ??_C@_1O@JMPHMAMC@?$AAs?$AAm?$AAn?$AA?9?$AAF?$AAI?$AA?$AA@ 00000001800441b0     LIBCMT:winapinls.obj
 0002:000051c0       ??_C@_1M@JLANABKE@?$AAa?$AAr?$AA?9?$AAS?$AAY?$AA?$AA@ 00000001800441c0     LIBCMT:winapinls.obj
 0002:000051d0       ??_C@_1M@HPKGCFGN@?$AAe?$AAn?$AA?9?$AAB?$AAZ?$AA?$AA@ 00000001800441d0     LIBCMT:winapinls.obj
 0002:000051e0       ??_C@_1M@OLJCMLGM@?$AAe?$AAs?$AA?9?$AAP?$AAE?$AA?$AA@ 00000001800441e0     LIBCMT:winapinls.obj
 0002:000051f0       ??_C@_1M@MKKGFKLE@?$AAa?$AAr?$AA?9?$AAJ?$AAO?$AA?$AA@ 00000001800441f0     LIBCMT:winapinls.obj
 0002:00005200       ??_C@_1M@EKPGLDNI@?$AAe?$AAn?$AA?9?$AAT?$AAT?$AA?$AA@ 0000000180044200     LIBCMT:winapinls.obj
 0002:00005210       ??_C@_1M@OONGHFHE@?$AAe?$AAs?$AA?9?$AAA?$AAR?$AA?$AA@ 0000000180044210     LIBCMT:winapinls.obj
 0002:00005220       ??_C@_1M@OOJFGBHE@?$AAa?$AAr?$AA?9?$AAL?$AAB?$AA?$AA@ 0000000180044220     LIBCMT:winapinls.obj
 0002:00005230       ??_C@_1M@GCEJHNEG@?$AAe?$AAn?$AA?9?$AAZ?$AAW?$AA?$AA@ 0000000180044230     LIBCMT:winapinls.obj
 0002:00005240       ??_C@_1M@JNOCAHJI@?$AAe?$AAs?$AA?9?$AAE?$AAC?$AA?$AA@ 0000000180044240     LIBCMT:winapinls.obj
 0002:00005250       ??_C@_1M@JEFHPGGB@?$AAa?$AAr?$AA?9?$AAK?$AAW?$AA?$AA@ 0000000180044250     LIBCMT:winapinls.obj
 0002:00005260       ??_C@_1M@MLKIBJOJ@?$AAe?$AAn?$AA?9?$AAP?$AAH?$AA?$AA@ 0000000180044260     LIBCMT:winapinls.obj
 0002:00005270       ??_C@_1M@BDNIPEND@?$AAe?$AAs?$AA?9?$AAC?$AAL?$AA?$AA@ 0000000180044270     LIBCMT:winapinls.obj
 0002:00005280       ??_C@_1M@MPNMEKBD@?$AAa?$AAr?$AA?9?$AAA?$AAE?$AA?$AA@ 0000000180044280     LIBCMT:winapinls.obj
 0002:00005290       ??_C@_1M@KBJALCPI@?$AAe?$AAs?$AA?9?$AAU?$AAY?$AA?$AA@ 0000000180044290     LIBCMT:winapinls.obj
 0002:000052a0       ??_C@_1M@LLCCOAGA@?$AAa?$AAr?$AA?9?$AAB?$AAH?$AA?$AA@ 00000001800442a0     LIBCMT:winapinls.obj
 0002:000052b0       ??_C@_1M@PBFNCDEL@?$AAe?$AAs?$AA?9?$AAP?$AAY?$AA?$AA@ 00000001800442b0     LIBCMT:winapinls.obj
 0002:000052c0       ??_C@_1M@EDGINPNP@?$AAa?$AAr?$AA?9?$AAQ?$AAA?$AA?$AA@ 00000001800442c0     LIBCMT:winapinls.obj
 0002:000052d0       ??_C@_1M@MKDBIIJI@?$AAe?$AAs?$AA?9?$AAB?$AAO?$AA?$AA@ 00000001800442d0     LIBCMT:winapinls.obj
 0002:000052e0       ??_C@_1M@CPKKEBLD@?$AAe?$AAs?$AA?9?$AAS?$AAV?$AA?$AA@ 00000001800442e0     LIBCMT:winapinls.obj
 0002:000052f0       ??_C@_1M@NDBGMMJL@?$AAe?$AAs?$AA?9?$AAH?$AAN?$AA?$AA@ 00000001800442f0     LIBCMT:winapinls.obj
 0002:00005300       ??_C@_1M@JIJIBHDP@?$AAe?$AAs?$AA?9?$AAN?$AAI?$AA?$AA@ 0000000180044300     LIBCMT:winapinls.obj
 0002:00005310       ??_C@_1M@CGFMKEEK@?$AAe?$AAs?$AA?9?$AAP?$AAR?$AA?$AA@ 0000000180044310     LIBCMT:winapinls.obj
 0002:00005320       ??_C@_1O@ICJHKIIK@?$AAz?$AAh?$AA?9?$AAC?$AAH?$AAT?$AA?$AA@ 0000000180044320     LIBCMT:winapinls.obj
 0002:00005330       ??_C@_15CLNEJCE@?$AAs?$AAr?$AA?$AA@ 0000000180044330     LIBCMT:winapinls.obj
 0002:00005338       ??_C@_1M@KAHEKEIG@?$AAa?$AAf?$AA?9?$AAz?$AAa?$AA?$AA@ 0000000180044338     LIBCMT:winapinls.obj
 0002:00005348       ??_C@_1M@GIECOABL@?$AAa?$AAr?$AA?9?$AAa?$AAe?$AA?$AA@ 0000000180044348     LIBCMT:winapinls.obj
 0002:00005358       ??_C@_1M@BMLMEKGI@?$AAa?$AAr?$AA?9?$AAb?$AAh?$AA?$AA@ 0000000180044358     LIBCMT:winapinls.obj
 0002:00005368       ??_C@_1M@DAPFDGGB@?$AAa?$AAr?$AA?9?$AAd?$AAz?$AA?$AA@ 0000000180044368     LIBCMT:winapinls.obj
 0002:00005378       ??_C@_1M@FJNKGKIG@?$AAa?$AAr?$AA?9?$AAe?$AAg?$AA?$AA@ 0000000180044378     LIBCMT:winapinls.obj
 0002:00005388       ??_C@_1M@FLGKKCLO@?$AAa?$AAr?$AA?9?$AAi?$AAq?$AA?$AA@ 0000000180044388     LIBCMT:winapinls.obj
 0002:00005398       ??_C@_1M@GNDIPALM@?$AAa?$AAr?$AA?9?$AAj?$AAo?$AA?$AA@ 0000000180044398     LIBCMT:winapinls.obj
 0002:000053a8       ??_C@_1M@DDMJFMGJ@?$AAa?$AAr?$AA?9?$AAk?$AAw?$AA?$AA@ 00000001800443a8     LIBCMT:winapinls.obj
 0002:000053b8       ??_C@_1M@EJALMLHM@?$AAa?$AAr?$AA?9?$AAl?$AAb?$AA?$AA@ 00000001800443b8     LIBCMT:winapinls.obj
 0002:000053c8       ??_C@_1M@MOBDBLOC@?$AAa?$AAr?$AA?9?$AAl?$AAy?$AA?$AA@ 00000001800443c8     LIBCMT:winapinls.obj
 0002:000053d8       ??_C@_1M@JAOCLHDH@?$AAa?$AAr?$AA?9?$AAm?$AAa?$AA?$AA@ 00000001800443d8     LIBCMT:winapinls.obj
 0002:000053e8       ??_C@_1M@JHPMKJIE@?$AAa?$AAr?$AA?9?$AAo?$AAm?$AA?$AA@ 00000001800443e8     LIBCMT:winapinls.obj
 0002:000053f8       ??_C@_1M@OEPGHFNH@?$AAa?$AAr?$AA?9?$AAq?$AAa?$AA?$AA@ 00000001800443f8     LIBCMT:winapinls.obj
 0002:00005408       ??_C@_1M@KJDONENM@?$AAa?$AAr?$AA?9?$AAs?$AAa?$AA?$AA@ 0000000180044408     LIBCMT:winapinls.obj
 0002:00005418       ??_C@_1M@DMJDKLKM@?$AAa?$AAr?$AA?9?$AAs?$AAy?$AA?$AA@ 0000000180044418     LIBCMT:winapinls.obj
 0002:00005428       ??_C@_1M@OMFIPEDC@?$AAa?$AAr?$AA?9?$AAt?$AAn?$AA?$AA@ 0000000180044428     LIBCMT:winapinls.obj
 0002:00005438       ??_C@_1M@IHMHGAON@?$AAa?$AAr?$AA?9?$AAy?$AAe?$AA?$AA@ 0000000180044438     LIBCMT:winapinls.obj
 0002:00005448       ??_C@_1BG@KDCPGJGB@?$AAa?$AAz?$AA?9?$AAa?$AAz?$AA?9?$AAc?$AAy?$AAr?$AAl?$AA?$AA@ 0000000180044448     LIBCMT:winapinls.obj
 0002:00005460       ??_C@_1BG@IBCKDDOE@?$AAa?$AAz?$AA?9?$AAa?$AAz?$AA?9?$AAl?$AAa?$AAt?$AAn?$AA?$AA@ 0000000180044460     LIBCMT:winapinls.obj
 0002:00005478       ??_C@_1M@EGPFDCPD@?$AAb?$AAe?$AA?9?$AAb?$AAy?$AA?$AA@ 0000000180044478     LIBCMT:winapinls.obj
 0002:00005488       ??_C@_1M@PCMGMCGC@?$AAb?$AAg?$AA?9?$AAb?$AAg?$AA?$AA@ 0000000180044488     LIBCMT:winapinls.obj
 0002:00005498       ??_C@_1M@BJBMFGOB@?$AAb?$AAn?$AA?9?$AAi?$AAn?$AA?$AA@ 0000000180044498     LIBCMT:winapinls.obj
 0002:000054a8       ??_C@_1BG@EAKMMACD@?$AAb?$AAs?$AA?9?$AAb?$AAa?$AA?9?$AAl?$AAa?$AAt?$AAn?$AA?$AA@ 00000001800444a8     LIBCMT:winapinls.obj
 0002:000054c0       ??_C@_1M@KGADAODK@?$AAc?$AAa?$AA?9?$AAe?$AAs?$AA?$AA@ 00000001800444c0     LIBCMT:winapinls.obj
 0002:000054d0       ??_C@_1M@COAJPDHI@?$AAc?$AAs?$AA?9?$AAc?$AAz?$AA?$AA@ 00000001800444d0     LIBCMT:winapinls.obj
 0002:000054e0       ??_C@_1M@DHBHFONH@?$AAc?$AAy?$AA?9?$AAg?$AAb?$AA?$AA@ 00000001800444e0     LIBCMT:winapinls.obj
 0002:000054f0       ??_C@_1M@IMGKELGA@?$AAd?$AAa?$AA?9?$AAd?$AAk?$AA?$AA@ 00000001800444f0     LIBCMT:winapinls.obj
 0002:00005500       ??_C@_1M@NNDGDNGA@?$AAd?$AAe?$AA?9?$AAa?$AAt?$AA?$AA@ 0000000180044500     LIBCMT:winapinls.obj
 0002:00005510       ??_C@_1M@IKDBHEEM@?$AAd?$AAe?$AA?9?$AAc?$AAh?$AA?$AA@ 0000000180044510     LIBCMT:winapinls.obj
 0002:00005520       ??_C@_1M@GFFOJMCJ@?$AAd?$AAe?$AA?9?$AAd?$AAe?$AA?$AA@ 0000000180044520     LIBCMT:winapinls.obj
 0002:00005530       ??_C@_1M@MDNLKBPM@?$AAd?$AAe?$AA?9?$AAl?$AAi?$AA?$AA@ 0000000180044530     LIBCMT:winapinls.obj
 0002:00005540       ??_C@_1M@NJBEEJNL@?$AAd?$AAe?$AA?9?$AAl?$AAu?$AA?$AA@ 0000000180044540     LIBCMT:winapinls.obj
 0002:00005550       ??_C@_1O@GNNELBAP@?$AAd?$AAi?$AAv?$AA?9?$AAm?$AAv?$AA?$AA@ 0000000180044550     LIBCMT:winapinls.obj
 0002:00005560       ??_C@_1M@EJLEOGAE@?$AAe?$AAl?$AA?9?$AAg?$AAr?$AA?$AA@ 0000000180044560     LIBCMT:winapinls.obj
 0002:00005570       ??_C@_1M@GMPONJN@?$AAe?$AAn?$AA?9?$AAa?$AAu?$AA?$AA@ 0000000180044570     LIBCMT:winapinls.obj
 0002:00005580       ??_C@_1M@NIDIIPGF@?$AAe?$AAn?$AA?9?$AAb?$AAz?$AA?$AA@ 0000000180044580     LIBCMT:winapinls.obj
 0002:00005590       ??_C@_1M@JEHMIMFO@?$AAe?$AAn?$AA?9?$AAc?$AAa?$AA?$AA@ 0000000180044590     LIBCMT:winapinls.obj
 0002:000055a0       ??_C@_1M@IGMJCDLA@?$AAe?$AAn?$AA?9?$AAc?$AAb?$AA?$AA@ 00000001800445a0     LIBCMT:winapinls.obj
 0002:000055b0       ??_C@_1M@BNFIGBKG@?$AAe?$AAn?$AA?9?$AAg?$AAb?$AA?$AA@ 00000001800445b0     LIBCMT:winapinls.obj
 0002:000055c0       ??_C@_1M@LKIFDIGP@?$AAe?$AAn?$AA?9?$AAi?$AAe?$AA?$AA@ 00000001800445c0     LIBCMT:winapinls.obj
 0002:000055d0       ??_C@_1M@PJKFGCCO@?$AAe?$AAn?$AA?9?$AAj?$AAm?$AA?$AA@ 00000001800445d0     LIBCMT:winapinls.obj
 0002:000055e0       ??_C@_1M@KPPKEPBO@?$AAe?$AAn?$AA?9?$AAn?$AAz?$AA?$AA@ 00000001800445e0     LIBCMT:winapinls.obj
 0002:000055f0       ??_C@_1M@GMDGLDOB@?$AAe?$AAn?$AA?9?$AAp?$AAh?$AA?$AA@ 00000001800445f0     LIBCMT:winapinls.obj
 0002:00005600       ??_C@_1M@ONGIBJNA@?$AAe?$AAn?$AA?9?$AAt?$AAt?$AA?$AA@ 0000000180044600     LIBCMT:winapinls.obj
 0002:00005610       ??_C@_1M@LLODPCMM@?$AAe?$AAn?$AA?9?$AAu?$AAs?$AA?$AA@ 0000000180044610     LIBCMT:winapinls.obj
 0002:00005620       ??_C@_1M@LAKFNPAN@?$AAe?$AAn?$AA?9?$AAz?$AAa?$AA?$AA@ 0000000180044620     LIBCMT:winapinls.obj
 0002:00005630       ??_C@_1M@MFNHNHEO@?$AAe?$AAn?$AA?9?$AAz?$AAw?$AA?$AA@ 0000000180044630     LIBCMT:winapinls.obj
 0002:00005640       ??_C@_1M@EJEINPHM@?$AAe?$AAs?$AA?9?$AAa?$AAr?$AA?$AA@ 0000000180044640     LIBCMT:winapinls.obj
 0002:00005650       ??_C@_1M@GNKPCCJA@?$AAe?$AAs?$AA?9?$AAb?$AAo?$AA?$AA@ 0000000180044650     LIBCMT:winapinls.obj
 0002:00005660       ??_C@_1M@LEEGFONL@?$AAe?$AAs?$AA?9?$AAc?$AAl?$AA?$AA@ 0000000180044660     LIBCMT:winapinls.obj
 0002:00005670       ??_C@_1M@KGPDPBDF@?$AAe?$AAs?$AA?9?$AAc?$AAo?$AA?$AA@ 0000000180044670     LIBCMT:winapinls.obj
 0002:00005680       ??_C@_1M@EIAHOHH@?$AAe?$AAs?$AA?9?$AAc?$AAr?$AA?$AA@ 0000000180044680     LIBCMT:winapinls.obj
 0002:00005690       ??_C@_1M@LLPGMBIN@?$AAe?$AAs?$AA?9?$AAd?$AAo?$AA?$AA@ 0000000180044690     LIBCMT:winapinls.obj
 0002:000056a0       ??_C@_1M@DKHMKNJA@?$AAe?$AAs?$AA?9?$AAe?$AAc?$AA?$AA@ 00000001800446a0     LIBCMT:winapinls.obj
 0002:000056b0       ??_C@_1M@GKGFPKAP@?$AAe?$AAs?$AA?9?$AAe?$AAs?$AA?$AA@ 00000001800446b0     LIBCMT:winapinls.obj
 0002:000056c0       ??_C@_1M@LKHKGDLN@?$AAe?$AAs?$AA?9?$AAg?$AAt?$AA?$AA@ 00000001800446c0     LIBCMT:winapinls.obj
 0002:000056d0       ??_C@_1M@HEIIGGJD@?$AAe?$AAs?$AA?9?$AAh?$AAn?$AA?$AA@ 00000001800446d0     LIBCMT:winapinls.obj
 0002:000056e0       ??_C@_1M@FBDHPPGD@?$AAe?$AAs?$AA?9?$AAm?$AAx?$AA?$AA@ 00000001800446e0     LIBCMT:winapinls.obj
 0002:000056f0       ??_C@_1M@DPAGLNDH@?$AAe?$AAs?$AA?9?$AAn?$AAi?$AA?$AA@ 00000001800446f0     LIBCMT:winapinls.obj
 0002:00005700       ??_C@_1M@MDGOPGDD@?$AAe?$AAs?$AA?9?$AAp?$AAa?$AA?$AA@ 0000000180044700     LIBCMT:winapinls.obj
 0002:00005710       ??_C@_1M@EMAMGBGE@?$AAe?$AAs?$AA?9?$AAp?$AAe?$AA?$AA@ 0000000180044710     LIBCMT:winapinls.obj
 0002:00005720       ??_C@_1M@IBMCAOEC@?$AAe?$AAs?$AA?9?$AAp?$AAr?$AA?$AA@ 0000000180044720     LIBCMT:winapinls.obj
 0002:00005730       ??_C@_1M@FGMDIJED@?$AAe?$AAs?$AA?9?$AAp?$AAy?$AA?$AA@ 0000000180044730     LIBCMT:winapinls.obj
 0002:00005740       ??_C@_1M@IIDEOLLL@?$AAe?$AAs?$AA?9?$AAs?$AAv?$AA?$AA@ 0000000180044740     LIBCMT:winapinls.obj
 0002:00005750       ??_C@_1M@GAOBIPA@?$AAe?$AAs?$AA?9?$AAu?$AAy?$AA?$AA@ 0000000180044750     LIBCMT:winapinls.obj
 0002:00005760       ??_C@_1M@JKFFICHJ@?$AAe?$AAs?$AA?9?$AAv?$AAe?$AA?$AA@ 0000000180044760     LIBCMT:winapinls.obj
 0002:00005770       ??_C@_1M@PNMLOJDF@?$AAe?$AAt?$AA?9?$AAe?$AAe?$AA?$AA@ 0000000180044770     LIBCMT:winapinls.obj
 0002:00005780       ??_C@_1M@GHHLIKEI@?$AAe?$AAu?$AA?9?$AAe?$AAs?$AA?$AA@ 0000000180044780     LIBCMT:winapinls.obj
 0002:00005790       ??_C@_1M@PBNONODE@?$AAf?$AAa?$AA?9?$AAi?$AAr?$AA?$AA@ 0000000180044790     LIBCMT:winapinls.obj
 0002:000057a0       ??_C@_1M@JEEHPMIL@?$AAf?$AAi?$AA?9?$AAf?$AAi?$AA?$AA@ 00000001800447a0     LIBCMT:winapinls.obj
 0002:000057b0       ??_C@_1M@LMDCNDBA@?$AAf?$AAo?$AA?9?$AAf?$AAo?$AA?$AA@ 00000001800447b0     LIBCMT:winapinls.obj
 0002:000057c0       ??_C@_1M@JKEOHLDK@?$AAf?$AAr?$AA?9?$AAb?$AAe?$AA?$AA@ 00000001800447c0     LIBCMT:winapinls.obj
 0002:000057d0       ??_C@_1M@NOHADPMI@?$AAf?$AAr?$AA?9?$AAc?$AAa?$AA?$AA@ 00000001800447d0     LIBCMT:winapinls.obj
 0002:000057e0       ??_C@_1M@KDHIHAEC@?$AAf?$AAr?$AA?9?$AAc?$AAh?$AA?$AA@ 00000001800447e0     LIBCMT:winapinls.obj
 0002:000057f0       ??_C@_1M@MMBBFGAK@?$AAf?$AAr?$AA?9?$AAf?$AAr?$AA?$AA@ 00000001800447f0     LIBCMT:winapinls.obj
 0002:00005800       ??_C@_1M@PAFNENNF@?$AAf?$AAr?$AA?9?$AAl?$AAu?$AA?$AA@ 0000000180044800     LIBCMT:winapinls.obj
 0002:00005810       ??_C@_1M@EOHDJGDD@?$AAf?$AAr?$AA?9?$AAm?$AAc?$AA?$AA@ 0000000180044810     LIBCMT:winapinls.obj
 0002:00005820       ??_C@_1M@FAPLLOPF@?$AAg?$AAl?$AA?9?$AAe?$AAs?$AA?$AA@ 0000000180044820     LIBCMT:winapinls.obj
 0002:00005830       ??_C@_1M@FOPBFLOO@?$AAg?$AAu?$AA?9?$AAi?$AAn?$AA?$AA@ 0000000180044830     LIBCMT:winapinls.obj
 0002:00005840       ??_C@_1M@KBMCINPM@?$AAh?$AAe?$AA?9?$AAi?$AAl?$AA?$AA@ 0000000180044840     LIBCMT:winapinls.obj
 0002:00005850       ??_C@_1M@BBPHKFPJ@?$AAh?$AAi?$AA?9?$AAi?$AAn?$AA?$AA@ 0000000180044850     LIBCMT:winapinls.obj
 0002:00005860       ??_C@_1M@PMBNDPHD@?$AAh?$AAr?$AA?9?$AAb?$AAa?$AA?$AA@ 0000000180044860     LIBCMT:winapinls.obj
 0002:00005870       ??_C@_1M@BPCKOEGE@?$AAh?$AAr?$AA?9?$AAh?$AAr?$AA?$AA@ 0000000180044870     LIBCMT:winapinls.obj
 0002:00005880       ??_C@_1M@GACBMHKE@?$AAh?$AAu?$AA?9?$AAh?$AAu?$AA?$AA@ 0000000180044880     LIBCMT:winapinls.obj
 0002:00005890       ??_C@_1M@MILPAJJC@?$AAh?$AAy?$AA?9?$AAa?$AAm?$AA?$AA@ 0000000180044890     LIBCMT:winapinls.obj
 0002:000058a0       ??_C@_1M@BABBICEC@?$AAi?$AAd?$AA?9?$AAi?$AAd?$AA?$AA@ 00000001800448a0     LIBCMT:winapinls.obj
 0002:000058b0       ??_C@_1M@BIKNHHPF@?$AAi?$AAs?$AA?9?$AAi?$AAs?$AA?$AA@ 00000001800448b0     LIBCMT:winapinls.obj
 0002:000058c0       ??_C@_1M@NMPCJPHE@?$AAi?$AAt?$AA?9?$AAc?$AAh?$AA?$AA@ 00000001800448c0     LIBCMT:winapinls.obj
 0002:000058d0       ??_C@_1M@GHKGFEDF@?$AAi?$AAt?$AA?9?$AAi?$AAt?$AA?$AA@ 00000001800448d0     LIBCMT:winapinls.obj
 0002:000058e0       ??_C@_1M@NIEJCJJA@?$AAj?$AAa?$AA?9?$AAj?$AAp?$AA?$AA@ 00000001800448e0     LIBCMT:winapinls.obj
 0002:000058f0       ??_C@_1M@JILFNBIM@?$AAk?$AAa?$AA?9?$AAg?$AAe?$AA?$AA@ 00000001800448f0     LIBCMT:winapinls.obj
 0002:00005900       ??_C@_1M@PACPMGPH@?$AAk?$AAk?$AA?9?$AAk?$AAz?$AA?$AA@ 0000000180044900     LIBCMT:winapinls.obj
 0002:00005910       ??_C@_1M@IELFGMHA@?$AAk?$AAn?$AA?9?$AAi?$AAn?$AA?$AA@ 0000000180044910     LIBCMT:winapinls.obj
 0002:00005920       ??_C@_1O@IBBJHCH@?$AAk?$AAo?$AAk?$AA?9?$AAi?$AAn?$AA?$AA@ 0000000180044920     LIBCMT:winapinls.obj
 0002:00005930       ??_C@_1M@DMHAEOGC@?$AAk?$AAo?$AA?9?$AAk?$AAr?$AA?$AA@ 0000000180044930     LIBCMT:winapinls.obj
 0002:00005940       ??_C@_1M@HBAHBIGA@?$AAk?$AAy?$AA?9?$AAk?$AAg?$AA?$AA@ 0000000180044940     LIBCMT:winapinls.obj
 0002:00005950       ??_C@_1M@KPMILCJG@?$AAl?$AAt?$AA?9?$AAl?$AAt?$AA?$AA@ 0000000180044950     LIBCMT:winapinls.obj
 0002:00005960       ??_C@_1M@BDEKKCA@?$AAl?$AAv?$AA?9?$AAl?$AAv?$AA?$AA@ 0000000180044960     LIBCMT:winapinls.obj
 0002:00005970       ??_C@_1M@ELCKCCJJ@?$AAm?$AAi?$AA?9?$AAn?$AAz?$AA?$AA@ 0000000180044970     LIBCMT:winapinls.obj
 0002:00005980       ??_C@_1M@CBOOLAPA@?$AAm?$AAk?$AA?9?$AAm?$AAk?$AA?$AA@ 0000000180044980     LIBCMT:winapinls.obj
 0002:00005990       ??_C@_1M@GPHNBJKN@?$AAm?$AAl?$AA?9?$AAi?$AAn?$AA?$AA@ 0000000180044990     LIBCMT:winapinls.obj
 0002:000059a0       ??_C@_1M@PABJILIG@?$AAm?$AAn?$AA?9?$AAm?$AAn?$AA?$AA@ 00000001800449a0     LIBCMT:winapinls.obj
 0002:000059b0       ??_C@_1M@FGBKKIPG@?$AAm?$AAr?$AA?9?$AAi?$AAn?$AA?$AA@ 00000001800449b0     LIBCMT:winapinls.obj
 0002:000059c0       ??_C@_1M@NDBPDDAL@?$AAm?$AAs?$AA?9?$AAb?$AAn?$AA?$AA@ 00000001800449c0     LIBCMT:winapinls.obj
 0002:000059d0       ??_C@_1M@OPIHOOPI@?$AAm?$AAs?$AA?9?$AAm?$AAy?$AA?$AA@ 00000001800449d0     LIBCMT:winapinls.obj
 0002:000059e0       ??_C@_1M@PPDBCNFM@?$AAm?$AAt?$AA?9?$AAm?$AAt?$AA?$AA@ 00000001800449e0     LIBCMT:winapinls.obj
 0002:000059f0       ??_C@_1M@KDJDKMDD@?$AAn?$AAb?$AA?9?$AAn?$AAo?$AA?$AA@ 00000001800449f0     LIBCMT:winapinls.obj
 0002:00005a00       ??_C@_1M@KFCFLMJP@?$AAn?$AAl?$AA?9?$AAb?$AAe?$AA?$AA@ 0000000180044a00     LIBCMT:winapinls.obj
 0002:00005a10       ??_C@_1M@KPOPDDGO@?$AAn?$AAl?$AA?9?$AAn?$AAl?$AA?$AA@ 0000000180044a10     LIBCMT:winapinls.obj
 0002:00005a20       ??_C@_1M@LJKPEMLN@?$AAn?$AAn?$AA?9?$AAn?$AAo?$AA?$AA@ 0000000180044a20     LIBCMT:winapinls.obj
 0002:00005a30       ??_C@_1M@BDGHHBFL@?$AAn?$AAs?$AA?9?$AAz?$AAa?$AA?$AA@ 0000000180044a30     LIBCMT:winapinls.obj
 0002:00005a40       ??_C@_1M@IDEHOAP@?$AAp?$AAa?$AA?9?$AAi?$AAn?$AA?$AA@ 0000000180044a40     LIBCMT:winapinls.obj
 0002:00005a50       ??_C@_1M@HDBKGOGH@?$AAp?$AAl?$AA?9?$AAp?$AAl?$AA?$AA@ 0000000180044a50     LIBCMT:winapinls.obj
 0002:00005a60       ??_C@_1M@LJLLCMEH@?$AAp?$AAt?$AA?9?$AAb?$AAr?$AA?$AA@ 0000000180044a60     LIBCMT:winapinls.obj
 0002:00005a70       ??_C@_1M@NCMONAAL@?$AAp?$AAt?$AA?9?$AAp?$AAt?$AA?$AA@ 0000000180044a70     LIBCMT:winapinls.obj
 0002:00005a80       ??_C@_1O@EAKMAJDN@?$AAq?$AAu?$AAz?$AA?9?$AAb?$AAo?$AA?$AA@ 0000000180044a80     LIBCMT:winapinls.obj
 0002:00005a90       ??_C@_1O@BHHPIGDN@?$AAq?$AAu?$AAz?$AA?9?$AAe?$AAc?$AA?$AA@ 0000000180044a90     LIBCMT:winapinls.obj
 0002:00005aa0       ??_C@_1O@GBAPEKMJ@?$AAq?$AAu?$AAz?$AA?9?$AAp?$AAe?$AA?$AA@ 0000000180044aa0     LIBCMT:winapinls.obj
 0002:00005ab0       ??_C@_1M@CLGLEFBO@?$AAr?$AAo?$AA?9?$AAr?$AAo?$AA?$AA@ 0000000180044ab0     LIBCMT:winapinls.obj
 0002:00005ac0       ??_C@_1M@CEEDODME@?$AAr?$AAu?$AA?9?$AAr?$AAu?$AA?$AA@ 0000000180044ac0     LIBCMT:winapinls.obj
 0002:00005ad0       ??_C@_1M@HPKKKMPP@?$AAs?$AAa?$AA?9?$AAi?$AAn?$AA?$AA@ 0000000180044ad0     LIBCMT:winapinls.obj
 0002:00005ae0       ??_C@_1M@BKMAIGOJ@?$AAs?$AAe?$AA?9?$AAf?$AAi?$AA?$AA@ 0000000180044ae0     LIBCMT:winapinls.obj
 0002:00005af0       ??_C@_1M@NDPIFLFI@?$AAs?$AAe?$AA?9?$AAn?$AAo?$AA?$AA@ 0000000180044af0     LIBCMT:winapinls.obj
 0002:00005b00       ??_C@_1M@DANKKHJ@?$AAs?$AAe?$AA?9?$AAs?$AAe?$AA?$AA@ 0000000180044b00     LIBCMT:winapinls.obj
 0002:00005b10       ??_C@_1M@PNBLONPJ@?$AAs?$AAk?$AA?9?$AAs?$AAk?$AA?$AA@ 0000000180044b10     LIBCMT:winapinls.obj
 0002:00005b20       ??_C@_1M@LFMODOAL@?$AAs?$AAl?$AA?9?$AAs?$AAi?$AA?$AA@ 0000000180044b20     LIBCMT:winapinls.obj
 0002:00005b30       ??_C@_1O@DFKOMPG@?$AAs?$AAm?$AAa?$AA?9?$AAn?$AAo?$AA?$AA@ 0000000180044b30     LIBCMT:winapinls.obj
 0002:00005b40       ??_C@_1O@NDKPBNNH@?$AAs?$AAm?$AAa?$AA?9?$AAs?$AAe?$AA?$AA@ 0000000180044b40     LIBCMT:winapinls.obj
 0002:00005b50       ??_C@_1O@PLLKBHAB@?$AAs?$AAm?$AAj?$AA?9?$AAn?$AAo?$AA?$AA@ 0000000180044b50     LIBCMT:winapinls.obj
 0002:00005b60       ??_C@_1O@CLEPOGCA@?$AAs?$AAm?$AAj?$AA?9?$AAs?$AAe?$AA?$AA@ 0000000180044b60     LIBCMT:winapinls.obj
 0002:00005b70       ??_C@_1O@DLGJGKMK@?$AAs?$AAm?$AAn?$AA?9?$AAf?$AAi?$AA?$AA@ 0000000180044b70     LIBCMT:winapinls.obj
 0002:00005b80       ??_C@_1O@OJDJGAJC@?$AAs?$AAm?$AAs?$AA?9?$AAf?$AAi?$AA?$AA@ 0000000180044b80     LIBCMT:winapinls.obj
 0002:00005b90       ??_C@_1M@BOFOGHPB@?$AAs?$AAq?$AA?9?$AAa?$AAl?$AA?$AA@ 0000000180044b90     LIBCMT:winapinls.obj
 0002:00005ba0       ??_C@_1BG@LJBBIPGB@?$AAs?$AAr?$AA?9?$AAb?$AAa?$AA?9?$AAc?$AAy?$AAr?$AAl?$AA?$AA@ 0000000180044ba0     LIBCMT:winapinls.obj
 0002:00005bb8       ??_C@_1BG@JLBENFOE@?$AAs?$AAr?$AA?9?$AAb?$AAa?$AA?9?$AAl?$AAa?$AAt?$AAn?$AA?$AA@ 0000000180044bb8     LIBCMT:winapinls.obj
 0002:00005bd0       ??_C@_1BG@KODPNHE@?$AAs?$AAr?$AA?9?$AAs?$AAp?$AA?9?$AAc?$AAy?$AAr?$AAl?$AA?$AA@ 0000000180044bd0     LIBCMT:winapinls.obj
 0002:00005be8       ??_C@_1BG@CIOGKHPB@?$AAs?$AAr?$AA?9?$AAs?$AAp?$AA?9?$AAl?$AAa?$AAt?$AAn?$AA?$AA@ 0000000180044be8     LIBCMT:winapinls.obj
 0002:00005c00       ??_C@_1M@NGFJLMAC@?$AAs?$AAv?$AA?9?$AAf?$AAi?$AA?$AA@ 0000000180044c00     LIBCMT:winapinls.obj
 0002:00005c10       ??_C@_1M@MPJEJAJC@?$AAs?$AAv?$AA?9?$AAs?$AAe?$AA?$AA@ 0000000180044c10     LIBCMT:winapinls.obj
 0002:00005c20       ??_C@_1M@MPNDHLFK@?$AAs?$AAw?$AA?9?$AAk?$AAe?$AA?$AA@ 0000000180044c20     LIBCMT:winapinls.obj
 0002:00005c30       ??_C@_1O@KOHBJJI@?$AAs?$AAy?$AAr?$AA?9?$AAs?$AAy?$AA?$AA@ 0000000180044c30     LIBCMT:winapinls.obj
 0002:00005c40       ??_C@_1M@LDCEFHA@?$AAt?$AAa?$AA?9?$AAi?$AAn?$AA?$AA@ 0000000180044c40     LIBCMT:winapinls.obj
 0002:00005c50       ??_C@_1M@CNJOFAK@?$AAt?$AAe?$AA?9?$AAi?$AAn?$AA?$AA@ 0000000180044c50     LIBCMT:winapinls.obj
 0002:00005c60       ??_C@_1M@GNAECACD@?$AAt?$AAh?$AA?9?$AAt?$AAh?$AA?$AA@ 0000000180044c60     LIBCMT:winapinls.obj
 0002:00005c70       ??_C@_1M@CHBIHOJO@?$AAt?$AAn?$AA?9?$AAz?$AAa?$AA?$AA@ 0000000180044c70     LIBCMT:winapinls.obj
 0002:00005c80       ??_C@_1M@GCCMIGPJ@?$AAt?$AAr?$AA?9?$AAt?$AAr?$AA?$AA@ 0000000180044c80     LIBCMT:winapinls.obj
 0002:00005c90       ??_C@_1M@CELMCNBK@?$AAt?$AAt?$AA?9?$AAr?$AAu?$AA?$AA@ 0000000180044c90     LIBCMT:winapinls.obj
 0002:00005ca0       ??_C@_1M@KLMCELGA@?$AAu?$AAk?$AA?9?$AAu?$AAa?$AA?$AA@ 0000000180044ca0     LIBCMT:winapinls.obj
 0002:00005cb0       ??_C@_1M@EPAJJAJF@?$AAu?$AAr?$AA?9?$AAp?$AAk?$AA?$AA@ 0000000180044cb0     LIBCMT:winapinls.obj
 0002:00005cc0       ??_C@_1BG@GEGPMCDJ@?$AAu?$AAz?$AA?9?$AAu?$AAz?$AA?9?$AAc?$AAy?$AAr?$AAl?$AA?$AA@ 0000000180044cc0     LIBCMT:winapinls.obj
 0002:00005cd8       ??_C@_1BG@EGGKJILM@?$AAu?$AAz?$AA?9?$AAu?$AAz?$AA?9?$AAl?$AAa?$AAt?$AAn?$AA?$AA@ 0000000180044cd8     LIBCMT:winapinls.obj
 0002:00005cf0       ??_C@_1M@GFOCLFF@?$AAv?$AAi?$AA?9?$AAv?$AAn?$AA?$AA@ 0000000180044cf0     LIBCMT:winapinls.obj
 0002:00005d00       ??_C@_1M@CPAMEDFI@?$AAx?$AAh?$AA?9?$AAz?$AAa?$AA?$AA@ 0000000180044d00     LIBCMT:winapinls.obj
 0002:00005d10       ??_C@_1O@EBKIFIGN@?$AAz?$AAh?$AA?9?$AAc?$AAh?$AAs?$AA?$AA@ 0000000180044d10     LIBCMT:winapinls.obj
 0002:00005d20       ??_C@_1O@NMHPGANE@?$AAz?$AAh?$AA?9?$AAc?$AAh?$AAt?$AA?$AA@ 0000000180044d20     LIBCMT:winapinls.obj
 0002:00005d30       ??_C@_1M@LPINJOMC@?$AAz?$AAh?$AA?9?$AAc?$AAn?$AA?$AA@ 0000000180044d30     LIBCMT:winapinls.obj
 0002:00005d40       ??_C@_1M@OCJEJODD@?$AAz?$AAh?$AA?9?$AAh?$AAk?$AA?$AA@ 0000000180044d40     LIBCMT:winapinls.obj
 0002:00005d50       ??_C@_1M@DNDLJINH@?$AAz?$AAh?$AA?9?$AAm?$AAo?$AA?$AA@ 0000000180044d50     LIBCMT:winapinls.obj
 0002:00005d60       ??_C@_1M@MBFDNDND@?$AAz?$AAh?$AA?9?$AAs?$AAg?$AA?$AA@ 0000000180044d60     LIBCMT:winapinls.obj
 0002:00005d70       ??_C@_1M@IMEPLEPE@?$AAz?$AAh?$AA?9?$AAt?$AAw?$AA?$AA@ 0000000180044d70     LIBCMT:winapinls.obj
 0002:00005d80       ??_C@_1M@BBGHNHJP@?$AAz?$AAu?$AA?9?$AAz?$AAa?$AA?$AA@ 0000000180044d80     LIBCMT:winapinls.obj
 0002:00005d8c       ??_C@_04EIAKFFMI@sqrt?$AA@ 0000000180044d8c     LIBCMT:sqrt.obj
 0002:00005d98       ??_C@_1BI@BGOHAHKC@?$AAm?$AAs?$AAc?$AAo?$AAr?$AAe?$AAe?$AA?4?$AAd?$AAl?$AAl?$AA?$AA@ 0000000180044d98     LIBCMT:crt0dat.obj
 0002:00005db0       ??_C@_0P@MIGLKIOC@CorExitProcess?$AA@ 0000000180044db0     LIBCMT:crt0dat.obj
 0002:00005dc0       ??_C@_06OJHGLDPL@?$CInull?$CJ?$AA@ 0000000180044dc0     LIBCMT:output.obj
 0002:00005dc8       ??_C@_1O@CEDCILHN@?$AA?$CI?$AAn?$AAu?$AAl?$AAl?$AA?$CJ?$AA?$AA@ 0000000180044dc8     LIBCMT:output.obj
 0002:00005de0       __lookuptable              0000000180044de0     LIBCMT:output.obj
 0002:00005fb0       ??_C@_1FK@PGACCAFB@?$AAR?$AA6?$AA0?$AA0?$AA2?$AA?$AN?$AA?6?$AA?9?$AA?5?$AAf?$AAl?$AAo?$AAa?$AAt?$AAi?$AAn?$AAg?$AA?5?$AAp?$AAo?$AAi?$AAn?$AAt?$AA?5?$AAs?$AAu?$AAp?$AAp?$AAo?$AAr?$AAt?$AA?5@ 0000000180044fb0     LIBCMT:crt0msg.obj
 0002:00006010       ??_C@_1FE@LLNEDJMD@?$AAR?$AA6?$AA0?$AA0?$AA8?$AA?$AN?$AA?6?$AA?9?$AA?5?$AAn?$AAo?$AAt?$AA?5?$AAe?$AAn?$AAo?$AAu?$AAg?$AAh?$AA?5?$AAs?$AAp?$AAa?$AAc?$AAe?$AA?5?$AAf?$AAo?$AAr?$AA?5?$AAa?$AAr@ 0000000180045010     LIBCMT:crt0msg.obj
 0002:00006070       ??_C@_1FI@HONFMGBI@?$AAR?$AA6?$AA0?$AA0?$AA9?$AA?$AN?$AA?6?$AA?9?$AA?5?$AAn?$AAo?$AAt?$AA?5?$AAe?$AAn?$AAo?$AAu?$AAg?$AAh?$AA?5?$AAs?$AAp?$AAa?$AAc?$AAe?$AA?5?$AAf?$AAo?$AAr?$AA?5?$AAe?$AAn@ 0000000180045070     LIBCMT:crt0msg.obj
 0002:000060d0       ??_C@_1EG@BEHAGFJD@?$AAR?$AA6?$AA0?$AA1?$AA0?$AA?$AN?$AA?6?$AA?9?$AA?5?$AAa?$AAb?$AAo?$AAr?$AAt?$AA?$CI?$AA?$CJ?$AA?5?$AAh?$AAa?$AAs?$AA?5?$AAb?$AAe?$AAe?$AAn?$AA?5?$AAc?$AAa?$AAl?$AAl?$AAe?$AAd@ 00000001800450d0     LIBCMT:crt0msg.obj
 0002:00006120       ??_C@_1FI@LOGNIKDM@?$AAR?$AA6?$AA0?$AA1?$AA6?$AA?$AN?$AA?6?$AA?9?$AA?5?$AAn?$AAo?$AAt?$AA?5?$AAe?$AAn?$AAo?$AAu?$AAg?$AAh?$AA?5?$AAs?$AAp?$AAa?$AAc?$AAe?$AA?5?$AAf?$AAo?$AAr?$AA?5?$AAt?$AAh@ 0000000180045120     LIBCMT:crt0msg.obj
 0002:00006180       ??_C@_1FK@BEOGODMC@?$AAR?$AA6?$AA0?$AA1?$AA7?$AA?$AN?$AA?6?$AA?9?$AA?5?$AAu?$AAn?$AAe?$AAx?$AAp?$AAe?$AAc?$AAt?$AAe?$AAd?$AA?5?$AAm?$AAu?$AAl?$AAt?$AAi?$AAt?$AAh?$AAr?$AAe?$AAa?$AAd?$AA?5@ 0000000180045180     LIBCMT:crt0msg.obj
 0002:000061e0       ??_C@_1EC@JIBHAOPH@?$AAR?$AA6?$AA0?$AA1?$AA8?$AA?$AN?$AA?6?$AA?9?$AA?5?$AAu?$AAn?$AAe?$AAx?$AAp?$AAe?$AAc?$AAt?$AAe?$AAd?$AA?5?$AAh?$AAe?$AAa?$AAp?$AA?5?$AAe?$AAr?$AAr?$AAo?$AAr?$AA?$AN?$AA?6@ 00000001800451e0     LIBCMT:crt0msg.obj
 0002:00006230       ??_C@_1FC@ECHBIFBC@?$AAR?$AA6?$AA0?$AA1?$AA9?$AA?$AN?$AA?6?$AA?9?$AA?5?$AAu?$AAn?$AAa?$AAb?$AAl?$AAe?$AA?5?$AAt?$AAo?$AA?5?$AAo?$AAp?$AAe?$AAn?$AA?5?$AAc?$AAo?$AAn?$AAs?$AAo?$AAl?$AAe?$AA?5@ 0000000180045230     LIBCMT:crt0msg.obj
 0002:00006290       ??_C@_1GK@FHCKBEFA@?$AAR?$AA6?$AA0?$AA2?$AA4?$AA?$AN?$AA?6?$AA?9?$AA?5?$AAn?$AAo?$AAt?$AA?5?$AAe?$AAn?$AAo?$AAu?$AAg?$AAh?$AA?5?$AAs?$AAp?$AAa?$AAc?$AAe?$AA?5?$AAf?$AAo?$AAr?$AA?5?$AA_?$AAo@ 0000000180045290     LIBCMT:crt0msg.obj
 0002:00006300       ??_C@_1EM@MAADIHMB@?$AAR?$AA6?$AA0?$AA2?$AA5?$AA?$AN?$AA?6?$AA?9?$AA?5?$AAp?$AAu?$AAr?$AAe?$AA?5?$AAv?$AAi?$AAr?$AAt?$AAu?$AAa?$AAl?$AA?5?$AAf?$AAu?$AAn?$AAc?$AAt?$AAi?$AAo?$AAn?$AA?5?$AAc@ 0000000180045300     LIBCMT:crt0msg.obj
 0002:00006350       ??_C@_1GK@MCAAGJMO@?$AAR?$AA6?$AA0?$AA2?$AA6?$AA?$AN?$AA?6?$AA?9?$AA?5?$AAn?$AAo?$AAt?$AA?5?$AAe?$AAn?$AAo?$AAu?$AAg?$AAh?$AA?5?$AAs?$AAp?$AAa?$AAc?$AAe?$AA?5?$AAf?$AAo?$AAr?$AA?5?$AAs?$AAt@ 0000000180045350     LIBCMT:crt0msg.obj
 0002:000063c0       ??_C@_1GK@MFGOKLAG@?$AAR?$AA6?$AA0?$AA2?$AA7?$AA?$AN?$AA?6?$AA?9?$AA?5?$AAn?$AAo?$AAt?$AA?5?$AAe?$AAn?$AAo?$AAu?$AAg?$AAh?$AA?5?$AAs?$AAp?$AAa?$AAc?$AAe?$AA?5?$AAf?$AAo?$AAr?$AA?5?$AAl?$AAo@ 00000001800453c0     LIBCMT:crt0msg.obj
 0002:00006430       ??_C@_1EK@HHFLMAOL@?$AAR?$AA6?$AA0?$AA2?$AA8?$AA?$AN?$AA?6?$AA?9?$AA?5?$AAu?$AAn?$AAa?$AAb?$AAl?$AAe?$AA?5?$AAt?$AAo?$AA?5?$AAi?$AAn?$AAi?$AAt?$AAi?$AAa?$AAl?$AAi?$AAz?$AAe?$AA?5?$AAh?$AAe@ 0000000180045430     LIBCMT:crt0msg.obj
 0002:00006480       ??_C@_1DO@BMFCDCD@?$AAR?$AA6?$AA0?$AA3?$AA0?$AA?$AN?$AA?6?$AA?9?$AA?5?$AAC?$AAR?$AAT?$AA?5?$AAn?$AAo?$AAt?$AA?5?$AAi?$AAn?$AAi?$AAt?$AAi?$AAa?$AAl?$AAi?$AAz?$AAe?$AAd?$AA?$AN?$AA?6?$AA?$AA@ 0000000180045480     LIBCMT:crt0msg.obj
 0002:000064c0       ??_C@_1MG@ENCOOIDF@?$AAR?$AA6?$AA0?$AA3?$AA1?$AA?$AN?$AA?6?$AA?9?$AA?5?$AAA?$AAt?$AAt?$AAe?$AAm?$AAp?$AAt?$AA?5?$AAt?$AAo?$AA?5?$AAi?$AAn?$AAi?$AAt?$AAi?$AAa?$AAl?$AAi?$AAz?$AAe?$AA?5?$AAt@ 00000001800454c0     LIBCMT:crt0msg.obj
 0002:00006590       ??_C@_1GG@GOPILAJP@?$AAR?$AA6?$AA0?$AA3?$AA2?$AA?$AN?$AA?6?$AA?9?$AA?5?$AAn?$AAo?$AAt?$AA?5?$AAe?$AAn?$AAo?$AAu?$AAg?$AAh?$AA?5?$AAs?$AAp?$AAa?$AAc?$AAe?$AA?5?$AAf?$AAo?$AAr?$AA?5?$AAl?$AAo@ 0000000180045590     LIBCMT:crt0msg.obj
 0002:00006600       ??_C@_1BOO@KGEDBGAJ@?$AAR?$AA6?$AA0?$AA3?$AA3?$AA?$AN?$AA?6?$AA?9?$AA?5?$AAA?$AAt?$AAt?$AAe?$AAm?$AAp?$AAt?$AA?5?$AAt?$AAo?$AA?5?$AAu?$AAs?$AAe?$AA?5?$AAM?$AAS?$AAI?$AAL?$AA?5?$AAc?$AAo?$AAd@ 0000000180045600     LIBCMT:crt0msg.obj
 0002:000067f0       ??_C@_1GG@MKFPEKFO@?$AAR?$AA6?$AA0?$AA3?$AA4?$AA?$AN?$AA?6?$AA?9?$AA?5?$AAi?$AAn?$AAc?$AAo?$AAn?$AAs?$AAi?$AAs?$AAt?$AAe?$AAn?$AAt?$AA?5?$AAo?$AAn?$AAe?$AAx?$AAi?$AAt?$AA?5?$AAb?$AAe?$AAg@ 00000001800457f0     LIBCMT:crt0msg.obj
 0002:00006858       ??_C@_1BO@BFCDCGC@?$AAD?$AAO?$AAM?$AAA?$AAI?$AAN?$AA?5?$AAe?$AAr?$AAr?$AAo?$AAr?$AA?$AN?$AA?6?$AA?$AA@ 0000000180045858     LIBCMT:crt0msg.obj
 0002:00006878       ??_C@_1BK@KMOMNAAI@?$AAS?$AAI?$AAN?$AAG?$AA?5?$AAe?$AAr?$AAr?$AAo?$AAr?$AA?$AN?$AA?6?$AA?$AA@ 0000000180045878     LIBCMT:crt0msg.obj
 0002:00006898       ??_C@_1BM@JBBEPPHI@?$AAT?$AAL?$AAO?$AAS?$AAS?$AA?5?$AAe?$AAr?$AAr?$AAo?$AAr?$AA?$AN?$AA?6?$AA?$AA@ 0000000180045898     LIBCMT:crt0msg.obj
 0002:000068b4       ??_C@_15JNBOKNOG@?$AA?$AN?$AA?6?$AA?$AA@ 00000001800458b4     LIBCMT:crt0msg.obj
 0002:000068c0       ??_C@_1BO@BKOMIGKJ@?$AAr?$AAu?$AAn?$AAt?$AAi?$AAm?$AAe?$AA?5?$AAe?$AAr?$AAr?$AAo?$AAr?$AA?5?$AA?$AA@ 00000001800458c0     LIBCMT:crt0msg.obj
 0002:000068e0       ??_C@_1DE@JNGNBFGO@?$AAR?$AAu?$AAn?$AAt?$AAi?$AAm?$AAe?$AA?5?$AAE?$AAr?$AAr?$AAo?$AAr?$AA?$CB?$AA?6?$AA?6?$AAP?$AAr?$AAo?$AAg?$AAr?$AAa?$AAm?$AA?3?$AA?5?$AA?$AA@ 00000001800458e0     LIBCMT:crt0msg.obj
 0002:00006914       ??_C@_03KOEHGMDN@Sun?$AA@  0000000180045914     LIBCMT:nlsdata.obj
 0002:00006918       ??_C@_03PDAGKDH@Mon?$AA@   0000000180045918     LIBCMT:nlsdata.obj
 0002:0000691c       ??_C@_03NAGEINEP@Tue?$AA@  000000018004591c     LIBCMT:nlsdata.obj
 0002:00006920       ??_C@_03MHOMLAJA@Wed?$AA@  0000000180045920     LIBCMT:nlsdata.obj
 0002:00006924       ??_C@_03IOFIKPDN@Thu?$AA@  0000000180045924     LIBCMT:nlsdata.obj
 0002:00006928       ??_C@_03IDIOELNC@Fri?$AA@  0000000180045928     LIBCMT:nlsdata.obj
 0002:0000692c       ??_C@_03FEFJNEK@Sat?$AA@   000000018004592c     LIBCMT:nlsdata.obj
 0002:00006930       ??_C@_06OOPIFAJ@Sunday?$AA@ 0000000180045930     LIBCMT:nlsdata.obj
 0002:00006938       ??_C@_06JLEDEDGH@Monday?$AA@ 0000000180045938     LIBCMT:nlsdata.obj
 0002:00006940       ??_C@_07BAAGCFCM@Tuesday?$AA@ 0000000180045940     LIBCMT:nlsdata.obj
 0002:00006948       ??_C@_09DLIGFAKA@Wednesday?$AA@ 0000000180045948     LIBCMT:nlsdata.obj
 0002:00006958       ??_C@_08HACCIKIA@Thursday?$AA@ 0000000180045958     LIBCMT:nlsdata.obj
 0002:00006964       ??_C@_06JECMNKMI@Friday?$AA@ 0000000180045964     LIBCMT:nlsdata.obj
 0002:00006970       ??_C@_08INBOOONO@Saturday?$AA@ 0000000180045970     LIBCMT:nlsdata.obj
 0002:0000697c       ??_C@_03JIHJHPIE@Jan?$AA@  000000018004597c     LIBCMT:nlsdata.obj
 0002:00006980       ??_C@_03HJBDCHOM@Feb?$AA@  0000000180045980     LIBCMT:nlsdata.obj
 0002:00006984       ??_C@_03ODNJBKGA@Mar?$AA@  0000000180045984     LIBCMT:nlsdata.obj
 0002:00006988       ??_C@_03LEOLGMJP@Apr?$AA@  0000000180045988     LIBCMT:nlsdata.obj
 0002:0000698c       ??_C@_03CNMDKL@May?$AA@    000000018004598c     LIBCMT:nlsdata.obj
 0002:00006990       ??_C@_03IDFGHECI@Jun?$AA@  0000000180045990     LIBCMT:nlsdata.obj
 0002:00006994       ??_C@_03LBGABGKK@Jul?$AA@  0000000180045994     LIBCMT:nlsdata.obj
 0002:00006998       ??_C@_03IFJFEIGA@Aug?$AA@  0000000180045998     LIBCMT:nlsdata.obj
 0002:0000699c       ??_C@_03GGCAPAJC@Sep?$AA@  000000018004599c     LIBCMT:nlsdata.obj
 0002:000069a0       ??_C@_03BMAOKBAD@Oct?$AA@  00000001800459a0     LIBCMT:nlsdata.obj
 0002:000069a4       ??_C@_03JPJOFNIA@Nov?$AA@  00000001800459a4     LIBCMT:nlsdata.obj
 0002:000069a8       ??_C@_03MKABNOCG@Dec?$AA@  00000001800459a8     LIBCMT:nlsdata.obj
 0002:000069b0       ??_C@_07CGJPFGJA@January?$AA@ 00000001800459b0     LIBCMT:nlsdata.obj
 0002:000069b8       ??_C@_08GNJGEPFN@February?$AA@ 00000001800459b8     LIBCMT:nlsdata.obj
 0002:000069c4       ??_C@_05HPCKOFNC@March?$AA@ 00000001800459c4     LIBCMT:nlsdata.obj
 0002:000069cc       ??_C@_05DMJDNLEJ@April?$AA@ 00000001800459cc     LIBCMT:nlsdata.obj
 0002:000069d4       ??_C@_04CNLMGBGM@June?$AA@ 00000001800459d4     LIBCMT:nlsdata.obj
 0002:000069dc       ??_C@_04MIEPOIFP@July?$AA@ 00000001800459dc     LIBCMT:nlsdata.obj
 0002:000069e4       ??_C@_06LBBHFDDG@August?$AA@ 00000001800459e4     LIBCMT:nlsdata.obj
 0002:000069f0       ??_C@_09BHHEALKD@September?$AA@ 00000001800459f0     LIBCMT:nlsdata.obj
 0002:00006a00       ??_C@_07JJNFCEND@October?$AA@ 0000000180045a00     LIBCMT:nlsdata.obj
 0002:00006a08       ??_C@_08HCHEGEOA@November?$AA@ 0000000180045a08     LIBCMT:nlsdata.obj
 0002:00006a18       ??_C@_08EDHMEBNP@December?$AA@ 0000000180045a18     LIBCMT:nlsdata.obj
 0002:00006a24       ??_C@_02DEDBPAFC@AM?$AA@   0000000180045a24     LIBCMT:nlsdata.obj
 0002:00006a28       ??_C@_02CJNFDJBF@PM?$AA@   0000000180045a28     LIBCMT:nlsdata.obj
 0002:00006a30       ??_C@_08BPBNCDIB@MM?1dd?1yy?$AA@ 0000000180045a30     LIBCMT:nlsdata.obj
 0002:00006a40       ??_C@_0BE@CKGJFCPC@dddd?0?5MMMM?5dd?0?5yyyy?$AA@ 0000000180045a40     LIBCMT:nlsdata.obj
 0002:00006a58       ??_C@_08JCCMCCIL@HH?3mm?3ss?$AA@ 0000000180045a58     LIBCMT:nlsdata.obj
 0002:00006a68       ??_C@_17MBGCMIPB@?$AAS?$AAu?$AAn?$AA?$AA@ 0000000180045a68     LIBCMT:nlsdata.obj
 0002:00006a70       ??_C@_17KBOMKBF@?$AAM?$AAo?$AAn?$AA?$AA@ 0000000180045a70     LIBCMT:nlsdata.obj
 0002:00006a78       ??_C@_17BMKGEGOJ@?$AAT?$AAu?$AAe?$AA?$AA@ 0000000180045a78     LIBCMT:nlsdata.obj
 0002:00006a80       ??_C@_17CJEDCEPE@?$AAW?$AAe?$AAd?$AA?$AA@ 0000000180045a80     LIBCMT:nlsdata.obj
 0002:00006a88       ??_C@_17PDPHAADD@?$AAT?$AAh?$AAu?$AA?$AA@ 0000000180045a88     LIBCMT:nlsdata.obj
 0002:00006a90       ??_C@_17HFOLPPLP@?$AAF?$AAr?$AAi?$AA?$AA@ 0000000180045a90     LIBCMT:nlsdata.obj
 0002:00006a98       ??_C@_17GGIBDPIH@?$AAS?$AAa?$AAt?$AA?$AA@ 0000000180045a98     LIBCMT:nlsdata.obj
 0002:00006aa0       ??_C@_1O@IHNHDHPB@?$AAS?$AAu?$AAn?$AAd?$AAa?$AAy?$AA?$AA@ 0000000180045aa0     LIBCMT:nlsdata.obj
 0002:00006ab0       ??_C@_1O@MMNBFLIA@?$AAM?$AAo?$AAn?$AAd?$AAa?$AAy?$AA?$AA@ 0000000180045ab0     LIBCMT:nlsdata.obj
 0002:00006ac0       ??_C@_1BA@ENFBFFEK@?$AAT?$AAu?$AAe?$AAs?$AAd?$AAa?$AAy?$AA?$AA@ 0000000180045ac0     LIBCMT:nlsdata.obj
 0002:00006ad0       ??_C@_1BE@EBOGMDOH@?$AAW?$AAe?$AAd?$AAn?$AAe?$AAs?$AAd?$AAa?$AAy?$AA?$AA@ 0000000180045ad0     LIBCMT:nlsdata.obj
 0002:00006ae8       ??_C@_1BC@HHMNLIHE@?$AAT?$AAh?$AAu?$AAr?$AAs?$AAd?$AAa?$AAy?$AA?$AA@ 0000000180045ae8     LIBCMT:nlsdata.obj
 0002:00006b00       ??_C@_1O@PDICJHAG@?$AAF?$AAr?$AAi?$AAd?$AAa?$AAy?$AA?$AA@ 0000000180045b00     LIBCMT:nlsdata.obj
 0002:00006b10       ??_C@_1BC@ENMNNPAJ@?$AAS?$AAa?$AAt?$AAu?$AAr?$AAd?$AAa?$AAy?$AA?$AA@ 0000000180045b10     LIBCMT:nlsdata.obj
 0002:00006b28       ??_C@_17DKNBKCHM@?$AAJ?$AAa?$AAn?$AA?$AA@ 0000000180045b28     LIBCMT:nlsdata.obj
 0002:00006b30       ??_C@_17LMDJEKJN@?$AAF?$AAe?$AAb?$AA?$AA@ 0000000180045b30     LIBCMT:nlsdata.obj
 0002:00006b38       ??_C@_17CKNLEDEC@?$AAM?$AAa?$AAr?$AA?$AA@ 0000000180045b38     LIBCMT:nlsdata.obj
 0002:00006b40       ??_C@_17LFPOIHDD@?$AAA?$AAp?$AAr?$AA?$AA@ 0000000180045b40     LIBCMT:nlsdata.obj
 0002:00006b48       ??_C@_17PNNKMEED@?$AAM?$AAa?$AAy?$AA?$AA@ 0000000180045b48     LIBCMT:nlsdata.obj
 0002:00006b50       ??_C@_17KCJGOCPB@?$AAJ?$AAu?$AAn?$AA?$AA@ 0000000180045b50     LIBCMT:nlsdata.obj
 0002:00006b58       ??_C@_17IJPCKHK@?$AAJ?$AAu?$AAl?$AA?$AA@ 0000000180045b58     LIBCMT:nlsdata.obj
 0002:00006b60       ??_C@_17ICPELBCN@?$AAA?$AAu?$AAg?$AA?$AA@ 0000000180045b60     LIBCMT:nlsdata.obj
 0002:00006b68       ??_C@_17HCHCOKMG@?$AAS?$AAe?$AAp?$AA?$AA@ 0000000180045b68     LIBCMT:nlsdata.obj
 0002:00006b70       ??_C@_17FNLKOI@?$AAO?$AAc?$AAt?$AA?$AA@ 0000000180045b70     LIBCMT:nlsdata.obj
 0002:00006b78       ??_C@_17BBDMLCIG@?$AAN?$AAo?$AAv?$AA?$AA@ 0000000180045b78     LIBCMT:nlsdata.obj
 0002:00006b80       ??_C@_17EGKACKIF@?$AAD?$AAe?$AAc?$AA?$AA@ 0000000180045b80     LIBCMT:nlsdata.obj
 0002:00006b88       ??_C@_1BA@EFMEIEBA@?$AAJ?$AAa?$AAn?$AAu?$AAa?$AAr?$AAy?$AA?$AA@ 0000000180045b88     LIBCMT:nlsdata.obj
 0002:00006b98       ??_C@_1BC@JGDDFFAM@?$AAF?$AAe?$AAb?$AAr?$AAu?$AAa?$AAr?$AAy?$AA?$AA@ 0000000180045b98     LIBCMT:nlsdata.obj
 0002:00006bb0       ??_C@_1M@IKEENEDF@?$AAM?$AAa?$AAr?$AAc?$AAh?$AA?$AA@ 0000000180045bb0     LIBCMT:nlsdata.obj
 0002:00006bc0       ??_C@_1M@GJNLMHFD@?$AAA?$AAp?$AAr?$AAi?$AAl?$AA?$AA@ 0000000180045bc0     LIBCMT:nlsdata.obj
 0002:00006bd0       ??_C@_19EPFLPGAP@?$AAJ?$AAu?$AAn?$AAe?$AA?$AA@ 0000000180045bd0     LIBCMT:nlsdata.obj
 0002:00006be0       ??_C@_19BIFMLPCD@?$AAJ?$AAu?$AAl?$AAy?$AA?$AA@ 0000000180045be0     LIBCMT:nlsdata.obj
 0002:00006bf0       ??_C@_1O@PAHLKOAC@?$AAA?$AAu?$AAg?$AAu?$AAs?$AAt?$AA?$AA@ 0000000180045bf0     LIBCMT:nlsdata.obj
 0002:00006c00       ??_C@_1BE@DKAAMBJL@?$AAS?$AAe?$AAp?$AAt?$AAe?$AAm?$AAb?$AAe?$AAr?$AA?$AA@ 0000000180045c00     LIBCMT:nlsdata.obj
 0002:00006c18       ??_C@_1BA@EPANDLNG@?$AAO?$AAc?$AAt?$AAo?$AAb?$AAe?$AAr?$AA?$AA@ 0000000180045c18     LIBCMT:nlsdata.obj
 0002:00006c28       ??_C@_1BC@BGLIFPF@?$AAN?$AAo?$AAv?$AAe?$AAm?$AAb?$AAe?$AAr?$AA?$AA@ 0000000180045c28     LIBCMT:nlsdata.obj
 0002:00006c40       ??_C@_1BC@FEMKIFH@?$AAD?$AAe?$AAc?$AAe?$AAm?$AAb?$AAe?$AAr?$AA?$AA@ 0000000180045c40     LIBCMT:nlsdata.obj
 0002:00006c54       ??_C@_15ODEHAHHF@?$AAA?$AAM?$AA?$AA@ 0000000180045c54     LIBCMT:nlsdata.obj
 0002:00006c5c       ??_C@_15CLMNNGEL@?$AAP?$AAM?$AA?$AA@ 0000000180045c5c     LIBCMT:nlsdata.obj
 0002:00006c68       ??_C@_1BC@IEBCMHCM@?$AAM?$AAM?$AA?1?$AAd?$AAd?$AA?1?$AAy?$AAy?$AA?$AA@ 0000000180045c68     LIBCMT:nlsdata.obj
 0002:00006c80       ??_C@_1CI@KNAKOEBC@?$AAd?$AAd?$AAd?$AAd?$AA?0?$AA?5?$AAM?$AAM?$AAM?$AAM?$AA?5?$AAd?$AAd?$AA?0?$AA?5?$AAy?$AAy?$AAy?$AAy?$AA?$AA@ 0000000180045c80     LIBCMT:nlsdata.obj
 0002:00006ca8       ??_C@_1BC@GDGBMEMK@?$AAH?$AAH?$AA?3?$AAm?$AAm?$AA?3?$AAs?$AAs?$AA?$AA@ 0000000180045ca8     LIBCMT:nlsdata.obj
 0002:00006cc0       ??_C@_1BG@GOEBHBDC@?$AAU?$AAS?$AAE?$AAR?$AA3?$AA2?$AA?4?$AAD?$AAL?$AAL?$AA?$AA@ 0000000180045cc0     LIBCMT:crtmboxw.obj
 0002:00006cd8       ??_C@_0M@DLDCCGNP@MessageBoxW?$AA@ 0000000180045cd8     LIBCMT:crtmboxw.obj
 0002:00006ce8       ??_C@_0BA@HNOPNCHB@GetActiveWindow?$AA@ 0000000180045ce8     LIBCMT:crtmboxw.obj
 0002:00006cf8       ??_C@_0BD@HHGDFDBJ@GetLastActivePopup?$AA@ 0000000180045cf8     LIBCMT:crtmboxw.obj
 0002:00006d10       ??_C@_0BK@DEKFELLI@GetUserObjectInformationW?$AA@ 0000000180045d10     LIBCMT:crtmboxw.obj
 0002:00006d30       ??_C@_0BI@DFKBFLJE@GetProcessWindowStation?$AA@ 0000000180045d30     LIBCMT:crtmboxw.obj
 0002:00006d70       __lc_category              0000000180045d70     LIBCMT:wsetloca.obj
 0002:00006e00       ??_C@_1O@GIFLHMA@?$AAL?$AAC?$AA_?$AAA?$AAL?$AAL?$AA?$AA@ 0000000180045e00     LIBCMT:wsetloca.obj
 0002:00006e10       ??_C@_1BG@PPOMIBNJ@?$AAL?$AAC?$AA_?$AAC?$AAO?$AAL?$AAL?$AAA?$AAT?$AAE?$AA?$AA@ 0000000180045e10     LIBCMT:wsetloca.obj
 0002:00006e28       ??_C@_1BC@FFJGAPJM@?$AAL?$AAC?$AA_?$AAC?$AAT?$AAY?$AAP?$AAE?$AA?$AA@ 0000000180045e28     LIBCMT:wsetloca.obj
 0002:00006e40       ??_C@_1BI@PCKFNJFB@?$AAL?$AAC?$AA_?$AAM?$AAO?$AAN?$AAE?$AAT?$AAA?$AAR?$AAY?$AA?$AA@ 0000000180045e40     LIBCMT:wsetloca.obj
 0002:00006e58       ??_C@_1BG@ENIEDKID@?$AAL?$AAC?$AA_?$AAN?$AAU?$AAM?$AAE?$AAR?$AAI?$AAC?$AA?$AA@ 0000000180045e58     LIBCMT:wsetloca.obj
 0002:00006e70       ??_C@_1BA@HAAOMIIG@?$AAL?$AAC?$AA_?$AAT?$AAI?$AAM?$AAE?$AA?$AA@ 0000000180045e70     LIBCMT:wsetloca.obj
 0002:00006f00       ??_C@_15NBPDDFIP@?$AA?$DN?$AA?$DL?$AA?$AA@ 0000000180045f00     LIBCMT:wsetloca.obj
 0002:00006f08       ??_C@_13PJJBFPED@?$AA?$DL?$AA?$AA@ 0000000180045f08     LIBCMT:wsetloca.obj
 0002:00006f0c       ??_C@_13NMPKAAJP@?$AA?$DN?$AA?$AA@ 0000000180045f0c     LIBCMT:wsetloca.obj
 0002:00006f10       ??_C@_13FHBKNHDA@?$AAC?$AA?$AA@ 0000000180045f10     LIBCMT:wsetloca.obj
 0002:00006f18       ??_C@_17MBJJLFDM@?$AA_?$AA?4?$AA?0?$AA?$AA@ 0000000180045f18     LIBCMT:wsetloca.obj
 0002:00006f20       ??_C@_13ENNFDPBH@?$AA_?$AA?$AA@ 0000000180045f20     LIBCMT:wsetloca.obj
 0002:00006f24       ??_C@_13JOFGPIOO@?$AA?4?$AA?$AA@ 0000000180045f24     LIBCMT:wsetloca.obj
 0002:00006f30       _XcptActTab                0000000180045f30     LIBCMT:winxfltr.obj
 0002:00006ff0       _XcptActTabCount           0000000180045ff0     LIBCMT:winxfltr.obj
 0002:00006ff4       _XcptActTabSize            0000000180045ff4     LIBCMT:winxfltr.obj
 0002:00006ff8       _First_FPE_Indx            0000000180045ff8     LIBCMT:winxfltr.obj
 0002:00006ffc       _Num_FPE                   0000000180045ffc     LIBCMT:winxfltr.obj
 0002:00007000       _pDestructExceptionObject  0000000180046000     LIBCMT:frame.obj
 0002:00007010       ??_7bad_exception@std@@6B@ 0000000180046010     LIBCMT:frame.obj
 0002:00007020       ??_C@_0O@DPKOEFFH@bad?5exception?$AA@ 0000000180046020     LIBCMT:frame.obj
 0002:00007030       ??_C@_05KLBDPFGC@e?$CL000?$AA@ 0000000180046030     LIBCMT:cvt.obj
 0002:00007038       ??_C@_03KHJOGHMM@exp?$AA@  0000000180046038     LIBCMT:fpexcept.obj
 0002:0000703c       ??_C@_03JGHBODFD@pow?$AA@  000000018004603c     LIBCMT:fpexcept.obj
 0002:00007040       ??_C@_03MGHMBJCF@log?$AA@  0000000180046040     LIBCMT:fpexcept.obj
 0002:00007044       ??_C@_05HGHHAHAP@log10?$AA@ 0000000180046044     LIBCMT:fpexcept.obj
 0002:0000704c       ??_C@_04COOMCNPB@sinh?$AA@ 000000018004604c     LIBCMT:fpexcept.obj
 0002:00007054       ??_C@_04HPJJNFIM@cosh?$AA@ 0000000180046054     LIBCMT:fpexcept.obj
 0002:0000705c       ??_C@_04FJHINJAO@tanh?$AA@ 000000018004605c     LIBCMT:fpexcept.obj
 0002:00007064       ??_C@_04FIHNOPOL@asin?$AA@ 0000000180046064     LIBCMT:fpexcept.obj
 0002:0000706c       ??_C@_04PDIFKINK@acos?$AA@ 000000018004606c     LIBCMT:fpexcept.obj
 0002:00007074       ??_C@_04MLLJIGOK@atan?$AA@ 0000000180046074     LIBCMT:fpexcept.obj
 0002:0000707c       ??_C@_05KNGEOGJB@atan2?$AA@ 000000018004607c     LIBCMT:fpexcept.obj
 0002:00007084       ??_C@_03BLEJJJBH@sin?$AA@  0000000180046084     LIBCMT:fpexcept.obj
 0002:00007088       ??_C@_03LALBNOCG@cos?$AA@  0000000180046088     LIBCMT:fpexcept.obj
 0002:0000708c       ??_C@_03IIINPABG@tan?$AA@  000000018004608c     LIBCMT:fpexcept.obj
 0002:00007090       ??_C@_04GFPJNGEK@ceil?$AA@ 0000000180046090     LIBCMT:fpexcept.obj
 0002:00007098       ??_C@_05PBJFFIGL@floor?$AA@ 0000000180046098     LIBCMT:fpexcept.obj
 0002:000070a0       ??_C@_04ODHECPBC@fabs?$AA@ 00000001800460a0     LIBCMT:fpexcept.obj
 0002:000070a8       ??_C@_04EHEDPDJG@modf?$AA@ 00000001800460a8     LIBCMT:fpexcept.obj
 0002:000070b0       ??_C@_05CEJMAHNP@ldexp?$AA@ 00000001800460b0     LIBCMT:fpexcept.obj
 0002:000070b8       ??_C@_05KBKMEMPO@_cabs?$AA@ 00000001800460b8     LIBCMT:fpexcept.obj
 0002:000070c0       ??_C@_04KEPJIHGP@fmod?$AA@ 00000001800460c0     LIBCMT:fpexcept.obj
 0002:000070c8       ??_C@_05GKKHEGJL@frexp?$AA@ 00000001800460c8     LIBCMT:fpexcept.obj
 0002:000070d0       ??_C@_03MJLDFKDL@_y0?$AA@  00000001800460d0     LIBCMT:fpexcept.obj
 0002:000070d4       ??_C@_03NAKIGLHK@_y1?$AA@  00000001800460d4     LIBCMT:fpexcept.obj
 0002:000070d8       ??_C@_03ONILCKOB@_yn?$AA@  00000001800460d8     LIBCMT:fpexcept.obj
 0002:000070dc       ??_C@_05JGDBENOH@_logb?$AA@ 00000001800460dc     LIBCMT:fpexcept.obj
 0002:000070e8       ??_C@_0L@KDOEJCKC@_nextafter?$AA@ 00000001800460e8     LIBCMT:fpexcept.obj
 0002:000070f8       __dnames                   00000001800460f8     LIBCMT:timeset.obj
 0002:00007110       __mnames                   0000000180046110     LIBCMT:timeset.obj
 0002:00007140       __lookuptable_s            0000000180046140     LIBCMT:outputs.obj
 0002:000074c8       ??_C@_08EHJDFFNH@__based?$CI?$AA@ 00000001800464c8     LIBCMT:undname.obj
 0002:000074d8       ??_C@_07KOLFKCDI@__cdecl?$AA@ 00000001800464d8     LIBCMT:undname.obj
 0002:000074e0       ??_C@_08GHMPAG@__pascal?$AA@ 00000001800464e0     LIBCMT:undname.obj
 0002:000074f0       ??_C@_09IFJBGAPI@__stdcall?$AA@ 00000001800464f0     LIBCMT:undname.obj
 0002:00007500       ??_C@_0L@NPHFGOKO@__thiscall?$AA@ 0000000180046500     LIBCMT:undname.obj
 0002:00007510       ??_C@_0L@JMKHOMEK@__fastcall?$AA@ 0000000180046510     LIBCMT:undname.obj
 0002:00007520       ??_C@_0N@BCKKPABJ@__vectorcall?$AA@ 0000000180046520     LIBCMT:undname.obj
 0002:00007530       ??_C@_09HIJEGCPM@__clrcall?$AA@ 0000000180046530     LIBCMT:undname.obj
 0002:0000753c       ??_C@_06GHPCKEAG@__eabi?$AA@ 000000018004653c     LIBCMT:undname.obj
 0002:00007548       ??_C@_07JOMMBBKO@__ptr64?$AA@ 0000000180046548     LIBCMT:undname.obj
 0002:00007550       ??_C@_0L@PILCLIHE@__restrict?$AA@ 0000000180046550     LIBCMT:undname.obj
 0002:00007560       ??_C@_0M@GFIIJFMG@__unaligned?$AA@ 0000000180046560     LIBCMT:undname.obj
 0002:00007570       ??_C@_09DHDLOLLB@restrict?$CI?$AA@ 0000000180046570     LIBCMT:undname.obj
 0002:0000757c       ??_C@_04NIHEBCM@?5new?$AA@ 000000018004657c     LIBCMT:undname.obj
 0002:00007588       ??_C@_07FPCDHGMM@?5delete?$AA@ 0000000180046588     LIBCMT:undname.obj
 0002:00007590       ??_C@_01NEMOKFLO@?$DN?$AA@ 0000000180046590     LIBCMT:undname.obj
 0002:00007594       ??_C@_02GPIOPFAK@?$DO?$DO?$AA@ 0000000180046594     LIBCMT:undname.obj
 0002:00007598       ??_C@_02FODMEDOG@?$DM?$DM?$AA@ 0000000180046598     LIBCMT:undname.obj
 0002:0000759c       ??_C@_01DCLJPIOD@?$CB?$AA@ 000000018004659c     LIBCMT:undname.obj
 0002:000075a0       ??_C@_02EGOFBIJA@?$DN?$DN?$AA@ 00000001800465a0     LIBCMT:undname.obj
 0002:000075a4       ??_C@_02FDNJECIE@?$CB?$DN?$AA@ 00000001800465a4     LIBCMT:undname.obj
 0002:000075a8       ??_C@_02GPECMEKF@?$FL?$FN?$AA@ 00000001800465a8     LIBCMT:undname.obj
 0002:000075b0       ??_C@_08LHJFAFGD@operator?$AA@ 00000001800465b0     LIBCMT:undname.obj
 0002:000075bc       ??_C@_02HBOOOICD@?9?$DO?$AA@ 00000001800465bc     LIBCMT:undname.obj
 0002:000075c0       ??_C@_02ECNGHCIF@?$CL?$CL?$AA@ 00000001800465c0     LIBCMT:undname.obj
 0002:000075c4       ??_C@_02BAABKJLB@?9?9?$AA@ 00000001800465c4     LIBCMT:undname.obj
 0002:000075c8       ??_C@_01MIFGBAGJ@?$CL?$AA@ 00000001800465c8     LIBCMT:undname.obj
 0002:000075cc       ??_C@_01HNPIGOCE@?$CG?$AA@ 00000001800465cc     LIBCMT:undname.obj
 0002:000075d0       ??_C@_03MNHNFDLC@?9?$DO?$CK?$AA@ 00000001800465d0     LIBCMT:undname.obj
 0002:000075d4       ??_C@_01KMDKNFGN@?1?$AA@   00000001800465d4     LIBCMT:undname.obj
 0002:000075d8       ??_C@_01FGNFDNOH@?$CF?$AA@ 00000001800465d8     LIBCMT:undname.obj
 0002:000075dc       ??_C@_01MNNFJEPP@?$DM?$AA@ 00000001800465dc     LIBCMT:undname.obj
 0002:000075e0       ??_C@_02EHCHHCKH@?$DM?$DN?$AA@ 00000001800465e0     LIBCMT:undname.obj
 0002:000075e4       ??_C@_01PPODPGHN@?$DO?$AA@ 00000001800465e4     LIBCMT:undname.obj
 0002:000075e8       ??_C@_02EEKDKGMJ@?$DO?$DN?$AA@ 00000001800465e8     LIBCMT:undname.obj
 0002:000075ec       ??_C@_01IHBHIGKO@?0?$AA@   00000001800465ec     LIBCMT:undname.obj
 0002:000075f0       ??_C@_02HCKGKOFO@?$CI?$CJ?$AA@ 00000001800465f0     LIBCMT:undname.obj
 0002:000075f4       ??_C@_01PJKLJHI@?$HO?$AA@  00000001800465f4     LIBCMT:undname.obj
 0002:000075f8       ??_C@_01JKBOJNNK@?$FO?$AA@ 00000001800465f8     LIBCMT:undname.obj
 0002:000075fc       ??_C@_01DNKMNLPK@?$HM?$AA@ 00000001800465fc     LIBCMT:undname.obj
 0002:00007600       ??_C@_02PPKAJPJL@?$CG?$CG?$AA@ 0000000180046600     LIBCMT:undname.obj
 0002:00007604       ??_C@_02NONPIBCD@?$HM?$HM?$AA@ 0000000180046604     LIBCMT:undname.obj
 0002:00007608       ??_C@_02FPIMKNGF@?$CK?$DN?$AA@ 0000000180046608     LIBCMT:undname.obj
 0002:0000760c       ??_C@_02FOEOMHFC@?$CL?$DN?$AA@ 000000018004660c     LIBCMT:undname.obj
 0002:00007610       ??_C@_02FKMDLLOA@?9?$DN?$AA@ 0000000180046610     LIBCMT:undname.obj
 0002:00007614       ??_C@_02FJEHGPIO@?1?$DN?$AA@ 0000000180046614     LIBCMT:undname.obj
 0002:00007618       ??_C@_02FENAOKFI@?$CF?$DN?$AA@ 0000000180046618     LIBCMT:undname.obj
 0002:0000761c       ??_C@_03IKFCCPFF@?$DO?$DO?$DN?$AA@ 000000018004661c     LIBCMT:undname.obj
 0002:00007620       ??_C@_03CDNPDDLA@?$DM?$DM?$DN?$AA@ 0000000180046620     LIBCMT:undname.obj
 0002:00007624       ??_C@_02FGJGFEAB@?$CG?$DN?$AA@ 0000000180046624     LIBCMT:undname.obj
 0002:00007628       ??_C@_02DHLNPPGH@?$HM?$DN?$AA@ 0000000180046628     LIBCMT:undname.obj
 0002:0000762c       ??_C@_02MHEGNOJ@?$FO?$DN?$AA@ 000000018004662c     LIBCMT:undname.obj
 0002:00007630       ??_C@_09IFPLHPGF@?$GAvftable?8?$AA@ 0000000180046630     LIBCMT:undname.obj
 0002:00007640       ??_C@_09BLBHBJP@?$GAvbtable?8?$AA@ 0000000180046640     LIBCMT:undname.obj
 0002:00007650       ??_C@_07FEEIOKP@?$GAvcall?8?$AA@ 0000000180046650     LIBCMT:undname.obj
 0002:00007658       ??_C@_08LLFFHHDJ@?$GAtypeof?8?$AA@ 0000000180046658     LIBCMT:undname.obj
 0002:00007668       ??_C@_0BF@KDPPACIK@?$GAlocal?5static?5guard?8?$AA@ 0000000180046668     LIBCMT:undname.obj
 0002:00007680       ??_C@_08OBABFOLI@?$GAstring?8?$AA@ 0000000180046680     LIBCMT:undname.obj
 0002:00007690       ??_C@_0BD@JDLKDPAB@?$GAvbase?5destructor?8?$AA@ 0000000180046690     LIBCMT:undname.obj
 0002:000076a8       ??_C@_0BN@DEGPLNFK@?$GAvector?5deleting?5destructor?8?$AA@ 00000001800466a8     LIBCMT:undname.obj
 0002:000076c8       ??_C@_0BO@OBMKPJIG@?$GAdefault?5constructor?5closure?8?$AA@ 00000001800466c8     LIBCMT:undname.obj
 0002:000076e8       ??_C@_0BN@IMDCHIKM@?$GAscalar?5deleting?5destructor?8?$AA@ 00000001800466e8     LIBCMT:undname.obj
 0002:00007708       ??_C@_0BO@PFGOCPJJ@?$GAvector?5constructor?5iterator?8?$AA@ 0000000180046708     LIBCMT:undname.obj
 0002:00007728       ??_C@_0BN@LFPFMEDL@?$GAvector?5destructor?5iterator?8?$AA@ 0000000180046728     LIBCMT:undname.obj
 0002:00007748       ??_C@_0CE@IKBNEHA@?$GAvector?5vbase?5constructor?5iterat@ 0000000180046748     LIBCMT:undname.obj
 0002:00007770       ??_C@_0BL@NILFHHPC@?$GAvirtual?5displacement?5map?8?$AA@ 0000000180046770     LIBCMT:undname.obj
 0002:00007790       ??_C@_0CB@JONCMFFK@?$GAeh?5vector?5constructor?5iterator?8@ 0000000180046790     LIBCMT:undname.obj
 0002:000077b8       ??_C@_0CA@GCEOPDGL@?$GAeh?5vector?5destructor?5iterator?8?$AA@ 00000001800467b8     LIBCMT:undname.obj
 0002:000077d8       ??_C@_0CH@OOJPLCPH@?$GAeh?5vector?5vbase?5constructor?5ite@ 00000001800467d8     LIBCMT:undname.obj
 0002:00007800       ??_C@_0BL@LLKPOHJI@?$GAcopy?5constructor?5closure?8?$AA@ 0000000180046800     LIBCMT:undname.obj
 0002:00007820       ??_C@_0BA@KBCDOMBN@?$GAudt?5returning?8?$AA@ 0000000180046820     LIBCMT:undname.obj
 0002:00007830       ??_C@_03KLGMFNMG@?$GAEH?$AA@ 0000000180046830     LIBCMT:undname.obj
 0002:00007834       ??_C@_05KHLCHHI@?$GARTTI?$AA@ 0000000180046834     LIBCMT:undname.obj
 0002:00007840       ??_C@_0BA@KKLDJDLB@?$GAlocal?5vftable?8?$AA@ 0000000180046840     LIBCMT:undname.obj
 0002:00007850       ??_C@_0CE@IIHCMGGL@?$GAlocal?5vftable?5constructor?5closu@ 0000000180046850     LIBCMT:undname.obj
 0002:00007874       ??_C@_06FHBGPFGH@?5new?$FL?$FN?$AA@ 0000000180046874     LIBCMT:undname.obj
 0002:00007880       ??_C@_09LBNFPBCA@?5delete?$FL?$FN?$AA@ 0000000180046880     LIBCMT:undname.obj
 0002:00007890       ??_C@_0P@HJKNJFNN@?$GAomni?5callsig?8?$AA@ 0000000180046890     LIBCMT:undname.obj
 0002:000078a0       ??_C@_0BL@CNOONJFP@?$GAplacement?5delete?5closure?8?$AA@ 00000001800468a0     LIBCMT:undname.obj
 0002:000078c0       ??_C@_0BN@CKNJLHMB@?$GAplacement?5delete?$FL?$FN?5closure?8?$AA@ 00000001800468c0     LIBCMT:undname.obj
 0002:000078e0       ??_C@_0CG@CFDHKGGD@?$GAmanaged?5vector?5constructor?5iter@ 00000001800468e0     LIBCMT:undname.obj
 0002:00007908       ??_C@_0CF@IMGKMJNO@?$GAmanaged?5vector?5destructor?5itera@ 0000000180046908     LIBCMT:undname.obj
 0002:00007930       ??_C@_0CG@HLDDJMAG@?$GAeh?5vector?5copy?5constructor?5iter@ 0000000180046930     LIBCMT:undname.obj
 0002:00007958       ??_C@_0CM@FCBBDIGB@?$GAeh?5vector?5vbase?5copy?5constructo@ 0000000180046958     LIBCMT:undname.obj
 0002:00007988       ??_C@_0BL@CLIPGLGB@?$GAdynamic?5initializer?5for?5?8?$AA@ 0000000180046988     LIBCMT:undname.obj
 0002:000079a8       ??_C@_0CB@PDBIFEP@?$GAdynamic?5atexit?5destructor?5for?5?8@ 00000001800469a8     LIBCMT:undname.obj
 0002:000079d0       ??_C@_0CD@CGAJBKEJ@?$GAvector?5copy?5constructor?5iterato@ 00000001800469d0     LIBCMT:undname.obj
 0002:000079f8       ??_C@_0CJ@GJELGAMM@?$GAvector?5vbase?5copy?5constructor?5i@ 00000001800469f8     LIBCMT:undname.obj
 0002:00007a28       ??_C@_0CL@FGIJHLCE@?$GAmanaged?5vector?5copy?5constructor@ 0000000180046a28     LIBCMT:undname.obj
 0002:00007a58       ??_C@_0BM@PMGGMLDN@?$GAlocal?5static?5thread?5guard?8?$AA@ 0000000180046a58     LIBCMT:undname.obj
 0002:00007a78       ??_C@_0BC@DAFEJGAK@?5Type?5Descriptor?8?$AA@ 0000000180046a78     LIBCMT:undname.obj
 0002:00007a90       ??_C@_0BM@LDKODKLH@?5Base?5Class?5Descriptor?5at?5?$CI?$AA@ 0000000180046a90     LIBCMT:undname.obj
 0002:00007ab0       ??_C@_0BD@LGICGFMM@?5Base?5Class?5Array?8?$AA@ 0000000180046ab0     LIBCMT:undname.obj
 0002:00007ac8       ??_C@_0BN@MECKDCOJ@?5Class?5Hierarchy?5Descriptor?8?$AA@ 0000000180046ac8     LIBCMT:undname.obj
 0002:00007ae8       ??_C@_0BK@CFCOFLF@?5Complete?5Object?5Locator?8?$AA@ 0000000180046ae8     LIBCMT:undname.obj
 0002:00007b10       __rg_language              0000000180046b10     LIBCMT:getqloc.obj
 0002:00007f20       ??_C@_1BC@LLOKLNP@?$AAa?$AAm?$AAe?$AAr?$AAi?$AAc?$AAa?$AAn?$AA?$AA@ 0000000180046f20     LIBCMT:getqloc.obj
 0002:00007f38       ??_C@_1CC@HEIGCDGG@?$AAa?$AAm?$AAe?$AAr?$AAi?$AAc?$AAa?$AAn?$AA?5?$AAe?$AAn?$AAg?$AAl?$AAi?$AAs?$AAh?$AA?$AA@ 0000000180046f38     LIBCMT:getqloc.obj
 0002:00007f60       ??_C@_1CC@IHCNOMIN@?$AAa?$AAm?$AAe?$AAr?$AAi?$AAc?$AAa?$AAn?$AA?9?$AAe?$AAn?$AAg?$AAl?$AAi?$AAs?$AAh?$AA?$AA@ 0000000180046f60     LIBCMT:getqloc.obj
 0002:00007f88       ??_C@_1BG@GKAGPCGG@?$AAa?$AAu?$AAs?$AAt?$AAr?$AAa?$AAl?$AAi?$AAa?$AAn?$AA?$AA@ 0000000180046f88     LIBCMT:getqloc.obj
 0002:00007fa0       ??_C@_1BA@GMENCENF@?$AAb?$AAe?$AAl?$AAg?$AAi?$AAa?$AAn?$AA?$AA@ 0000000180046fa0     LIBCMT:getqloc.obj
 0002:00007fb0       ??_C@_1BC@PJMIIAAN@?$AAc?$AAa?$AAn?$AAa?$AAd?$AAi?$AAa?$AAn?$AA?$AA@ 0000000180046fb0     LIBCMT:getqloc.obj
 0002:00007fc8       ??_C@_17NOIMNFBF@?$AAc?$AAh?$AAh?$AA?$AA@ 0000000180046fc8     LIBCMT:getqloc.obj
 0002:00007fd0       ??_C@_17GGDALCHA@?$AAc?$AAh?$AAi?$AA?$AA@ 0000000180046fd0     LIBCMT:getqloc.obj
 0002:00007fd8       ??_C@_1BA@NPNJKIBL@?$AAc?$AAh?$AAi?$AAn?$AAe?$AAs?$AAe?$AA?$AA@ 0000000180046fd8     LIBCMT:getqloc.obj
 0002:00007fe8       ??_C@_1CC@DINBAMMJ@?$AAc?$AAh?$AAi?$AAn?$AAe?$AAs?$AAe?$AA?9?$AAh?$AAo?$AAn?$AAg?$AAk?$AAo?$AAn?$AAg?$AA?$AA@ 0000000180046fe8     LIBCMT:getqloc.obj
 0002:00008010       ??_C@_1CG@IOBJPACO@?$AAc?$AAh?$AAi?$AAn?$AAe?$AAs?$AAe?$AA?9?$AAs?$AAi?$AAm?$AAp?$AAl?$AAi?$AAf?$AAi?$AAe?$AAd?$AA?$AA@ 0000000180047010     LIBCMT:getqloc.obj
 0002:00008038       ??_C@_1CE@GAJNDCKG@?$AAc?$AAh?$AAi?$AAn?$AAe?$AAs?$AAe?$AA?9?$AAs?$AAi?$AAn?$AAg?$AAa?$AAp?$AAo?$AAr?$AAe?$AA?$AA@ 0000000180047038     LIBCMT:getqloc.obj
 0002:00008060       ??_C@_1CI@PAJPIOOD@?$AAc?$AAh?$AAi?$AAn?$AAe?$AAs?$AAe?$AA?9?$AAt?$AAr?$AAa?$AAd?$AAi?$AAt?$AAi?$AAo?$AAn?$AAa?$AAl?$AA?$AA@ 0000000180047060     LIBCMT:getqloc.obj
 0002:00008088       ??_C@_1BM@NILJBMMD@?$AAd?$AAu?$AAt?$AAc?$AAh?$AA?9?$AAb?$AAe?$AAl?$AAg?$AAi?$AAa?$AAn?$AA?$AA@ 0000000180047088     LIBCMT:getqloc.obj
 0002:000080a8       ??_C@_1CC@OOJPJNEJ@?$AAe?$AAn?$AAg?$AAl?$AAi?$AAs?$AAh?$AA?9?$AAa?$AAm?$AAe?$AAr?$AAi?$AAc?$AAa?$AAn?$AA?$AA@ 00000001800470a8     LIBCMT:getqloc.obj
 0002:000080d0       ??_C@_1BI@IOLFEEM@?$AAe?$AAn?$AAg?$AAl?$AAi?$AAs?$AAh?$AA?9?$AAa?$AAu?$AAs?$AA?$AA@ 00000001800470d0     LIBCMT:getqloc.obj
 0002:000080e8       ??_C@_1BO@HFFNLENJ@?$AAe?$AAn?$AAg?$AAl?$AAi?$AAs?$AAh?$AA?9?$AAb?$AAe?$AAl?$AAi?$AAz?$AAe?$AA?$AA@ 00000001800470e8     LIBCMT:getqloc.obj
 0002:00008108       ??_C@_1BI@HAPKJMPO@?$AAe?$AAn?$AAg?$AAl?$AAi?$AAs?$AAh?$AA?9?$AAc?$AAa?$AAn?$AA?$AA@ 0000000180047108     LIBCMT:getqloc.obj
 0002:00008120       ??_C@_1CE@HLNDMIOJ@?$AAe?$AAn?$AAg?$AAl?$AAi?$AAs?$AAh?$AA?9?$AAc?$AAa?$AAr?$AAi?$AAb?$AAb?$AAe?$AAa?$AAn?$AA?$AA@ 0000000180047120     LIBCMT:getqloc.obj
 0002:00008148       ??_C@_1BI@LDHJHHAC@?$AAe?$AAn?$AAg?$AAl?$AAi?$AAs?$AAh?$AA?9?$AAi?$AAr?$AAe?$AA?$AA@ 0000000180047148     LIBCMT:getqloc.obj
 0002:00008160       ??_C@_1CA@NJMMCFOC@?$AAe?$AAn?$AAg?$AAl?$AAi?$AAs?$AAh?$AA?9?$AAj?$AAa?$AAm?$AAa?$AAi?$AAc?$AAa?$AA?$AA@ 0000000180047160     LIBCMT:getqloc.obj
 0002:00008180       ??_C@_1BG@BHJEBBGG@?$AAe?$AAn?$AAg?$AAl?$AAi?$AAs?$AAh?$AA?9?$AAn?$AAz?$AA?$AA@ 0000000180047180     LIBCMT:getqloc.obj
 0002:00008198       ??_C@_1CK@FGOEJJCO@?$AAe?$AAn?$AAg?$AAl?$AAi?$AAs?$AAh?$AA?9?$AAs?$AAo?$AAu?$AAt?$AAh?$AA?5?$AAa?$AAf?$AAr?$AAi?$AAc?$AAa?$AA?$AA@ 0000000180047198     LIBCMT:getqloc.obj
 0002:000081c8       ??_C@_1DE@PDBJPCJ@?$AAe?$AAn?$AAg?$AAl?$AAi?$AAs?$AAh?$AA?9?$AAt?$AAr?$AAi?$AAn?$AAi?$AAd?$AAa?$AAd?$AA?5?$AAy?$AA?5?$AAt?$AAo?$AAb?$AAa?$AAg?$AAo?$AA?$AA@ 00000001800471c8     LIBCMT:getqloc.obj
 0002:00008200       ??_C@_1BG@JGCANDME@?$AAe?$AAn?$AAg?$AAl?$AAi?$AAs?$AAh?$AA?9?$AAu?$AAk?$AA?$AA@ 0000000180047200     LIBCMT:getqloc.obj
 0002:00008218       ??_C@_1BG@DINKMLE@?$AAe?$AAn?$AAg?$AAl?$AAi?$AAs?$AAh?$AA?9?$AAu?$AAs?$AA?$AA@ 0000000180047218     LIBCMT:getqloc.obj
 0002:00008230       ??_C@_1BI@NMFDBHJE@?$AAe?$AAn?$AAg?$AAl?$AAi?$AAs?$AAh?$AA?9?$AAu?$AAs?$AAa?$AA?$AA@ 0000000180047230     LIBCMT:getqloc.obj
 0002:00008248       ??_C@_1BO@OIHKJKII@?$AAf?$AAr?$AAe?$AAn?$AAc?$AAh?$AA?9?$AAb?$AAe?$AAl?$AAg?$AAi?$AAa?$AAn?$AA?$AA@ 0000000180047248     LIBCMT:getqloc.obj
 0002:00008268       ??_C@_1CA@NKAELJKI@?$AAf?$AAr?$AAe?$AAn?$AAc?$AAh?$AA?9?$AAc?$AAa?$AAn?$AAa?$AAd?$AAi?$AAa?$AAn?$AA?$AA@ 0000000180047268     LIBCMT:getqloc.obj
 0002:00008288       ??_C@_1CE@MGKCNLGN@?$AAf?$AAr?$AAe?$AAn?$AAc?$AAh?$AA?9?$AAl?$AAu?$AAx?$AAe?$AAm?$AAb?$AAo?$AAu?$AAr?$AAg?$AA?$AA@ 0000000180047288     LIBCMT:getqloc.obj
 0002:000082b0       ??_C@_1BK@CEGEAILM@?$AAf?$AAr?$AAe?$AAn?$AAc?$AAh?$AA?9?$AAs?$AAw?$AAi?$AAs?$AAs?$AA?$AA@ 00000001800472b0     LIBCMT:getqloc.obj
 0002:000082d0       ??_C@_1CA@PAFKEOCC@?$AAg?$AAe?$AAr?$AAm?$AAa?$AAn?$AA?9?$AAa?$AAu?$AAs?$AAt?$AAr?$AAi?$AAa?$AAn?$AA?$AA@ 00000001800472d0     LIBCMT:getqloc.obj
 0002:000082f0       ??_C@_1CI@HCFHGOFD@?$AAg?$AAe?$AAr?$AAm?$AAa?$AAn?$AA?9?$AAl?$AAi?$AAc?$AAh?$AAt?$AAe?$AAn?$AAs?$AAt?$AAe?$AAi?$AAn?$AA?$AA@ 00000001800472f0     LIBCMT:getqloc.obj
 0002:00008318       ??_C@_1CE@FEDDNPDG@?$AAg?$AAe?$AAr?$AAm?$AAa?$AAn?$AA?9?$AAl?$AAu?$AAx?$AAe?$AAm?$AAb?$AAo?$AAu?$AAr?$AAg?$AA?$AA@ 0000000180047318     LIBCMT:getqloc.obj
 0002:00008340       ??_C@_1BK@LIMINNMN@?$AAg?$AAe?$AAr?$AAm?$AAa?$AAn?$AA?9?$AAs?$AAw?$AAi?$AAs?$AAs?$AA?$AA@ 0000000180047340     LIBCMT:getqloc.obj
 0002:00008360       ??_C@_1BM@LGMDBEPD@?$AAi?$AAr?$AAi?$AAs?$AAh?$AA?9?$AAe?$AAn?$AAg?$AAl?$AAi?$AAs?$AAh?$AA?$AA@ 0000000180047360     LIBCMT:getqloc.obj
 0002:00008380       ??_C@_1BM@NNCFBAEE@?$AAi?$AAt?$AAa?$AAl?$AAi?$AAa?$AAn?$AA?9?$AAs?$AAw?$AAi?$AAs?$AAs?$AA?$AA@ 0000000180047380     LIBCMT:getqloc.obj
 0002:000083a0       ??_C@_1BE@FEDJNPIB@?$AAn?$AAo?$AAr?$AAw?$AAe?$AAg?$AAi?$AAa?$AAn?$AA?$AA@ 00000001800473a0     LIBCMT:getqloc.obj
 0002:000083b8       ??_C@_1CC@CILKDEIE@?$AAn?$AAo?$AAr?$AAw?$AAe?$AAg?$AAi?$AAa?$AAn?$AA?9?$AAb?$AAo?$AAk?$AAm?$AAa?$AAl?$AA?$AA@ 00000001800473b8     LIBCMT:getqloc.obj
 0002:000083e0       ??_C@_1CE@DHMMHEPL@?$AAn?$AAo?$AAr?$AAw?$AAe?$AAg?$AAi?$AAa?$AAn?$AA?9?$AAn?$AAy?$AAn?$AAo?$AAr?$AAs?$AAk?$AA?$AA@ 00000001800473e0     LIBCMT:getqloc.obj
 0002:00008408       ??_C@_1CK@OPNMHECD@?$AAp?$AAo?$AAr?$AAt?$AAu?$AAg?$AAu?$AAe?$AAs?$AAe?$AA?9?$AAb?$AAr?$AAa?$AAz?$AAi?$AAl?$AAi?$AAa?$AAn?$AA?$AA@ 0000000180047408     LIBCMT:getqloc.obj
 0002:00008438       ??_C@_1CE@KEEHCDB@?$AAs?$AAp?$AAa?$AAn?$AAi?$AAs?$AAh?$AA?9?$AAa?$AAr?$AAg?$AAe?$AAn?$AAt?$AAi?$AAn?$AAa?$AA?$AA@ 0000000180047438     LIBCMT:getqloc.obj
 0002:00008460       ??_C@_1CA@GIAOLHJD@?$AAs?$AAp?$AAa?$AAn?$AAi?$AAs?$AAh?$AA?9?$AAb?$AAo?$AAl?$AAi?$AAv?$AAi?$AAa?$AA?$AA@ 0000000180047460     LIBCMT:getqloc.obj
 0002:00008480       ??_C@_1BM@OJNDFNPD@?$AAs?$AAp?$AAa?$AAn?$AAi?$AAs?$AAh?$AA?9?$AAc?$AAh?$AAi?$AAl?$AAe?$AA?$AA@ 0000000180047480     LIBCMT:getqloc.obj
 0002:000084a0       ??_C@_1CC@OCOLPALL@?$AAs?$AAp?$AAa?$AAn?$AAi?$AAs?$AAh?$AA?9?$AAc?$AAo?$AAl?$AAo?$AAm?$AAb?$AAi?$AAa?$AA?$AA@ 00000001800474a0     LIBCMT:getqloc.obj
 0002:000084c8       ??_C@_1CG@BPOFMKBB@?$AAs?$AAp?$AAa?$AAn?$AAi?$AAs?$AAh?$AA?9?$AAc?$AAo?$AAs?$AAt?$AAa?$AA?5?$AAr?$AAi?$AAc?$AAa?$AA?$AA@ 00000001800474c8     LIBCMT:getqloc.obj
 0002:000084f0       ??_C@_1DG@IGOBAPBB@?$AAs?$AAp?$AAa?$AAn?$AAi?$AAs?$AAh?$AA?9?$AAd?$AAo?$AAm?$AAi?$AAn?$AAi?$AAc?$AAa?$AAn?$AA?5?$AAr?$AAe?$AAp?$AAu?$AAb?$AAl?$AAi?$AAc?$AA?$AA@ 00000001800474f0     LIBCMT:getqloc.obj
 0002:00008528       ??_C@_1CA@JHAPGEGI@?$AAs?$AAp?$AAa?$AAn?$AAi?$AAs?$AAh?$AA?9?$AAe?$AAc?$AAu?$AAa?$AAd?$AAo?$AAr?$AA?$AA@ 0000000180047528     LIBCMT:getqloc.obj
 0002:00008548       ??_C@_1CI@LAPALJPP@?$AAs?$AAp?$AAa?$AAn?$AAi?$AAs?$AAh?$AA?9?$AAe?$AAl?$AA?5?$AAs?$AAa?$AAl?$AAv?$AAa?$AAd?$AAo?$AAr?$AA?$AA@ 0000000180047548     LIBCMT:getqloc.obj
 0002:00008570       ??_C@_1CE@PDGBOFOM@?$AAs?$AAp?$AAa?$AAn?$AAi?$AAs?$AAh?$AA?9?$AAg?$AAu?$AAa?$AAt?$AAe?$AAm?$AAa?$AAl?$AAa?$AA?$AA@ 0000000180047570     LIBCMT:getqloc.obj
 0002:00008598       ??_C@_1CC@NBEBAODI@?$AAs?$AAp?$AAa?$AAn?$AAi?$AAs?$AAh?$AA?9?$AAh?$AAo?$AAn?$AAd?$AAu?$AAr?$AAa?$AAs?$AA?$AA@ 0000000180047598     LIBCMT:getqloc.obj
 0002:000085c0       ??_C@_1CA@LLKGHBMF@?$AAs?$AAp?$AAa?$AAn?$AAi?$AAs?$AAh?$AA?9?$AAm?$AAe?$AAx?$AAi?$AAc?$AAa?$AAn?$AA?$AA@ 00000001800475c0     LIBCMT:getqloc.obj
 0002:000085e0       ??_C@_1BO@LKNDOIGD@?$AAs?$AAp?$AAa?$AAn?$AAi?$AAs?$AAh?$AA?9?$AAm?$AAo?$AAd?$AAe?$AAr?$AAn?$AA?$AA@ 00000001800475e0     LIBCMT:getqloc.obj
 0002:00008600       ??_C@_1CE@NMDMOEEB@?$AAs?$AAp?$AAa?$AAn?$AAi?$AAs?$AAh?$AA?9?$AAn?$AAi?$AAc?$AAa?$AAr?$AAa?$AAg?$AAu?$AAa?$AA?$AA@ 0000000180047600     LIBCMT:getqloc.obj
 0002:00008628       ??_C@_1BO@LLCBEJGB@?$AAs?$AAp?$AAa?$AAn?$AAi?$AAs?$AAh?$AA?9?$AAp?$AAa?$AAn?$AAa?$AAm?$AAa?$AA?$AA@ 0000000180047628     LIBCMT:getqloc.obj
 0002:00008648       ??_C@_1CC@FKPGGIHO@?$AAs?$AAp?$AAa?$AAn?$AAi?$AAs?$AAh?$AA?9?$AAp?$AAa?$AAr?$AAa?$AAg?$AAu?$AAa?$AAy?$AA?$AA@ 0000000180047648     LIBCMT:getqloc.obj
 0002:00008670       ??_C@_1BK@CDEIHOOP@?$AAs?$AAp?$AAa?$AAn?$AAi?$AAs?$AAh?$AA?9?$AAp?$AAe?$AAr?$AAu?$AA?$AA@ 0000000180047670     LIBCMT:getqloc.obj
 0002:00008690       ??_C@_1CI@GAHAKKGP@?$AAs?$AAp?$AAa?$AAn?$AAi?$AAs?$AAh?$AA?9?$AAp?$AAu?$AAe?$AAr?$AAt?$AAo?$AA?5?$AAr?$AAi?$AAc?$AAo?$AA?$AA@ 0000000180047690     LIBCMT:getqloc.obj
 0002:000086b8       ??_C@_1CA@NKJBCAGP@?$AAs?$AAp?$AAa?$AAn?$AAi?$AAs?$AAh?$AA?9?$AAu?$AAr?$AAu?$AAg?$AAu?$AAa?$AAy?$AA?$AA@ 00000001800476b8     LIBCMT:getqloc.obj
 0002:000086d8       ??_C@_1CE@ODILCONM@?$AAs?$AAp?$AAa?$AAn?$AAi?$AAs?$AAh?$AA?9?$AAv?$AAe?$AAn?$AAe?$AAz?$AAu?$AAe?$AAl?$AAa?$AA?$AA@ 00000001800476d8     LIBCMT:getqloc.obj
 0002:00008700       ??_C@_1CA@OBNMCGFO@?$AAs?$AAw?$AAe?$AAd?$AAi?$AAs?$AAh?$AA?9?$AAf?$AAi?$AAn?$AAl?$AAa?$AAn?$AAd?$AA?$AA@ 0000000180047700     LIBCMT:getqloc.obj
 0002:00008720       ??_C@_1M@PIPDDPPI@?$AAs?$AAw?$AAi?$AAs?$AAs?$AA?$AA@ 0000000180047720     LIBCMT:getqloc.obj
 0002:0000872c       ??_C@_15GMFIMNFM@?$AAu?$AAs?$AA?$AA@ 000000018004772c     LIBCMT:getqloc.obj
 0002:00008738       ??_C@_17HAEBFAGL@?$AAu?$AAs?$AAa?$AA?$AA@ 0000000180047738     LIBCMT:getqloc.obj
 0002:00008740       __rg_country               0000000180047740     LIBCMT:getqloc.obj
 0002:000088b0       ??_C@_1BA@DPFJEPHB@?$AAa?$AAm?$AAe?$AAr?$AAi?$AAc?$AAa?$AA?$AA@ 00000001800478b0     LIBCMT:getqloc.obj
 0002:000088c0       ??_C@_1BA@ELOGGFK@?$AAb?$AAr?$AAi?$AAt?$AAa?$AAi?$AAn?$AA?$AA@ 00000001800478c0     LIBCMT:getqloc.obj
 0002:000088d0       ??_C@_1M@GHBGIGDA@?$AAc?$AAh?$AAi?$AAn?$AAa?$AA?$AA@ 00000001800478d0     LIBCMT:getqloc.obj
 0002:000088e0       ??_C@_1M@NCHEJOPO@?$AAc?$AAz?$AAe?$AAc?$AAh?$AA?$AA@ 00000001800478e0     LIBCMT:getqloc.obj
 0002:000088f0       ??_C@_1BA@BKPAPBLA@?$AAe?$AAn?$AAg?$AAl?$AAa?$AAn?$AAd?$AA?$AA@ 00000001800478f0     LIBCMT:getqloc.obj
 0002:00008900       ??_C@_1BM@HKBCKIPC@?$AAg?$AAr?$AAe?$AAa?$AAt?$AA?5?$AAb?$AAr?$AAi?$AAt?$AAa?$AAi?$AAn?$AA?$AA@ 0000000180047900     LIBCMT:getqloc.obj
 0002:00008920       ??_C@_1BA@PPCHPGJB@?$AAh?$AAo?$AAl?$AAl?$AAa?$AAn?$AAd?$AA?$AA@ 0000000180047920     LIBCMT:getqloc.obj
 0002:00008930       ??_C@_1BE@JBMPEGDG@?$AAh?$AAo?$AAn?$AAg?$AA?9?$AAk?$AAo?$AAn?$AAg?$AA?$AA@ 0000000180047930     LIBCMT:getqloc.obj
 0002:00008948       ??_C@_1BI@KOELBBPJ@?$AAn?$AAe?$AAw?$AA?9?$AAz?$AAe?$AAa?$AAl?$AAa?$AAn?$AAd?$AA?$AA@ 0000000180047948     LIBCMT:getqloc.obj
 0002:00008960       ??_C@_15HIEBHAIO@?$AAn?$AAz?$AA?$AA@ 0000000180047960     LIBCMT:getqloc.obj
 0002:00008968       ??_C@_1BC@CHBCPFPI@?$AAp?$AAr?$AA?5?$AAc?$AAh?$AAi?$AAn?$AAa?$AA?$AA@ 0000000180047968     LIBCMT:getqloc.obj
 0002:00008980       ??_C@_1BC@JAOIIFKD@?$AAp?$AAr?$AA?9?$AAc?$AAh?$AAi?$AAn?$AAa?$AA?$AA@ 0000000180047980     LIBCMT:getqloc.obj
 0002:00008998       ??_C@_1BI@BEHPPHKC@?$AAp?$AAu?$AAe?$AAr?$AAt?$AAo?$AA?9?$AAr?$AAi?$AAc?$AAo?$AA?$AA@ 0000000180047998     LIBCMT:getqloc.obj
 0002:000089b0       ??_C@_1O@PAEOFKDI@?$AAs?$AAl?$AAo?$AAv?$AAa?$AAk?$AA?$AA@ 00000001800479b0     LIBCMT:getqloc.obj
 0002:000089c0       ??_C@_1BK@FIHMCKAM@?$AAs?$AAo?$AAu?$AAt?$AAh?$AA?5?$AAa?$AAf?$AAr?$AAi?$AAc?$AAa?$AA?$AA@ 00000001800479c0     LIBCMT:getqloc.obj
 0002:000089e0       ??_C@_1BI@NAEOODKB@?$AAs?$AAo?$AAu?$AAt?$AAh?$AA?5?$AAk?$AAo?$AAr?$AAe?$AAa?$AA?$AA@ 00000001800479e0     LIBCMT:getqloc.obj
 0002:000089f8       ??_C@_1BK@FBDGGIFF@?$AAs?$AAo?$AAu?$AAt?$AAh?$AA?9?$AAa?$AAf?$AAr?$AAi?$AAc?$AAa?$AA?$AA@ 00000001800479f8     LIBCMT:getqloc.obj
 0002:00008a18       ??_C@_1BI@GHLEJDPK@?$AAs?$AAo?$AAu?$AAt?$AAh?$AA?9?$AAk?$AAo?$AAr?$AAe?$AAa?$AA?$AA@ 0000000180047a18     LIBCMT:getqloc.obj
 0002:00008a30       ??_C@_1CE@PLHLOMJF@?$AAt?$AAr?$AAi?$AAn?$AAi?$AAd?$AAa?$AAd?$AA?5?$AA?$CG?$AA?5?$AAt?$AAo?$AAb?$AAa?$AAg?$AAo?$AA?$AA@ 0000000180047a30     LIBCMT:getqloc.obj
 0002:00008a58       ??_C@_1BO@MODIMHHI@?$AAu?$AAn?$AAi?$AAt?$AAe?$AAd?$AA?9?$AAk?$AAi?$AAn?$AAg?$AAd?$AAo?$AAm?$AA?$AA@ 0000000180047a58     LIBCMT:getqloc.obj
 0002:00008a78       ??_C@_1BM@FFHJONBJ@?$AAu?$AAn?$AAi?$AAt?$AAe?$AAd?$AA?9?$AAs?$AAt?$AAa?$AAt?$AAe?$AAs?$AA?$AA@ 0000000180047a78     LIBCMT:getqloc.obj
 0002:00008a94       __rg_language_count        0000000180047a94     LIBCMT:getqloc.obj
 0002:00008a98       __rg_country_count         0000000180047a98     LIBCMT:getqloc.obj
 0002:00008aa0       ??_C@_17DNCLJFIF@?$AAA?$AAC?$AAP?$AA?$AA@ 0000000180047aa0     LIBCMT:getqloc.obj
 0002:00008aa8       ??_C@_17CIKBIHLH@?$AAO?$AAC?$AAP?$AA?$AA@ 0000000180047aa8     LIBCMT:getqloc.obj
 0002:00008ab0       __rglangidNotDefault       0000000180047ab0     LIBCMT:getqloc_downlevel.obj
 0002:00008ac4       ??_C@_06PGGFOGJG@1?$CDSNAN?$AA@ 0000000180047ac4     LIBCMT:x10fout.obj
 0002:00008acc       ??_C@_05PHHOCPM@1?$CDIND?$AA@ 0000000180047acc     LIBCMT:x10fout.obj
 0002:00008ad4       ??_C@_05DNEBIAHO@1?$CDINF?$AA@ 0000000180047ad4     LIBCMT:x10fout.obj
 0002:00008adc       ??_C@_06IMKFLFPG@1?$CDQNAN?$AA@ 0000000180047adc     LIBCMT:x10fout.obj
 0002:00008ae8       ??_C@_1BA@BALFACEM@?$AAC?$AAO?$AAN?$AAO?$AAU?$AAT?$AA$?$AA?$AA@ 0000000180047ae8     LIBCMT:initcon.obj
 0002:00008af8       ??_C@_1DG@OKCGPKIB@?$AAp?$AAe?$AAr?$AAs?$AAi?$AAs?$AAt?$AAe?$AAn?$AAt?$AA?$CI?$AA?$CJ?$AA?4?$AAI?$AAs?$AAN?$AAe?$AAa?$AAr?$AAD?$AAe?$AAa?$AAt?$AAh?$AA?$CI?$AA?$CJ?$AA?$AA@ 0000000180047af8     njsOracle.obj
 0002:00008b30       ??_C@_1CO@EGNPJLKI@?$AAp?$AAe?$AAr?$AAs?$AAi?$AAs?$AAt?$AAe?$AAn?$AAt?$AA?$CI?$AA?$CJ?$AA?4?$AAI?$AAs?$AAE?$AAm?$AAp?$AAt?$AAy?$AA?$CI?$AA?$CJ?$AA?$AA@ 0000000180047b30     njsOracle.obj
 0002:00008b60       ??_C@_1DA@FBGAEOIO@?$AA?$CB?$AAp?$AAe?$AAr?$AAs?$AAi?$AAs?$AAt?$AAe?$AAn?$AAt?$AA?$CI?$AA?$CJ?$AA?4?$AAI?$AAs?$AAE?$AAm?$AAp?$AAt?$AAy?$AA?$CI?$AA?$CJ?$AA?$AA@ 0000000180047b60     njsOracle.obj
 0002:00008b90       ??_C@_1CO@JCKLEFMA@?$AA?$CB?$AAp?$AAe?$AAr?$AAs?$AAi?$AAs?$AAt?$AAe?$AAn?$AAt?$AA?$CI?$AA?$CJ?$AA?4?$AAI?$AAs?$AAW?$AAe?$AAa?$AAk?$AA?$CI?$AA?$CJ?$AA?$AA@ 0000000180047b90     njsOracle.obj
 0002:00008bc0       ??_C@_1BE@GMLLOIPJ@?$AAr?$AAe?$AAf?$AAs?$AA_?$AA?5?$AA?$DO?$AA?5?$AA0?$AA?$AA@ 0000000180047bc0     njsOracle.obj
 0002:00008bd8       ??_C@_1CC@GBFLAAPF@?$AAw?$AAr?$AAa?$AAp?$AA?9?$AA?$DO?$AAr?$AAe?$AAf?$AAs?$AA_?$AA?5?$AA?$DN?$AA?$DN?$AA?5?$AA0?$AA?$AA@ 0000000180047bd8     njsOracle.obj
 0002:00008c00       ??_C@_1DI@ELDBKNAK@?$AAw?$AAr?$AAa?$AAp?$AA?9?$AA?$DO?$AAh?$AAa?$AAn?$AAd?$AAl?$AAe?$AA_?$AA?4?$AAI?$AAs?$AAN?$AAe?$AAa?$AAr?$AAD?$AAe?$AAa?$AAt?$AAh?$AA?$CI?$AA?$CJ?$AA?$AA@ 0000000180047c00     njsOracle.obj
 0002:00008c38       ??_C@_0BC@BDKFLDHL@unknown?5exception?$AA@ 0000000180047c38     njsOracle.obj
 0002:00008c50       ??_C@_0BA@ELKIONDK@bad?5locale?5name?$AA@ 0000000180047c50     njsOracle.obj
 0002:00008c60       ??_C@_05LAPONLG@false?$AA@ 0000000180047c60     njsOracle.obj
 0002:00008c68       ??_C@_04LOAJBDKD@true?$AA@ 0000000180047c68     njsOracle.obj
 0002:00008c6d       ??_C@_00CNPNBAHC@?$AA@     0000000180047c6d     njsOracle.obj
 0002:00008c70       ??_C@_02LMMGGCAJ@?3?5?$AA@ 0000000180047c70     njsOracle.obj
 0002:00008c78       ??_C@_0BF@PHHKMMFD@ios_base?3?3badbit?5set?$AA@ 0000000180047c78     njsOracle.obj
 0002:00008c90       ??_C@_0BG@FMKFHCIL@ios_base?3?3failbit?5set?$AA@ 0000000180047c90     njsOracle.obj
 0002:00008ca8       ??_C@_0BF@OOHOMBOF@ios_base?3?3eofbit?5set?$AA@ 0000000180047ca8     njsOracle.obj
 0002:00008cc0       ??_C@_0BA@JFNIOLAK@string?5too?5long?$AA@ 0000000180047cc0     njsOracle.obj
 0002:00008cd0       ??_C@_1LG@OOEHODLM@?$AAc?$AA?3?$AA?2?$AAb?$AAe?$AAn?$AAj?$AAa?$AAm?$AAi?$AAn?$AA?2?$AAg?$AAi?$AAt?$AA?2?$AAw?$AAo?$AAr?$AAk?$AAs?$AAp?$AAa?$AAc?$AAe?$AA?2?$AAt?$AAi?$AAg?$AAe?$AAr?$AAd@ 0000000180047cd0     njsOracle.obj
 0002:00008d90       ??_C@_1EC@MGGLMBLC@?$AAo?$AAb?$AAj?$AAe?$AAc?$AAt?$AA?9?$AA?$DO?$AAI?$AAn?$AAt?$AAe?$AAr?$AAn?$AAa?$AAl?$AAF?$AAi?$AAe?$AAl?$AAd?$AAC?$AAo?$AAu?$AAn?$AAt?$AA?$CI?$AA?$CJ?$AA?5?$AA?$DO?$AA?5?$AA0@ 0000000180047d90     njsOracle.obj
 0002:00008dd4       ??_C@_03MCPBMLDJ@?5?3?5?$AA@ 0000000180047dd4     njsOracle.obj
 0002:00008dd8       ??_C@_0O@HGNEKDAO@node?9oracledb?$AA@ 0000000180047dd8     njsOracle.obj
 0002:00008de8       ??_C@_01LFCBOECM@?4?$AA@   0000000180047de8     njsOracle.obj
 0002:00008df0       ??_C@_08BNCGHMGL@Oracledb?$AA@ 0000000180047df0     njsOracle.obj
 0002:00008e00       ??_C@_0O@GICFJCLP@getConnection?$AA@ 0000000180047e00     njsOracle.obj
 0002:00008e10       ??_C@_0L@DEMMGFLI@createPool?$AA@ 0000000180047e10     njsOracle.obj
 0002:00008e20       ??_C@_07CJJOHIMA@poolMax?$AA@ 0000000180047e20     njsOracle.obj
 0002:00008e28       ??_C@_07DLBFJMKP@poolMin?$AA@ 0000000180047e28     njsOracle.obj
 0002:00008e30       ??_C@_0O@CEEKNGK@poolIncrement?$AA@ 0000000180047e30     njsOracle.obj
 0002:00008e40       ??_C@_0M@KJCBBGHI@poolTimeout?$AA@ 0000000180047e40     njsOracle.obj
 0002:00008e50       ??_C@_0O@MCOBCHKC@stmtCacheSize?$AA@ 0000000180047e50     njsOracle.obj
 0002:00008e60       ??_C@_0N@GLFJDLAP@prefetchRows?$AA@ 0000000180047e60     njsOracle.obj
 0002:00008e70       ??_C@_0L@JJDMGLON@autoCommit?$AA@ 0000000180047e70     njsOracle.obj
 0002:00008e80       ??_C@_07GPLJHCBP@maxRows?$AA@ 0000000180047e80     njsOracle.obj
 0002:00008e88       ??_C@_09DINGKNNM@outFormat?$AA@ 0000000180047e88     njsOracle.obj
 0002:00008e98       ??_C@_07CPCPJPKL@version?$AA@ 0000000180047e98     njsOracle.obj
 0002:00008ea0       ??_C@_0BA@GPOPFKB@connectionClass?$AA@ 0000000180047ea0     njsOracle.obj
 0002:00008eb0       ??_C@_0N@DGEJBIKB@externalAuth?$AA@ 0000000180047eb0     njsOracle.obj
 0002:00008ec0       ??_C@_0O@KBLMAIHK@fetchAsString?$AA@ 0000000180047ec0     njsOracle.obj
 0002:00008ed0       ??_C@_0BA@NCMFLOHA@lobPrefetchSize?$AA@ 0000000180047ed0     njsOracle.obj
 0002:00008ee0       ??_C@_0BE@HLPLDCII@oracleClientVersion?$AA@ 0000000180047ee0     njsOracle.obj
 0002:00008ef4       ??_C@_04CCHAHKJA@user?$AA@ 0000000180047ef4     njsOracle.obj
 0002:00008f00       ??_C@_08NLHBPEGP@password?$AA@ 0000000180047f00     njsOracle.obj
 0002:00008f10       ??_C@_0O@GBMHGACH@connectString?$AA@ 0000000180047f10     njsOracle.obj
 0002:00008f20       ??_C@_0O@KFEBOKGH@GetConnection?$AA@ 0000000180047f20     njsOracle.obj
 0002:00008f30       ??_C@_0O@BEGDKJHM@uv_queue_work?$AA@ 0000000180047f30     njsOracle.obj
 0002:00008f40       ??_C@_0L@LCFAOKGP@CreatePool?$AA@ 0000000180047f40     njsOracle.obj
 0002:00008f50       ??_C@_0BN@CPKFGOJG@?4?4?2src?2njs?2src?2njsOracle?4cpp?$AA@ 0000000180047f50     njsOracle.obj
 0002:00008f70       ??_C@_08JPNHPOMI@oracledb?$AA@ 0000000180047f70     njsOracle.obj
 0002:00008f7c       ??_C@_02BBAHNLBA@?$CFp?$AA@ 0000000180047f7c     njsOracle.obj
 0002:00008f80       ??_C@_02MDKMJEGG@eE?$AA@   0000000180047f80     njsOracle.obj
 0002:00008f84       ??_C@_02OOPEBDOJ@pP?$AA@   0000000180047f84     njsOracle.obj
 0002:00008f88       ??_C@_0BI@CFPLBAOH@invalid?5string?5position?$AA@ 0000000180047f88     njsOracle.obj
 0002:00008fa0       ??_C@_1CE@LNAGEONJ@?$AA?$CB?$AAo?$AAb?$AAj?$AAe?$AAc?$AAt?$AA?4?$AAI?$AAs?$AAE?$AAm?$AAp?$AAt?$AAy?$AA?$CI?$AA?$CJ?$AA?$AA@ 0000000180047fa0     njsOracle.obj
 0002:00008fc8       ??_7?$basic_streambuf@DU?$char_traits@D@std@@@std@@6B@ 0000000180047fc8     njsOracle.obj
 0002:00009040       ??_7?$basic_stringbuf@DU?$char_traits@D@std@@V?$allocator@D@2@@std@@6B@ 0000000180048040     njsOracle.obj
 0002:000090b8       ??_7ObjectWrap@Nan@@6B@    00000001800480b8     njsOracle.obj
 0002:000090d0       ??_7Oracledb@@6B@          00000001800480d0     njsOracle.obj
 0002:000090e8       ??_7exception@stdext@@6B@  00000001800480e8     njsOracle.obj
 0002:00009100       ??_7?$basic_stringstream@DU?$char_traits@D@std@@V?$allocator@D@2@@std@@6B@ 0000000180048100     njsOracle.obj
 0002:00009108       ??_7?$basic_iostream@DU?$char_traits@D@std@@@std@@6B@ 0000000180048108     njsOracle.obj
 0002:00009110       ??_7?$basic_istream@DU?$char_traits@D@std@@@std@@6B@ 0000000180048110     njsOracle.obj
 0002:00009118       ??_8?$basic_stringstream@DU?$char_traits@D@std@@V?$allocator@D@2@@std@@7B?$basic_istream@DU?$char_traits@D@std@@@1@@ 0000000180048118     njsOracle.obj
 0002:00009120       ??_7ios_base@std@@6B@      0000000180048120     njsOracle.obj
 0002:00009120       ??_7?$basic_ios@DU?$char_traits@D@std@@@std@@6B@ 0000000180048120     njsOracle.obj
 0002:00009128       ??_8?$basic_stringstream@DU?$char_traits@D@std@@V?$allocator@D@2@@std@@7B?$basic_ostream@DU?$char_traits@D@std@@@1@@ 0000000180048128     njsOracle.obj
 0002:00009130       ??_7_System_error@std@@6B@ 0000000180048130     njsOracle.obj
 0002:00009130       ??_7system_error@std@@6B@  0000000180048130     njsOracle.obj
 0002:00009130       ??_7failure@ios_base@std@@6B@ 0000000180048130     njsOracle.obj
 0002:00009148       ??_7?$basic_ostream@DU?$char_traits@D@std@@@std@@6B@ 0000000180048148     njsOracle.obj
 0002:00009150       ??_C@_04OIEIIIMK@Pool?$AA@ 0000000180048150     njsPool.obj
 0002:00009158       ??_C@_09DACGJFPO@terminate?$AA@ 0000000180048158     njsPool.obj
 0002:00009168       ??_C@_0BA@ILIHCEPM@connectionsOpen?$AA@ 0000000180048168     njsPool.obj
 0002:00009178       ??_C@_0BB@EBFGKEIN@connectionsInUse?$AA@ 0000000180048178     njsPool.obj
 0002:00009190       ??_C@_09HPHLJGCO@Terminate?$AA@ 0000000180048190     njsPool.obj
 0002:000091a0       ??_7ResultSet@@6B@         00000001800481a0     njsResultSet.obj
 0002:000091a0       ??_7Pool@@6B@              00000001800481a0     njsPool.obj
 0002:000091a0       ??_7Connection@@6B@        00000001800481a0     njsConnection.obj
 0002:000091c0       ??_C@_1MK@KBJEBIBJ@?$AAc?$AA?3?$AA?2?$AAb?$AAe?$AAn?$AAj?$AAa?$AAm?$AAi?$AAn?$AA?2?$AAg?$AAi?$AAt?$AA?2?$AAw?$AAo?$AAr?$AAk?$AAs?$AAp?$AAa?$AAc?$AAe?$AA?2?$AAt?$AAi?$AAg?$AAe?$AAr?$AAd@ 00000001800481c0     njsConnection.obj
 0002:00009290       ??_C@_1FK@CBGIJHDF@?$AAv?$AAa?$AAl?$AAu?$AAe?$AA?4?$AAs?$AAi?$AAz?$AAe?$AA?$CI?$AA?$CJ?$AA?5?$AA?$DM?$AA?$DN?$AA?5?$AAI?$AAN?$AAT?$AA_?$AAM?$AAA?$AAX?$AA?5?$AA?$CG?$AA?$CG?$AA?5?$AA?$CC?$AAs?$AAt?$AAr?$AAi@ 0000000180048290     njsConnection.obj
 0002:000092f0       ??_C@_1JO@NFBBOFEC@?$AAC?$AA?3?$AA?2?$AAb?$AAe?$AAn?$AAj?$AAa?$AAm?$AAi?$AAn?$AA?2?$AAG?$AAi?$AAt?$AA?2?$AAw?$AAo?$AAr?$AAk?$AAs?$AAp?$AAa?$AAc?$AAe?$AA?2?$AAt?$AAi?$AAg?$AAe?$AAr?$AAd@ 00000001800482f0     njsConnection.obj
 0002:00009390       ??_C@_1FM@LOELJOFK@?$AAs?$AAi?$AAz?$AAe?$AA?5?$AA?$DM?$AA?$DN?$AA?5?$AAi?$AAm?$AAp?$AA?3?$AA?3?$AAk?$AAM?$AAa?$AAx?$AAL?$AAe?$AAn?$AAg?$AAt?$AAh?$AA?5?$AA?$CG?$AA?$CG?$AA?5?$AA?$CC?$AAt?$AAo?$AAo?$AA?5@ 0000000180048390     njsConnection.obj
 0002:000093f0       ??_C@_0L@PJJKMLL@Connection?$AA@ 00000001800483f0     njsConnection.obj
 0002:00009400       ??_C@_07EMGJIMLB@execute?$AA@ 0000000180048400     njsConnection.obj
 0002:00009408       ??_C@_07EOGFDLKI@release?$AA@ 0000000180048408     njsConnection.obj
 0002:00009410       ??_C@_06IFNEBLAJ@commit?$AA@ 0000000180048410     njsConnection.obj
 0002:00009418       ??_C@_08FBLICIPL@rollback?$AA@ 0000000180048418     njsConnection.obj
 0002:00009424       ??_C@_05ELPHFHOI@break?$AA@ 0000000180048424     njsConnection.obj
 0002:00009430       ??_C@_08BMOJCBA@clientId?$AA@ 0000000180048430     njsConnection.obj
 0002:0000943c       ??_C@_06BIEEJMKO@module?$AA@ 000000018004843c     njsConnection.obj
 0002:00009444       ??_C@_06DDLLCOJG@action?$AA@ 0000000180048444     njsConnection.obj
 0002:00009450       ??_C@_0BE@FLLIGNEJ@oracleServerVersion?$AA@ 0000000180048450     njsConnection.obj
 0002:00009468       ??_C@_07LFBPOOOH@Execute?$AA@ 0000000180048468     njsConnection.obj
 0002:00009470       ??_C@_09MLCBPDGD@resultSet?$AA@ 0000000180048470     njsConnection.obj
 0002:00009480       ??_C@_09IALOBJIC@fetchInfo?$AA@ 0000000180048480     njsConnection.obj
 0002:0000948c       ??_C@_04GPMDFGEJ@type?$AA@ 000000018004848c     njsConnection.obj
 0002:00009494       ??_C@_01JLIPDDHJ@?3?$AA@   0000000180048494     njsConnection.obj
 0002:00009498       ??_C@_03DAPAKLGM@dir?$AA@  0000000180048498     njsConnection.obj
 0002:000094a0       ??_C@_07GDPCCCPH@maxSize?$AA@ 00000001800484a0     njsConnection.obj
 0002:000094a8       ??_C@_0N@HGIHOFAC@maxArraySize?$AA@ 00000001800484a8     njsConnection.obj
 0002:000094b8       ??_C@_03BALCFKBP@val?$AA@  00000001800484b8     njsConnection.obj
 0002:000094bc       ??_C@_04IMCGAIPI@rows?$AA@ 00000001800484bc     njsConnection.obj
 0002:000094c8       ??_C@_08CADMLJEK@outBinds?$AA@ 00000001800484c8     njsConnection.obj
 0002:000094d8       ??_C@_0N@KAPCDOFA@rowsAffected?$AA@ 00000001800484d8     njsConnection.obj
 0002:000094e8       ??_C@_08PGKJPPDP@metaData?$AA@ 00000001800484e8     njsConnection.obj
 0002:000094f4       ??_C@_04MEMAJGDJ@name?$AA@ 00000001800484f4     njsConnection.obj
 0002:00009500       ??_C@_07LHBDFJPO@Release?$AA@ 0000000180048500     njsConnection.obj
 0002:00009508       ??_C@_06EKGJCCJF@Commit?$AA@ 0000000180048508     njsConnection.obj
 0002:00009510       ??_C@_08NDEJKKFI@Rollback?$AA@ 0000000180048510     njsConnection.obj
 0002:0000951c       ??_C@_05EMFLFCNO@Break?$AA@ 000000018004851c     njsConnection.obj
 0002:00009524       ??_C@_06GPFDNHLC@newLob?$AA@ 0000000180048524     njsConnection.obj
 0002:00009530       ??_C@_0BD@OLBABOEK@vector?$DMT?$DO?5too?5long?$AA@ 0000000180048530     njsConnection.obj
 0002:00009548       ??_C@_09IEHMPALD@ResultSet?$AA@ 0000000180048548     njsResultSet.obj
 0002:00009554       ??_C@_05LBOHBHFK@close?$AA@ 0000000180048554     njsResultSet.obj
 0002:0000955c       ??_C@_06DKBICOAJ@getRow?$AA@ 000000018004855c     njsResultSet.obj
 0002:00009568       ??_C@_07HNPEIKLP@getRows?$AA@ 0000000180048568     njsResultSet.obj
 0002:00009570       ??_C@_0O@BENJIPMF@GetRowsCommon?$AA@ 0000000180048570     njsResultSet.obj
 0002:00009580       ??_C@_0P@CLHDOECI@ResultSetClose?$AA@ 0000000180048580     njsResultSet.obj
 0002:00009590       ??_C@_0CN@EAPPLFIE@NJS?9001?3?5expected?5callback?5as?5la@ 0000000180048590     njsMessages.obj
 0002:000095c0       ??_C@_0BG@CPODOMNC@NJS?9002?3?5invalid?5pool?$AA@ 00000001800485c0     njsMessages.obj
 0002:000095d8       ??_C@_0BM@JFAMIHMB@NJS?9003?3?5invalid?5connection?$AA@ 00000001800485d8     njsMessages.obj
 0002:000095f8       ??_C@_0CH@LDFPEIAC@NJS?9004?3?5invalid?5value?5for?5prope@ 00000001800485f8     njsMessages.obj
 0002:00009620       ??_C@_0CI@LJKIPLLG@NJS?9005?3?5invalid?5value?5for?5param@ 0000000180048620     njsMessages.obj
 0002:00009648       ??_C@_0CH@LNEBGLBI@NJS?9006?3?5invalid?5type?5for?5parame@ 0000000180048648     njsMessages.obj
 0002:00009670       ??_C@_0DA@LLNCMIBF@NJS?9007?3?5invalid?5value?5for?5?$CC?$CFs?$CC?5@ 0000000180048670     njsMessages.obj
 0002:000096a0       ??_C@_0CP@IGIOFNIJ@NJS?9008?3?5invalid?5type?5for?5?$CC?$CFs?$CC?5i@ 00000001800486a0     njsMessages.obj
 0002:000096d0       ??_C@_0CG@NEDBOLL@NJS?9009?3?5invalid?5number?5of?5param@ 00000001800486d0     njsMessages.obj
 0002:000096f8       ??_C@_0CO@NPMIEIEG@NJS?9010?3?5unsupported?5data?5type?5i@ 00000001800486f8     njsMessages.obj
 0002:00009730       ??_C@_0EC@NNFBKLIL@NJS?9011?3?5encountered?5bind?5value?5@ 0000000180048730     njsMessages.obj
 0002:00009778       ??_C@_0DL@DJJHMCOF@NJS?9012?3?5encountered?5invalid?5bin@ 0000000180048778     njsMessages.obj
 0002:000097b8       ??_C@_0CA@BACDJBHC@NJS?9013?3?5invalid?5bind?5direction?$AA@ 00000001800487b8     njsMessages.obj
 0002:000097d8       ??_C@_0CE@JHOFBEHB@NJS?9014?3?5?$CFs?5is?5a?5read?9only?5prope@ 00000001800487d8     njsMessages.obj
 0002:00009800       ??_C@_0CL@LPGLEDEI@NJS?9016?3?5buffer?5is?5too?5small?5for@ 0000000180048800     njsMessages.obj
 0002:00009830       ??_C@_0DM@JGFLEMAH@NJS?9017?3?5concurrent?5operations?5o@ 0000000180048830     njsMessages.obj
 0002:00009870       ??_C@_0BM@EOIGDDMB@NJS?9018?3?5invalid?5result?5set?$AA@ 0000000180048870     njsMessages.obj
 0002:00009890       ??_C@_0DP@EINOJNBL@NJS?9019?3?5resultSet?5cannot?5be?5ret@ 0000000180048890     njsMessages.obj
 0002:000098d0       ??_C@_0DN@GENKDPOG@NJS?9020?3?5empty?5array?5was?5specifi@ 00000001800488d0     njsMessages.obj
 0002:00009910       ??_C@_0CP@EDPFAMJK@NJS?9021?3?5invalid?5type?5for?5conver@ 0000000180048910     njsMessages.obj
 0002:00009940       ??_C@_0BF@ONKOAGDK@NJS?9022?3?5invalid?5LOB?$AA@ 0000000180048940     njsMessages.obj
 0002:00009958       ??_C@_0DG@BCLPOMFP@NJS?9023?3?5concurrent?5operations?5o@ 0000000180048958     njsMessages.obj
 0002:00009990       ??_C@_0CC@HFOJMIAK@NJS?9024?3?5memory?5allocation?5faile@ 0000000180048990     njsMessages.obj
 0002:000099b8       ??_C@_0DF@FGHOJMEN@NJS?9025?3?5overflow?5when?5calculati@ 00000001800489b8     njsMessages.obj
 0002:000099f0       ??_C@_0CL@CJKMEINN@NJS?9026?3?5maxRows?5must?5be?5greater@ 00000001800489f0     njsMessages.obj
 0002:00009a20       ??_C@_0CG@GKLPAPFN@NJS?9027?3?5unexpected?5SQL?5parsing?5@ 0000000180048a20     njsMessages.obj
 0002:00009a50       ??_C@_0EK@EMLJJJPP@NJS?9028?3?5raw?5database?5type?5is?5no@ 0000000180048a50     njsMessages.obj
 0002:00009aa0       ??_C@_0CI@CDBGLILH@NJS?9029?3?5Invalid?5object?5from?5jav@ 0000000180048aa0     njsMessages.obj
 0002:00009ad0       ??_C@_0EO@LBKHOOCH@NJS?9030?3?5connection?5cannot?5be?5re@ 0000000180048ad0     njsMessages.obj
 0002:00009b20       ??_C@_0FE@IIHCGNKK@NJS?9031?3?5connection?5cannot?5be?5re@ 0000000180048b20     njsMessages.obj
 0002:00009b80       ??_C@_0EO@IIBEDJAF@NJS?9032?3?5connection?5cannot?5be?5re@ 0000000180048b80     njsMessages.obj
 0002:00009bd0       ??_C@_0CO@BBIFBNCF@NJS?9033?3?5an?5internal?5error?5occur@ 0000000180048bd0     njsMessages.obj
 0002:00009c00       ??_C@_0DB@LPMKGDAI@NJS?9034?3?5data?5type?5is?5unsupporte@ 0000000180048c00     njsMessages.obj
 0002:00009c38       ??_C@_0DI@GIABIGIA@NJS?9035?3?5maxArraySize?5is?5require@ 0000000180048c38     njsMessages.obj
 0002:00009c70       ??_C@_0DK@CJKKNDFP@NJS?9036?3?5given?5array?5is?5of?5size?5@ 0000000180048c70     njsMessages.obj
 0002:00009cb0       ??_C@_0CN@OAPEDDDP@NJS?9037?3?5incompatible?5type?5of?5va@ 0000000180048cb0     njsMessages.obj
 0002:00009ce0       ??_C@_0DF@KIBFGADN@NJS?9038?3?5maxArraySize?5value?5shou@ 0000000180048ce0     njsMessages.obj
 0002:00009d18       ??_C@_0DA@MGPCJFHJ@NJS?9039?3?5empty?5array?5is?5not?5allo@ 0000000180048d18     njsMessages.obj
 0002:00009d48       ??_C@_0CE@LNNNGBGB@NJS?9040?3?5connection?5request?5time@ 0000000180048d48     njsMessages.obj
 0002:00009f00       ??_C@_04KJLMFAGH@ILob?$AA@ 0000000180048f00     njsIntLob.obj
 0002:00009f08       ??_C@_04POLDLDMI@read?$AA@ 0000000180048f08     njsIntLob.obj
 0002:00009f10       ??_C@_05NGFEDHGN@write?$AA@ 0000000180048f10     njsIntLob.obj
 0002:00009f18       ??_C@_09OEGFCDGF@chunkSize?$AA@ 0000000180048f18     njsIntLob.obj
 0002:00009f24       ??_C@_06IJDLPEM@length?$AA@ 0000000180048f24     njsIntLob.obj
 0002:00009f30       ??_C@_09BIOBDMFG@pieceSize?$AA@ 0000000180048f30     njsIntLob.obj
 0002:00009f3c       ??_C@_06KLHHMIGM@offset?$AA@ 0000000180048f3c     njsIntLob.obj
 0002:00009f48       ??_C@_07NKICPBEH@LobRead?$AA@ 0000000180048f48     njsIntLob.obj
 0002:00009f50       ??_C@_08KLHHJIJO@LobWrite?$AA@ 0000000180048f50     njsIntLob.obj
 0002:00009f60       ??_7ILob@@6B@              0000000180048f60     njsIntLob.obj
 0002:00009f78       ??_7Env@dpi@@6B@           0000000180048f78     dpiEnv.obj
 0002:0000a018       ??_7Exception@dpi@@6B@     0000000180049018     dpiEnvImpl.obj
 0002:0000a040       ??_7EnvImpl@@6B@           0000000180049040     dpiEnvImpl.obj
 0002:0000a108       ??_7ExceptionImpl@@6B@     0000000180049108     dpiEnvImpl.obj
 0002:0000a130       ??_C@_07CIFAGBMG@unknown?$AA@ 0000000180049130     dpiExceptionImpl.obj
 0002:0000a138       ??_C@_0N@FKKFHCIB@not?5an?5error?$AA@ 0000000180049138     dpiExceptionImpl.obj
 0002:0000a148       ??_C@_0P@LPIEGNHB@internal?5error?$AA@ 0000000180049148     dpiExceptionImpl.obj
 0002:0000a158       ??_C@_0CA@EGKFLPDP@could?5not?5get?5OCI?5error?5message?$AA@ 0000000180049158     dpiExceptionImpl.obj
 0002:0000a178       ??_C@_0CC@DONOAHM@no?5OCI?5environment?5handle?5create@ 0000000180049178     dpiExceptionImpl.obj
 0002:0000a1a0       ??_C@_0CL@NBAEMACC@invalid?5state?5while?5working?5with@ 00000001800491a0     dpiExceptionImpl.obj
 0002:0000a1d0       ??_C@_0DB@DLEOEFBD@uninitialized?5state?5while?5workin@ 00000001800491d0     dpiExceptionImpl.obj
 0002:0000a210       ??_C@_0EH@IBENPCCD@user?5and?5password?5should?5not?5be?5@ 0000000180049210     dpiExceptionImpl.obj
 0002:0000a258       ??_C@_0CB@DEGMBPIK@invalid?5OCI?5handle?5or?5descriptor@ 0000000180049258     dpiExceptionImpl.obj
 0002:0000a280       ??_C@_0BJ@FDBIHNP@memory?5allocation?5failed?$AA@ 0000000180049280     dpiExceptionImpl.obj
 0002:0000a2a0       ??_C@_0BG@COLCDFLN@unexpected?5NULL?5value?$AA@ 00000001800492a0     dpiExceptionImpl.obj
 0002:0000a2b8       ??_C@_03IHMKDFHF@DPI?$AA@  00000001800492b8     dpiExceptionImpl.obj
 0002:0000a2bc       ??_C@_01JOAMLHOP@?9?$AA@   00000001800492bc     dpiExceptionImpl.obj
 0002:0000a2c0       ??_7Conn@dpi@@6B@          00000001800492c0     dpiConnImpl.obj
 0002:0000a350       ??_7ConnImpl@@6B@          0000000180049350     dpiConnImpl.obj
 0002:0000a3e8       ??_C@_06GOMJDJGK@?$CL00?300?$AA@ 00000001800493e8     dpiDateTimeArrayImpl.obj
 0002:0000a3f0       ??_7SPool@dpi@@6B@         00000001800493f0     dpiPoolImpl.obj
 0002:0000a3f0       ??_7DateTimeArray@dpi@@6B@ 00000001800493f0     dpiDateTimeArrayImpl.obj
 0002:0000a418       ??_7DateTimeArrayImpl@dpi@@6B@ 0000000180049418     dpiDateTimeArrayImpl.obj
 0002:0000a440       ??_7PoolImpl@@6B@          0000000180049440     dpiPoolImpl.obj
 0002:0000a480       ??_7StmtImpl@@6B@          0000000180049480     dpiStmtImpl.obj
 0002:0000a500       ??_7Stmt@dpi@@6B@          0000000180049500     dpiStmtImpl.obj
 0002:0000a580       ??_C@_03JLJGOMBC@ORA?$AA@  0000000180049580     dpiUtils.obj
 0002:0000a588       ??_C@_08HCOMDCCD@iojs?4exe?$AA@ 0000000180049588     win_delay_load_hook.obj
 0002:0000a598       ??_C@_08JDDNMFDB@node?4exe?$AA@ 0000000180049598     win_delay_load_hook.obj
 0002:0000b020       __real@38aa95a5b7f87a0f    000000018004a020     njsOracle.obj
 0002:0000b028       __real@3fe0000000000000    000000018004a028     njsOracle.obj
 0002:0000b030       __real@3ff0000000000000    000000018004a030     njsIntLob.obj
 0002:0000b038       __real@408f400000000000    000000018004a038     dpiDateTimeArrayImpl.obj
 0002:0000b040       __real@40ed4c0000000000    000000018004a040     dpiDateTimeArrayImpl.obj
 0002:0000b048       __real@412e848000000000    000000018004a048     dpiDateTimeArrayImpl.obj
 0002:0000b050       __real@414b774000000000    000000018004a050     dpiDateTimeArrayImpl.obj
 0002:0000b058       __real@4194997000000000    000000018004a058     dpiDateTimeArrayImpl.obj
 0002:0000b060       __real@4202a05f20000000    000000018004a060     njsOracle.obj
 0002:0000b068       __real@43e0000000000000    000000018004a068     njsIntLob.obj
 0002:0000b070       __real@43f0000000000000    000000018004a070     njsIntLob.obj
 0002:0000b078       __real@4733426172c74d82    000000018004a078     njsOracle.obj
 0002:0000b080       __xmm@80000000000000008000000000000000 000000018004a080     njsOracle.obj
 0002:0000c440       _load_config_used          000000018004b440     LIBCMT:loadcfg.obj
 0002:0000c530       ??_R4_Facet_base@std@@6B@  000000018004b530     libcpmt:locale0.obj
 0002:0000c558       ??_R3_Facet_base@std@@8    000000018004b558     libcpmt:locale0.obj
 0002:0000c570       ??_R2_Facet_base@std@@8    000000018004b570     libcpmt:locale0.obj
 0002:0000c580       ??_R1A@?0A@EA@_Facet_base@std@@8 000000018004b580     libcpmt:locale0.obj
 0002:0000c5a8       ??_R4_Locimp@locale@std@@6B@ 000000018004b5a8     libcpmt:locale0.obj
 0002:0000c5d0       ??_R3_Locimp@locale@std@@8 000000018004b5d0     libcpmt:locale0.obj
 0002:0000c5e8       ??_R2_Locimp@locale@std@@8 000000018004b5e8     libcpmt:locale0.obj
 0002:0000c608       ??_R1A@?0A@EA@_Locimp@locale@std@@8 000000018004b608     libcpmt:locale0.obj
 0002:0000c630       ??_R1A@?0A@EA@facet@locale@std@@8 000000018004b630     libcpmt:locale0.obj
 0002:0000c658       ??_R3facet@locale@std@@8   000000018004b658     libcpmt:locale0.obj
 0002:0000c670       ??_R2facet@locale@std@@8   000000018004b670     libcpmt:locale0.obj
 0002:0000c688       ??_R1A@?0A@EA@exception@std@@8 000000018004b688     libcpmt:xthrow.obj
 0002:0000c6b0       ??_R3exception@std@@8      000000018004b6b0     libcpmt:xthrow.obj
 0002:0000c6c8       ??_R2exception@std@@8      000000018004b6c8     libcpmt:xthrow.obj
 0002:0000c6d8       ??_R4bad_alloc@std@@6B@    000000018004b6d8     libcpmt:xthrow.obj
 0002:0000c700       ??_R3bad_alloc@std@@8      000000018004b700     libcpmt:xthrow.obj
 0002:0000c718       ??_R2bad_alloc@std@@8      000000018004b718     libcpmt:xthrow.obj
 0002:0000c730       ??_R1A@?0A@EA@bad_alloc@std@@8 000000018004b730     libcpmt:xthrow.obj
 0002:0000c758       ??_R4logic_error@std@@6B@  000000018004b758     libcpmt:xthrow.obj
 0002:0000c780       ??_R3logic_error@std@@8    000000018004b780     libcpmt:xthrow.obj
 0002:0000c798       ??_R2logic_error@std@@8    000000018004b798     libcpmt:xthrow.obj
 0002:0000c7b0       ??_R1A@?0A@EA@logic_error@std@@8 000000018004b7b0     libcpmt:xthrow.obj
 0002:0000c7d8       ??_R4length_error@std@@6B@ 000000018004b7d8     libcpmt:xthrow.obj
 0002:0000c800       ??_R3length_error@std@@8   000000018004b800     libcpmt:xthrow.obj
 0002:0000c818       ??_R2length_error@std@@8   000000018004b818     libcpmt:xthrow.obj
 0002:0000c838       ??_R1A@?0A@EA@length_error@std@@8 000000018004b838     libcpmt:xthrow.obj
 0002:0000c860       ??_R4out_of_range@std@@6B@ 000000018004b860     libcpmt:xthrow.obj
 0002:0000c888       ??_R3out_of_range@std@@8   000000018004b888     libcpmt:xthrow.obj
 0002:0000c8a0       ??_R2out_of_range@std@@8   000000018004b8a0     libcpmt:xthrow.obj
 0002:0000c8c0       ??_R1A@?0A@EA@out_of_range@std@@8 000000018004b8c0     libcpmt:xthrow.obj
 0002:0000c8e8       ??_R4runtime_error@std@@6B@ 000000018004b8e8     libcpmt:xthrow.obj
 0002:0000c910       ??_R3runtime_error@std@@8  000000018004b910     libcpmt:xthrow.obj
 0002:0000c928       ??_R2runtime_error@std@@8  000000018004b928     libcpmt:xthrow.obj
 0002:0000c940       ??_R1A@?0A@EA@runtime_error@std@@8 000000018004b940     libcpmt:xthrow.obj
 0002:0000c968       ??_R3ctype_base@std@@8     000000018004b968     libcpmt:locale.obj
 0002:0000c980       ??_R2ctype_base@std@@8     000000018004b980     libcpmt:locale.obj
 0002:0000c9a0       ??_R1A@?0A@EA@ctype_base@std@@8 000000018004b9a0     libcpmt:locale.obj
 0002:0000c9c8       ??_R4?$ctype@D@std@@6B@    000000018004b9c8     libcpmt:locale.obj
 0002:0000c9f0       ??_R3?$ctype@D@std@@8      000000018004b9f0     libcpmt:locale.obj
 0002:0000ca08       ??_R2?$ctype@D@std@@8      000000018004ba08     libcpmt:locale.obj
 0002:0000ca30       ??_R1A@?0A@EA@?$ctype@D@std@@8 000000018004ba30     libcpmt:locale.obj
 0002:0000ca58       ??_R4?$num_put@DV?$ostreambuf_iterator@DU?$char_traits@D@std@@@std@@@std@@6B@ 000000018004ba58     libcpmt:locale.obj
 0002:0000ca80       ??_R3?$num_put@DV?$ostreambuf_iterator@DU?$char_traits@D@std@@@std@@@std@@8 000000018004ba80     libcpmt:locale.obj
 0002:0000ca98       ??_R2?$num_put@DV?$ostreambuf_iterator@DU?$char_traits@D@std@@@std@@@std@@8 000000018004ba98     libcpmt:locale.obj
 0002:0000cab8       ??_R1A@?0A@EA@?$num_put@DV?$ostreambuf_iterator@DU?$char_traits@D@std@@@std@@@std@@8 000000018004bab8     libcpmt:locale.obj
 0002:0000cae0       ??_R4?$numpunct@D@std@@6B@ 000000018004bae0     libcpmt:locale.obj
 0002:0000cb08       ??_R3?$numpunct@D@std@@8   000000018004bb08     libcpmt:locale.obj
 0002:0000cb20       ??_R2?$numpunct@D@std@@8   000000018004bb20     libcpmt:locale.obj
 0002:0000cb40       ??_R1A@?0A@EA@?$numpunct@D@std@@8 000000018004bb40     libcpmt:locale.obj
 0002:0000cb68       ??_R4type_info@@6B@        000000018004bb68     LIBCMT:typinfo.obj
 0002:0000cb90       ??_R3type_info@@8          000000018004bb90     LIBCMT:typinfo.obj
 0002:0000cba8       ??_R2type_info@@8          000000018004bba8     LIBCMT:typinfo.obj
 0002:0000cbb8       ??_R1A@?0A@EA@type_info@@8 000000018004bbb8     LIBCMT:typinfo.obj
 0002:0000cbe0       ??_R4exception@std@@6B@    000000018004bbe0     LIBCMT:stdexcpt.obj
 0002:0000cc08       ??_R4bad_exception@std@@6B@ 000000018004bc08     LIBCMT:frame.obj
 0002:0000cc30       ??_R3bad_exception@std@@8  000000018004bc30     LIBCMT:frame.obj
 0002:0000cc48       ??_R2bad_exception@std@@8  000000018004bc48     LIBCMT:frame.obj
 0002:0000cc60       ??_R1A@?0A@EA@bad_exception@std@@8 000000018004bc60     LIBCMT:frame.obj
 0002:0000cc88       __rtc_iaa                  000000018004bc88     LIBCMT:initsect.obj
 0002:0000cc90       __rtc_izz                  000000018004bc90     LIBCMT:initsect.obj
 0002:0000cc98       __rtc_taa                  000000018004bc98     LIBCMT:initsect.obj
 0002:0000cca0       __rtc_tzz                  000000018004bca0     LIBCMT:initsect.obj
 0002:00013e60       _TI2?AVbad_alloc@std@@     0000000180052e60     libcpmt:xthrow.obj
 0002:00013e80       _CTA2?AVbad_alloc@std@@    0000000180052e80     libcpmt:xthrow.obj
 0002:00013e98       _CT??_R0?AVbad_alloc@std@@@8??0bad_alloc@std@@QEAA@AEBV01@@Z24 0000000180052e98     libcpmt:xthrow.obj
 0002:00013ec0       _CT??_R0?AVexception@std@@@8??0exception@std@@QEAA@AEBV01@@Z24 0000000180052ec0     libcpmt:xthrow.obj
 0002:00013ee8       _CT??_R0?AVlogic_error@std@@@8??0logic_error@std@@QEAA@AEBV01@@Z24 0000000180052ee8     libcpmt:xthrow.obj
 0002:00013f10       _TI3?AVlength_error@std@@  0000000180052f10     libcpmt:xthrow.obj
 0002:00013f30       _CTA3?AVlength_error@std@@ 0000000180052f30     libcpmt:xthrow.obj
 0002:00013f50       _CT??_R0?AVlength_error@std@@@8??0length_error@std@@QEAA@AEBV01@@Z24 0000000180052f50     libcpmt:xthrow.obj
 0002:00013f78       _TI3?AVout_of_range@std@@  0000000180052f78     libcpmt:xthrow.obj
 0002:00013f98       _CTA3?AVout_of_range@std@@ 0000000180052f98     libcpmt:xthrow.obj
 0002:00013fb8       _CT??_R0?AVout_of_range@std@@@8??0out_of_range@std@@QEAA@AEBV01@@Z24 0000000180052fb8     libcpmt:xthrow.obj
 0002:00013fe0       _TI2?AVbad_exception@std@@ 0000000180052fe0     LIBCMT:frame.obj
 0002:00014000       _CTA2?AVbad_exception@std@@ 0000000180053000     LIBCMT:frame.obj
 0002:00014018       _CT??_R0?AVbad_exception@std@@@8??0bad_exception@std@@QEAA@AEBV01@@Z24 0000000180053018     LIBCMT:frame.obj
 0002:00014040       _TI3?AVExceptionImpl@@     0000000180053040     dpiEnvImpl.obj
 0002:00014060       _CT??_R0?AVExceptionImpl@@@8??0ExceptionImpl@@QEAA@AEBV0@@Z88 0000000180053060     dpiEnvImpl.obj
 0002:00014088       _CT??_R0?AVexception@stdext@@@8??0exception@stdext@@QEAA@AEBV01@@Z16 0000000180053088     dpiEnvImpl.obj
 0002:000140b0       _CT??_R0?AVException@dpi@@@8??0Exception@dpi@@QEAA@AEBV01@@Z16 00000001800530b0     dpiEnvImpl.obj
 0002:000140d8       _CTA3?AVExceptionImpl@@    00000001800530d8     dpiEnvImpl.obj
 0002:000140f4       __DELAY_IMPORT_DESCRIPTOR_node_exe 00000001800530f4     node:node.exe
 0002:00014114       __NULL_DELAY_IMPORT_DESCRIPTOR 0000000180053114     node:node.exe
 0002:000143f8       \177node_NULL_THUNK_DATA_DLN 00000001800533f8     node:node.exe
 0002:000159c0       \177node_NULL_THUNK_DATA_DLB 00000001800549c0     node:node.exe
 0002:00015cd4       __IMPORT_DESCRIPTOR_KERNEL32 0000000180054cd4     kernel32:KERNEL32.dll
 0002:00015ce8       __IMPORT_DESCRIPTOR_OCI    0000000180054ce8     oci:OCI.dll
 0002:00015cfc       __NULL_IMPORT_DESCRIPTOR   0000000180054cfc     kernel32:KERNEL32.dll
 0003:00000000       ?_Sync@ios_base@std@@0_NA  0000000180056000     libcpmt:ios.obj
 0003:00000020       ?_PJP_CPP_Copyright@@3PADA 0000000180056020     libcpmt:iosptrs.obj
 0003:00000080       _FDenorm                   0000000180056080     libcpmt:xfvalues.obj
 0003:00000090       _FInf                      0000000180056090     libcpmt:xfvalues.obj
 0003:000000a0       _FNan                      00000001800560a0     libcpmt:xfvalues.obj
 0003:000000b0       _FSnan                     00000001800560b0     libcpmt:xfvalues.obj
 0003:000000c0       _FEps                      00000001800560c0     libcpmt:xfvalues.obj
 0003:000000d0       _FRteps                    00000001800560d0     libcpmt:xfvalues.obj
 0003:000000e0       _FXbig                     00000001800560e0     libcpmt:xfvalues.obj
 0003:000000e8       _Denorm                    00000001800560e8     libcpmt:xvalues.obj
 0003:000000f8       _Hugeval                   00000001800560f8     libcpmt:xvalues.obj
 0003:00000108       _Inf                       0000000180056108     libcpmt:xvalues.obj
 0003:00000118       _Nan                       0000000180056118     libcpmt:xvalues.obj
 0003:00000128       _Snan                      0000000180056128     libcpmt:xvalues.obj
 0003:00000138       _Eps                       0000000180056138     libcpmt:xvalues.obj
 0003:00000148       _Rteps                     0000000180056148     libcpmt:xvalues.obj
 0003:00000158       _Xbig                      0000000180056158     libcpmt:xvalues.obj
 0003:00000160       _LDenorm                   0000000180056160     libcpmt:xlvalues.obj
 0003:00000170       _LInf                      0000000180056170     libcpmt:xlvalues.obj
 0003:00000180       _LNan                      0000000180056180     libcpmt:xlvalues.obj
 0003:00000190       _LSnan                     0000000180056190     libcpmt:xlvalues.obj
 0003:000001a0       _LEps                      00000001800561a0     libcpmt:xlvalues.obj
 0003:000001b0       _LRteps                    00000001800561b0     libcpmt:xlvalues.obj
 0003:000001c0       _LXbig                     00000001800561c0     libcpmt:xlvalues.obj
 0003:000001d0       __abort_behavior           00000001800561d0     LIBCMT:abort.obj
 0003:000001e0       __lconv_c                  00000001800561e0     LIBCMT:lconv.obj
 0003:00000278       __lconv_static_decimal     0000000180056278     LIBCMT:lconv.obj
 0003:0000027c       __lconv_static_W_decimal   000000018005627c     LIBCMT:lconv.obj
 0003:00000280       __lconv                    0000000180056280     LIBCMT:lconv.obj
 0003:00000470       _fltused                   0000000180056470     LIBCMT:fpinit.obj
 0003:00000474       _ldused                    0000000180056474     LIBCMT:fpinit.obj
 0003:000006c0       _pctype                    00000001800566c0     LIBCMT:ctype.obj
 0003:000006c8       _pwctype                   00000001800566c8     LIBCMT:ctype.obj
 0003:000006d0       __security_cookie          00000001800566d0     LIBCMT:gs_cookie.obj
 0003:000006d8       __security_cookie_complement 00000001800566d8     LIBCMT:gs_cookie.obj
 0003:000006f0       __nullstring               00000001800566f0     LIBCMT:output.obj
 0003:000006f8       __wnullstring              00000001800566f8     LIBCMT:output.obj
 0003:00000700       __isa_available            0000000180056700     LIBCMT:cpu_disp.obj
 0003:00000704       __isa_enabled              0000000180056704     LIBCMT:cpu_disp.obj
 0003:00000708       __flsindex                 0000000180056708     LIBCMT:tidtable.obj
 0003:0000070c       __mb_cur_max               000000018005670c     LIBCMT:nlsdata.obj
 0003:00000710       __wclocalestr              0000000180056710     LIBCMT:nlsdata.obj
 0003:00000720       __lc_time_c                0000000180056720     LIBCMT:nlsdata.obj
 0003:000009e0       __ptlocinfo                00000001800569e0     LIBCMT:nlsdata.obj
 0003:000009f0       __initiallocinfo           00000001800569f0     LIBCMT:nlsdata.obj
 0003:00000b48       __globallocalestatus       0000000180056b48     LIBCMT:glstatus.obj
 0003:00000b50       _iob                       0000000180056b50     LIBCMT:_file.obj
 0003:00000f20       _mbctype                   0000000180056f20     LIBCMT:mbctype.obj
 0003:00001030       _mbcasemap                 0000000180057030     LIBCMT:mbctype.obj
 0003:00001130       __initialmbcinfo           0000000180057130     LIBCMT:mbctype.obj
 0003:00001450       __ptmbcinfo                0000000180057450     LIBCMT:mbctype.obj
 0003:00001460       __badioinfo                0000000180057460     LIBCMT:ioinit.obj
 0003:000014c0       _cfltcvt_tab               00000001800574c0     LIBCMT:cmiscdat.obj
 0003:00001510       _d_inf                     0000000180057510     LIBCMT:util.obj
 0003:00001518       _d_ind                     0000000180057518     LIBCMT:util.obj
 0003:00001520       _d_max                     0000000180057520     LIBCMT:util.obj
 0003:00001528       _d_min                     0000000180057528     LIBCMT:util.obj
 0003:00001530       _d_mzero                   0000000180057530     LIBCMT:util.obj
 0003:00001730       _timezone                  0000000180057730     LIBCMT:timeset.obj
 0003:00001734       _daylight                  0000000180057734     LIBCMT:timeset.obj
 0003:00001738       _dstbias                   0000000180057738     LIBCMT:timeset.obj
 0003:000017c0       _tzname                    00000001800577c0     LIBCMT:timeset.obj
 0003:000017d0       _matherr_flag              00000001800577d0     LIBCMT:matherr.obj
 0003:000017e0       _days                      00000001800577e0     LIBCMT:days.obj
 0003:00001818       _lpdays                    0000000180057818     LIBCMT:days.obj
 0003:00001880       _confh                     0000000180057880     LIBCMT:initcon.obj
 0003:00001890       _pow10pos                  0000000180057890     LIBCMT:constpow.obj
 0003:000019f0       _pow10neg                  00000001800579f0     LIBCMT:constpow.obj
 0003:00001b50       _HUGE                      0000000180057b50     LIBCMT:huge.obj
 0003:00001ba0       __pfnDliNotifyHook2        0000000180057ba0     win_delay_load_hook.obj
 0003:00001bb0       ??_R0?AV_Facet_base@std@@@8 0000000180057bb0     libcpmt:locale0.obj
 0003:00001bd8       ??_R0?AV_Locimp@locale@std@@@8 0000000180057bd8     libcpmt:locale0.obj
 0003:00001c08       ??_R0?AVfacet@locale@std@@@8 0000000180057c08     libcpmt:locale0.obj
 0003:00001c30       ??_R0?AVbad_alloc@std@@@8  0000000180057c30     libcpmt:xthrow.obj
 0003:00001c58       ??_R0?AVexception@std@@@8  0000000180057c58     libcpmt:xthrow.obj
 0003:00001c80       ??_R0?AVlogic_error@std@@@8 0000000180057c80     libcpmt:xthrow.obj
 0003:00001ca8       ??_R0?AVlength_error@std@@@8 0000000180057ca8     libcpmt:xthrow.obj
 0003:00001cd0       ??_R0?AVout_of_range@std@@@8 0000000180057cd0     libcpmt:xthrow.obj
 0003:00001cf8       ??_R0?AVruntime_error@std@@@8 0000000180057cf8     libcpmt:xthrow.obj
 0003:00001d20       ??_R0?AUctype_base@std@@@8 0000000180057d20     libcpmt:locale.obj
 0003:00001d48       ??_R0?AV?$ctype@D@std@@@8  0000000180057d48     libcpmt:locale.obj
 0003:00001d70       ??_R0?AV?$num_put@DV?$ostreambuf_iterator@DU?$char_traits@D@std@@@std@@@std@@@8 0000000180057d70     libcpmt:locale.obj
 0003:00001dd0       ??_R0?AV?$numpunct@D@std@@@8 0000000180057dd0     libcpmt:locale.obj
 0003:00001df8       ??_R0?AVtype_info@@@8      0000000180057df8     LIBCMT:typinfo.obj
 0003:00001e18       ??_R0?AVbad_exception@std@@@8 0000000180057e18     LIBCMT:frame.obj
 0003:00001e40       ??_R0?AVException@dpi@@@8  0000000180057e40     njsOracle.obj
 0003:00001e68       ??_R0?AVExceptionImpl@@@8  0000000180057e68     dpiEnvImpl.obj
 0003:00001e90       ??_R0?AVexception@stdext@@@8 0000000180057e90     dpiEnvImpl.obj
 0003:00001eb8       __imp_?FatalException@node@@YAXPEAVIsolate@v8@@AEBVTryCatch@3@@Z 0000000180057eb8     node:node.exe
 0003:00001ec0       __imp_node_module_register 0000000180057ec0     node:node.exe
 0003:00001ec8       __imp_?MakeCallback@node@@YA?AV?$Local@VValue@v8@@@v8@@PEAVIsolate@3@V?$Local@VObject@v8@@@3@V?$Local@VFunction@v8@@@3@HPEAV23@@Z 0000000180057ec8     node:node.exe
 0003:00001ed0       __imp_uv_default_loop      0000000180057ed0     node:node.exe
 0003:00001ed8       __imp_?HasCaught@TryCatch@v8@@QEBA_NXZ 0000000180057ed8     node:node.exe
 0003:00001ee0       __imp_??1TryCatch@v8@@QEAA@XZ 0000000180057ee0     node:node.exe
 0003:00001ee8       __imp_??0TryCatch@v8@@QEAA@PEAVIsolate@1@@Z 0000000180057ee8     node:node.exe
 0003:00001ef0       __imp_?New@Signature@v8@@SA?AV?$Local@VSignature@v8@@@2@PEAVIsolate@2@V?$Local@VFunctionTemplate@v8@@@2@@Z 0000000180057ef0     node:node.exe
 0003:00001ef8       __imp_?Global@Context@v8@@QEAA?AV?$Local@VObject@v8@@@2@XZ 0000000180057ef8     node:node.exe
 0003:00001f00       __imp_?ToLocalEmpty@V8@v8@@CAXXZ 0000000180057f00     node:node.exe
 0003:00001f08       __imp_?ClearWeak@V8@v8@@CAPEAXPEAPEAVObject@internal@2@@Z 0000000180057f08     node:node.exe
 0003:00001f10       __imp_?MakeWeak@V8@v8@@CAXPEAPEAVObject@internal@2@PEAXP6AXAEBV?$WeakCallbackInfo@X@2@@ZW4WeakCallbackType@2@@Z 0000000180057f10     node:node.exe
 0003:00001f18       __imp_?DisposeGlobal@V8@v8@@CAXPEAPEAVObject@internal@2@@Z 0000000180057f18     node:node.exe
 0003:00001f20       __imp_?GlobalizeReference@V8@v8@@CAPEAPEAVObject@internal@2@PEAVIsolate@42@PEAPEAV342@@Z 0000000180057f20     node:node.exe
 0003:00001f28       __imp_?Escape@EscapableHandleScope@v8@@AEAAPEAPEAVObject@internal@2@PEAPEAV342@@Z 0000000180057f28     node:node.exe
 0003:00001f30       __imp_??0EscapableHandleScope@v8@@QEAA@PEAVIsolate@1@@Z 0000000180057f30     node:node.exe
 0003:00001f38       __imp_?ToInteger@Value@v8@@QEBA?AV?$MaybeLocal@VInteger@v8@@@2@V?$Local@VContext@v8@@@2@@Z 0000000180057f38     node:node.exe
 0003:00001f40       __imp_?IsUint32@Value@v8@@QEBA_NXZ 0000000180057f40     node:node.exe
 0003:00001f48       __imp_?IsNumber@Value@v8@@QEBA_NXZ 0000000180057f48     node:node.exe
 0003:00001f50       __imp_?IsObject@Value@v8@@QEBA_NXZ 0000000180057f50     node:node.exe
 0003:00001f58       __imp_?IsArray@Value@v8@@QEBA_NXZ 0000000180057f58     node:node.exe
 0003:00001f60       __imp_?IsFunction@Value@v8@@QEBA_NXZ 0000000180057f60     node:node.exe
 0003:00001f68       __imp_?SetClassName@FunctionTemplate@v8@@QEAAXV?$Local@VString@v8@@@2@@Z 0000000180057f68     node:node.exe
 0003:00001f70       __imp_?PrototypeTemplate@FunctionTemplate@v8@@QEAA?AV?$Local@VObjectTemplate@v8@@@2@XZ 0000000180057f70     node:node.exe
 0003:00001f78       __imp_?InstanceTemplate@FunctionTemplate@v8@@QEAA?AV?$Local@VObjectTemplate@v8@@@2@XZ 0000000180057f78     node:node.exe
 0003:00001f80       __imp_?GetFunction@FunctionTemplate@v8@@QEAA?AV?$Local@VFunction@v8@@@2@XZ 0000000180057f80     node:node.exe
 0003:00001f88       __imp_?GetFunction@FunctionTemplate@v8@@QEAA?AV?$MaybeLocal@VFunction@v8@@@2@V?$Local@VContext@v8@@@2@@Z 0000000180057f88     node:node.exe
 0003:00001f90       __imp_?New@FunctionTemplate@v8@@SA?AV?$Local@VFunctionTemplate@v8@@@2@PEAVIsolate@2@P6AXAEBV?$FunctionCallbackInfo@VValue@v8@@@2@@ZV?$Local@VValue@v8@@@2@V?$Local@VSignature@v8@@@2@H@Z 0000000180057f90     node:node.exe
 0003:00001f98       __imp_?Error@Exception@v8@@SA?AV?$Local@VValue@v8@@@2@V?$Local@VString@v8@@@2@@Z 0000000180057f98     node:node.exe
 0003:00001fa0       __imp_??1Utf8Value@String@v8@@QEAA@XZ 0000000180057fa0     node:node.exe
 0003:00001fa8       __imp_??0Utf8Value@String@v8@@QEAA@V?$Local@VValue@v8@@@2@@Z 0000000180057fa8     node:node.exe
 0003:00001fb0       __imp_?NewFromUtf8@String@v8@@SA?AV?$MaybeLocal@VString@v8@@@2@PEAVIsolate@2@PEBDW4NewStringType@2@H@Z 0000000180057fb0     node:node.exe
 0003:00001fb8       __imp_?New@Array@v8@@SA?AV?$Local@VArray@v8@@@2@PEAVIsolate@2@H@Z 0000000180057fb8     node:node.exe
 0003:00001fc0       __imp_?Length@Array@v8@@QEBAIXZ 0000000180057fc0     node:node.exe
 0003:00001fc8       __imp_?CreateHandle@HandleScope@v8@@KAPEAPEAVObject@internal@2@PEAVIsolate@42@PEAV342@@Z 0000000180057fc8     node:node.exe
 0003:00001fd0       __imp_?CreateHandle@HandleScope@v8@@CAPEAPEAVObject@internal@2@PEAVHeapObject@42@PEAV342@@Z 0000000180057fd0     node:node.exe
 0003:00001fd8       __imp_??1HandleScope@v8@@QEAA@XZ 0000000180057fd8     node:node.exe
 0003:00001fe0       __imp_??0HandleScope@v8@@QEAA@PEAVIsolate@1@@Z 0000000180057fe0     node:node.exe
 0003:00001fe8       __imp_?Value@Boolean@v8@@QEBA_NXZ 0000000180057fe8     node:node.exe
 0003:00001ff0       __imp_?SlowGetAlignedPointerFromInternalField@Object@v8@@AEAAPEAXH@Z 0000000180057ff0     node:node.exe
 0003:00001ff8       __imp_?SlowGetInternalField@Object@v8@@AEAA?AV?$Local@VValue@v8@@@2@H@Z 0000000180057ff8     node:node.exe
 0003:00002000       __imp_?SetAlignedPointerInInternalField@Object@v8@@QEAAXHPEAX@Z 0000000180058000     node:node.exe
 0003:00002008       __imp_?SetInternalField@Object@v8@@QEAAXHV?$Local@VValue@v8@@@2@@Z 0000000180058008     node:node.exe
 0003:00002010       __imp_?InternalFieldCount@Object@v8@@QEAAHXZ 0000000180058010     node:node.exe
 0003:00002018       __imp_?Get@Object@v8@@QEAA?AV?$Local@VValue@v8@@@2@V32@@Z 0000000180058018     node:node.exe
 0003:00002020       __imp_?Get@Object@v8@@QEAA?AV?$Local@VValue@v8@@@2@I@Z 0000000180058020     node:node.exe
 0003:00002028       __imp_?Set@Object@v8@@QEAA?AV?$Maybe@_N@2@V?$Local@VContext@v8@@@2@V?$Local@VValue@v8@@@2@1@Z 0000000180058028     node:node.exe
 0003:00002030       __imp_?Set@Object@v8@@QEAA_NIV?$Local@VValue@v8@@@2@@Z 0000000180058030     node:node.exe
 0003:00002038       __imp_?Set@Template@v8@@QEAAXV?$Local@VName@v8@@@2@V?$Local@VData@v8@@@2@W4PropertyAttribute@2@@Z 0000000180058038     node:node.exe
 0003:00002040       __imp_?Value@Int32@v8@@QEBAHXZ 0000000180058040     node:node.exe
 0003:00002048       __imp_?SetInternalFieldCount@ObjectTemplate@v8@@QEAAXH@Z 0000000180058048     node:node.exe
 0003:00002050       __imp_?SetAccessor@ObjectTemplate@v8@@QEAAXV?$Local@VName@v8@@@2@P6AX0AEBV?$PropertyCallbackInfo@VValue@v8@@@2@@ZP6AX0V?$Local@VValue@v8@@@2@AEBV?$PropertyCallbackInfo@X@2@@Z3W4AccessControl@2@W4PropertyAttribute@2@V?$Local@VAccessorSignature@v8@@@2@@Z 0000000180058050     node:node.exe
 0003:00002058       __imp_?NewInstance@ObjectTemplate@v8@@QEAA?AV?$MaybeLocal@VObject@v8@@@2@V?$Local@VContext@v8@@@2@@Z 0000000180058058     node:node.exe
 0003:00002060       __imp_?New@ObjectTemplate@v8@@SA?AV?$Local@VObjectTemplate@v8@@@2@PEAVIsolate@2@V?$Local@VFunctionTemplate@v8@@@2@@Z 0000000180058060     node:node.exe
 0003:00002068       __imp_?NewFromUnsigned@Integer@v8@@SA?AV?$Local@VInteger@v8@@@2@PEAVIsolate@2@I@Z 0000000180058068     node:node.exe
 0003:00002070       __imp_?New@Integer@v8@@SA?AV?$Local@VInteger@v8@@@2@PEAVIsolate@2@H@Z 0000000180058070     node:node.exe
 0003:00002078       __imp_?SetName@Function@v8@@QEAAXV?$Local@VString@v8@@@2@@Z 0000000180058078     node:node.exe
 0003:00002080       __imp_?NewInstance@Function@v8@@QEBA?AV?$Local@VObject@v8@@@2@XZ 0000000180058080     node:node.exe
 0003:00002088       __imp_?Value@Uint32@v8@@QEBAIXZ 0000000180058088     node:node.exe
 0003:00002090       __imp_?ThrowException@Isolate@v8@@QEAA?AV?$Local@VValue@v8@@@2@V32@@Z 0000000180058090     node:node.exe
 0003:00002098       __imp_?GetCurrentContext@Isolate@v8@@QEAA?AV?$Local@VContext@v8@@@2@XZ 0000000180058098     node:node.exe
 0003:000020a0       __imp_?GetCurrent@Isolate@v8@@SAPEAV12@XZ 00000001800580a0     node:node.exe
 0003:000020a8       __imp_?Value@External@v8@@QEBAPEAXXZ 00000001800580a8     node:node.exe
 0003:000020b0       __imp_?New@External@v8@@SA?AV?$Local@VExternal@v8@@@2@PEAVIsolate@2@PEAX@Z 00000001800580b0     node:node.exe
 0003:000020b8       __imp_uv_queue_work        00000001800580b8     node:node.exe
 0003:000020c0       __imp_?ToInt32@Value@v8@@QEBA?AV?$Local@VInt32@v8@@@2@XZ 00000001800580c0     node:node.exe
 0003:000020c8       __imp_?ToUint32@Value@v8@@QEBA?AV?$Local@VUint32@v8@@@2@XZ 00000001800580c8     node:node.exe
 0003:000020d0       __imp_?ToObject@Value@v8@@QEBA?AV?$Local@VObject@v8@@@2@XZ 00000001800580d0     node:node.exe
 0003:000020d8       __imp_?ToString@Value@v8@@QEBA?AV?$Local@VString@v8@@@2@XZ 00000001800580d8     node:node.exe
 0003:000020e0       __imp_?ToBoolean@Value@v8@@QEBA?AV?$Local@VBoolean@v8@@@2@XZ 00000001800580e0     node:node.exe
 0003:000020e8       __imp_?length@Utf8Value@String@v8@@QEBAHXZ 00000001800580e8     node:node.exe
 0003:000020f0       __imp_??DUtf8Value@String@v8@@QEAAPEADXZ 00000001800580f0     node:node.exe
 0003:000020f8       __imp_??1EscapableHandleScope@v8@@QEAA@XZ 00000001800580f8     node:node.exe
 0003:00002100       __imp_?Length@Buffer@node@@YA_KV?$Local@VObject@v8@@@v8@@@Z 0000000180058100     node:node.exe
 0003:00002108       __imp_?Data@Buffer@node@@YAPEADV?$Local@VObject@v8@@@v8@@@Z 0000000180058108     node:node.exe
 0003:00002110       __imp_?HasInstance@Buffer@node@@YA_NV?$Local@VValue@v8@@@v8@@@Z 0000000180058110     node:node.exe
 0003:00002118       __imp_?HasInstance@Buffer@node@@YA_NV?$Local@VObject@v8@@@v8@@@Z 0000000180058118     node:node.exe
 0003:00002120       __imp_?Copy@Buffer@node@@YA?AV?$MaybeLocal@VObject@v8@@@v8@@PEAVIsolate@4@PEBD_K@Z 0000000180058120     node:node.exe
 0003:00002128       __imp_?New@Date@v8@@SA?AV?$MaybeLocal@VValue@v8@@@2@V?$Local@VContext@v8@@@2@N@Z 0000000180058128     node:node.exe
 0003:00002130       __imp_?NumberValue@Value@v8@@QEBANXZ 0000000180058130     node:node.exe
 0003:00002138       __imp_?IsDate@Value@v8@@QEBA_NXZ 0000000180058138     node:node.exe
 0003:00002140       __imp_?IsInt32@Value@v8@@QEBA_NXZ 0000000180058140     node:node.exe
 0003:00002148       __imp_?New@Number@v8@@SA?AV?$Local@VNumber@v8@@@2@PEAVIsolate@2@N@Z 0000000180058148     node:node.exe
 0003:00002150       __imp_?New@Object@v8@@SA?AV?$Local@VObject@v8@@@2@PEAVIsolate@2@@Z 0000000180058150     node:node.exe
 0003:00002158       __imp_?GetOwnPropertyNames@Object@v8@@QEAA?AV?$Local@VArray@v8@@@2@XZ 0000000180058158     node:node.exe
 0003:00002160       __imp_?ForceSet@Object@v8@@QEAA?AV?$Maybe@_N@2@V?$Local@VContext@v8@@@2@V?$Local@VValue@v8@@@2@1W4PropertyAttribute@2@@Z 0000000180058160     node:node.exe
 0003:00002168       __imp_?Set@Object@v8@@QEAA?AV?$Maybe@_N@2@V?$Local@VContext@v8@@@2@IV?$Local@VValue@v8@@@2@@Z 0000000180058168     node:node.exe
 0003:00002170       __imp_?Call@Function@v8@@QEAA?AV?$Local@VValue@v8@@@2@V32@HQEAV32@@Z 0000000180058170     node:node.exe
 0003:00002178       \177node_NULL_THUNK_DATA_DLA 0000000180058178     node:node.exe
 0003:00002180       __hmod__node_exe           0000000180058180     node:node.exe
 0003:00002190       ?_Id_cnt@id@locale@std@@0HA 0000000180058190     libcpmt:locale0.obj
 0003:000021a0       ?_Clocptr@_Locimp@locale@std@@0PEAV123@EA 00000001800581a0     libcpmt:locale0.obj
 0003:000021b0       ?id@?$codecvt@GDH@std@@2V0locale@2@A 00000001800581b0     libcpmt:locale0.obj
 0003:000021b8       ?id@?$ctype@D@std@@2V0locale@2@A 00000001800581b8     libcpmt:locale0.obj
 0003:000021c0       ?id@?$codecvt@_WDH@std@@2V0locale@2@A 00000001800581c0     libcpmt:locale0.obj
 0003:000021d8       ?id@?$ctype@G@std@@2V0locale@2@A 00000001800581d8     libcpmt:locale0.obj
 0003:000021e0       ?id@?$ctype@_W@std@@2V0locale@2@A 00000001800581e0     libcpmt:locale0.obj
 0003:000021f0       ?_Index@ios_base@std@@0HA  00000001800581f0     libcpmt:ios.obj
 0003:00002260       ?_Raise_handler@std@@3P6AXAEBVexception@stdext@@@ZEA 0000000180058260     libcpmt:raisehan.obj
 0003:00002330       ?_Ptr_cin@std@@3PEAV?$basic_istream@DU?$char_traits@D@std@@@1@EA 0000000180058330     libcpmt:iosptrs.obj
 0003:00002338       ?_Ptr_cout@std@@3PEAV?$basic_ostream@DU?$char_traits@D@std@@@1@EA 0000000180058338     libcpmt:iosptrs.obj
 0003:00002340       ?_Ptr_cerr@std@@3PEAV?$basic_ostream@DU?$char_traits@D@std@@@1@EA 0000000180058340     libcpmt:iosptrs.obj
 0003:00002348       ?_Ptr_clog@std@@3PEAV?$basic_ostream@DU?$char_traits@D@std@@@1@EA 0000000180058348     libcpmt:iosptrs.obj
 0003:00002350       ?_Ptr_wcin@std@@3PEAV?$basic_istream@_WU?$char_traits@_W@std@@@1@EA 0000000180058350     libcpmt:iosptrs.obj
 0003:00002358       ?_Ptr_wcout@std@@3PEAV?$basic_ostream@_WU?$char_traits@_W@std@@@1@EA 0000000180058358     libcpmt:iosptrs.obj
 0003:00002360       ?_Ptr_wcerr@std@@3PEAV?$basic_ostream@_WU?$char_traits@_W@std@@@1@EA 0000000180058360     libcpmt:iosptrs.obj
 0003:00002368       ?_Ptr_wclog@std@@3PEAV?$basic_ostream@_WU?$char_traits@_W@std@@@1@EA 0000000180058368     libcpmt:iosptrs.obj
 0003:000023c8       ?id@?$num_get@DV?$istreambuf_iterator@DU?$char_traits@D@std@@@std@@@std@@2V0locale@2@A 00000001800583c8     libcpmt:locale.obj
 0003:000023d0       ?id@?$codecvt@DDH@std@@2V0locale@2@A 00000001800583d0     libcpmt:locale.obj
 0003:000023e0       ?id@?$time_put@_WV?$ostreambuf_iterator@_WU?$char_traits@_W@std@@@std@@@std@@2V0locale@2@A 00000001800583e0     libcpmt:wlocale.obj
 0003:000023e8       ?id@?$num_get@_WV?$istreambuf_iterator@_WU?$char_traits@_W@std@@@std@@@std@@2V0locale@2@A 00000001800583e8     libcpmt:wlocale.obj
 0003:000023f0       ?id@?$num_put@_WV?$ostreambuf_iterator@_WU?$char_traits@_W@std@@@std@@@std@@2V0locale@2@A 00000001800583f0     libcpmt:wlocale.obj
 0003:000023f8       ?id@?$collate@_W@std@@2V0locale@2@A 00000001800583f8     libcpmt:wlocale.obj
 0003:00002400       ?id@?$messages@_W@std@@2V0locale@2@A 0000000180058400     libcpmt:wlocale.obj
 0003:00002408       ?id@?$money_get@_WV?$istreambuf_iterator@_WU?$char_traits@_W@std@@@std@@@std@@2V0locale@2@A 0000000180058408     libcpmt:wlocale.obj
 0003:00002410       ?id@?$money_put@_WV?$ostreambuf_iterator@_WU?$char_traits@_W@std@@@std@@@std@@2V0locale@2@A 0000000180058410     libcpmt:wlocale.obj
 0003:00002418       ?id@?$moneypunct@_W$0A@@std@@2V0locale@2@A 0000000180058418     libcpmt:wlocale.obj
 0003:00002420       ?id@?$moneypunct@_W$00@std@@2V0locale@2@A 0000000180058420     libcpmt:wlocale.obj
 0003:00002428       ?id@?$time_get@_WV?$istreambuf_iterator@_WU?$char_traits@_W@std@@@std@@@std@@2V0locale@2@A 0000000180058428     libcpmt:wlocale.obj
 0003:00002430       ?id@?$num_get@GV?$istreambuf_iterator@GU?$char_traits@G@std@@@std@@@std@@2V0locale@2@A 0000000180058430     libcpmt:wlocale.obj
 0003:00002438       ?id@?$num_put@GV?$ostreambuf_iterator@GU?$char_traits@G@std@@@std@@@std@@2V0locale@2@A 0000000180058438     libcpmt:wlocale.obj
 0003:00002440       ?id@?$numpunct@G@std@@2V0locale@2@A 0000000180058440     libcpmt:wlocale.obj
 0003:00002448       ?id@?$collate@G@std@@2V0locale@2@A 0000000180058448     libcpmt:wlocale.obj
 0003:00002450       ?id@?$messages@G@std@@2V0locale@2@A 0000000180058450     libcpmt:wlocale.obj
 0003:00002458       ?id@?$money_get@GV?$istreambuf_iterator@GU?$char_traits@G@std@@@std@@@std@@2V0locale@2@A 0000000180058458     libcpmt:wlocale.obj
 0003:00002460       ?id@?$money_put@GV?$ostreambuf_iterator@GU?$char_traits@G@std@@@std@@@std@@2V0locale@2@A 0000000180058460     libcpmt:wlocale.obj
 0003:00002468       ?id@?$moneypunct@G$0A@@std@@2V0locale@2@A 0000000180058468     libcpmt:wlocale.obj
 0003:00002470       ?id@?$moneypunct@G$00@std@@2V0locale@2@A 0000000180058470     libcpmt:wlocale.obj
 0003:00002478       ?id@?$time_get@GV?$istreambuf_iterator@GU?$char_traits@G@std@@@std@@@std@@2V0locale@2@A 0000000180058478     libcpmt:wlocale.obj
 0003:00002480       ?id@?$time_put@GV?$ostreambuf_iterator@GU?$char_traits@G@std@@@std@@@std@@2V0locale@2@A 0000000180058480     libcpmt:wlocale.obj
 0003:00002490       ?id@?$collate@D@std@@2V0locale@2@A 0000000180058490     libcpmt:xlocale.obj
 0003:00002498       ?id@?$messages@D@std@@2V0locale@2@A 0000000180058498     libcpmt:xlocale.obj
 0003:000024a0       ?id@?$money_get@DV?$istreambuf_iterator@DU?$char_traits@D@std@@@std@@@std@@2V0locale@2@A 00000001800584a0     libcpmt:xlocale.obj
 0003:000024a8       ?id@?$money_put@DV?$ostreambuf_iterator@DU?$char_traits@D@std@@@std@@@std@@2V0locale@2@A 00000001800584a8     libcpmt:xlocale.obj
 0003:000024b0       ?id@?$moneypunct@D$0A@@std@@2V0locale@2@A 00000001800584b0     libcpmt:xlocale.obj
 0003:000024b8       ?id@?$moneypunct@D$00@std@@2V0locale@2@A 00000001800584b8     libcpmt:xlocale.obj
 0003:000024c0       ?id@?$time_get@DV?$istreambuf_iterator@DU?$char_traits@D@std@@@std@@@std@@2V0locale@2@A 00000001800584c0     libcpmt:xlocale.obj
 0003:000024c8       ?id@?$time_put@DV?$ostreambuf_iterator@DU?$char_traits@D@std@@@std@@@std@@2V0locale@2@A 00000001800584c8     libcpmt:xlocale.obj
 0003:000024d4       _FZero                     00000001800584d4     libcpmt:xfvalues.obj
 0003:000024d8       _Zero                      00000001800584d8     libcpmt:xvalues.obj
 0003:000024e0       _LZero                     00000001800584e0     libcpmt:xlvalues.obj
 0003:000024e8       __pInvalidArgHandler       00000001800584e8     LIBCMT:invarg.obj
 0003:000024f0       __lconv_static_null        00000001800584f0     LIBCMT:lconv.obj
 0003:000024f4       __lconv_static_W_null      00000001800584f4     LIBCMT:lconv.obj
 0003:00002a80       _aenvptr                   0000000180058a80     LIBCMT:dllcrt0.obj
 0003:00002a88       _wenvptr                   0000000180058a88     LIBCMT:dllcrt0.obj
 0003:00002a90       __fastflag                 0000000180058a90     LIBCMT:fpinit.obj
 0003:00002cd0       _maxwait                   0000000180058cd0     LIBCMT:crtheap.obj
 0003:00002ce0       _C_Exit_Done               0000000180058ce0     LIBCMT:crt0dat.obj
 0003:00002ce4       __argc                     0000000180058ce4     LIBCMT:crt0dat.obj
 0003:00002ce8       __argv                     0000000180058ce8     LIBCMT:crt0dat.obj
 0003:00002cf0       __wargv                    0000000180058cf0     LIBCMT:crt0dat.obj
 0003:00002cf8       _environ                   0000000180058cf8     LIBCMT:crt0dat.obj
 0003:00002d00       _wenviron                  0000000180058d00     LIBCMT:crt0dat.obj
 0003:00002d08       _pgmptr                    0000000180058d08     LIBCMT:crt0dat.obj
 0003:00002d10       _wpgmptr                   0000000180058d10     LIBCMT:crt0dat.obj
 0003:00002d18       _umaskval                  0000000180058d18     LIBCMT:crt0dat.obj
 0003:00002d1c       _exitflag                  0000000180058d1c     LIBCMT:crt0dat.obj
 0003:00002d20       _C_Termination_Done        0000000180058d20     LIBCMT:crt0dat.obj
 0003:00002d28       __winitenv                 0000000180058d28     LIBCMT:crt0dat.obj
 0003:00002d30       __initenv                  0000000180058d30     LIBCMT:crt0dat.obj
 0003:00002d5c       __favor                    0000000180058d5c     LIBCMT:cpu_disp.obj
 0003:00002d60       _crtheap                   0000000180058d60     LIBCMT:heapinit.obj
 0003:00002d68       ?_pnhHeap@@3P6AH_K@ZEA     0000000180058d68     LIBCMT:handler.obj
 0003:00002d70       __app_type                 0000000180058d70     LIBCMT:crt0msg.obj
 0003:000033a8       _newmode                   00000001800593a8     LIBCMT:_newmode.obj
 0003:000033ac       __error_mode               00000001800593ac     LIBCMT:errmode.obj
 0003:000033b0       _cflush                    00000001800593b0     LIBCMT:_file.obj
 0003:000033e0       __pPurecall                00000001800593e0     LIBCMT:inithelp.obj
 0003:000033f8       ?__pInconsistency@@3P6AXXZEA 00000001800593f8     LIBCMT:hooks.obj
 0003:00003400       __mbcodepage               0000000180059400     LIBCMT:mbctype.obj
 0003:00003404       __ismbcodepage             0000000180059404     LIBCMT:mbctype.obj
 0003:00003408       __mbulinfo                 0000000180059408     LIBCMT:mbctype.obj
 0003:00003418       __mblocalename             0000000180059418     LIBCMT:mbctype.obj
 0003:00003424       __locale_changed           0000000180059424     LIBCMT:wsetloca.obj
 0003:00003430       __pioinfo                  0000000180059430     LIBCMT:ioinit.obj
 0003:00003738       ?g_OutOfMemoryExceptionCallback@@3P6APEAXXZEA 0000000180059738     LIBCMT:frame.obj
 0003:00003808       _stdbuf                    0000000180059808     LIBCMT:_sftbuf.obj
 0003:00003820       ?m_pGetParameter@UnDecorator@@0P6APEADJ@ZEA 0000000180059820     LIBCMT:undname.obj
 0003:00003828       ?pArgList@UnDecorator@@0PEAVReplicator@@EA 0000000180059828     LIBCMT:undname.obj
 0003:00003830       ?pZNameList@UnDecorator@@0PEAVReplicator@@EA 0000000180059830     LIBCMT:undname.obj
 0003:00003838       ?pTemplateArgList@UnDecorator@@0PEAVReplicator@@EA 0000000180059838     LIBCMT:undname.obj
 0003:00003840       ?gName@UnDecorator@@0PEBDEB 0000000180059840     LIBCMT:undname.obj
 0003:00003848       ?name@UnDecorator@@0PEBDEB 0000000180059848     LIBCMT:undname.obj
 0003:00003850       ?outputString@UnDecorator@@0PEADEA 0000000180059850     LIBCMT:undname.obj
 0003:00003858       ?maxStringLength@UnDecorator@@0HA 0000000180059858     LIBCMT:undname.obj
 0003:0000385c       ?disableFlags@UnDecorator@@0KA 000000018005985c     LIBCMT:undname.obj
 0003:00003860       ?fExplicitTemplateParams@UnDecorator@@0_NA 0000000180059860     LIBCMT:undname.obj
 0003:00003861       ?fGetTemplateArgumentList@UnDecorator@@0_NA 0000000180059861     LIBCMT:undname.obj
 0003:00003890       _outputformat              0000000180059890     LIBCMT:outputformat.obj
 0003:00003898       __pfnDliFailureHook2       0000000180059898     DelayImp:delayhk1.obj
 0003:000038a0       ?_Psave@?$_Facetptr@V?$numpunct@D@std@@@std@@2PEBVfacet@locale@2@EB 00000001800598a0     njsOracle.obj
 0003:000038a8       ?_Psave@?$_Facetptr@V?$ctype@D@std@@@std@@2PEBVfacet@locale@2@EB 00000001800598a8     njsOracle.obj
 0003:000038b0       ?_Psave@?$_Facetptr@V?$num_put@DV?$ostreambuf_iterator@DU?$char_traits@D@std@@@std@@@std@@@std@@2PEBVfacet@locale@2@EB 00000001800598b0     njsOracle.obj
 0003:000038b8       ?baseDate_@DateTimeArrayImpl@dpi@@0PEAUOCIDateTime@@EA 00000001800598b8     dpiDateTimeArrayImpl.obj
 0003:000038c8       ?oracledbTemplate_s@Oracledb@@0V?$Persistent@VFunctionTemplate@v8@@V?$NonCopyablePersistentTraits@VFunctionTemplate@v8@@@2@@Nan@@A 00000001800598c8     njsOracle.obj
 0003:000038d0       ?poolTemplate_s@Pool@@2V?$Persistent@VFunctionTemplate@v8@@V?$NonCopyablePersistentTraits@VFunctionTemplate@v8@@@2@@Nan@@A 00000001800598d0     njsPool.obj
 0003:000038d8       ?connectionTemplate_s@Connection@@2V?$Persistent@VFunctionTemplate@v8@@V?$NonCopyablePersistentTraits@VFunctionTemplate@v8@@@2@@Nan@@A 00000001800598d8     njsConnection.obj
 0003:000038e0       ?resultSetTemplate_s@ResultSet@@2V?$Persistent@VFunctionTemplate@v8@@V?$NonCopyablePersistentTraits@VFunctionTemplate@v8@@@2@@Nan@@A 00000001800598e0     njsResultSet.obj
 0003:000038f0       ?iLobTemplate_s@ILob@@2V?$Persistent@VFunctionTemplate@v8@@V?$NonCopyablePersistentTraits@VFunctionTemplate@v8@@@2@@Nan@@A 00000001800598f0     njsIntLob.obj
 0003:00003908       ?id@?$num_put@_WV?$back_insert_iterator@V?$basic_string@_WU?$char_traits@_W@std@@V?$allocator@_W@2@@std@@@std@@@std@@2V0locale@2@A 0000000180059908     njsOracle.obj
 0003:00003910       ?_System_object@?$_Error_objects@H@std@@2V_System_error_category@2@A 0000000180059910     njsOracle.obj
 0003:00003918       ?id@?$numpunct@_W@std@@2V0locale@2@A 0000000180059918     njsOracle.obj
 0003:00003920       ?id@?$num_put@DV?$back_insert_iterator@V?$basic_string@DU?$char_traits@D@std@@V?$allocator@D@2@@std@@@std@@@std@@2V0locale@2@A 0000000180059920     njsOracle.obj
 0003:00003928       ?id@?$num_put@DV?$ostreambuf_iterator@DU?$char_traits@D@std@@@std@@@std@@2V0locale@2@A 0000000180059928     njsOracle.obj
 0003:00003930       ?_Iostream_object@?$_Error_objects@H@std@@2V_Iostream_error_category@2@A 0000000180059930     njsOracle.obj
 0003:00003938       ?_Generic_object@?$_Error_objects@H@std@@2V_Generic_error_category@2@A 0000000180059938     njsOracle.obj
 0003:00003940       ?id@?$numpunct@D@std@@2V0locale@2@A 0000000180059940     njsOracle.obj
 0003:00003948       _nhandle                   0000000180059948     <common>
 0003:00003950       __piob                     0000000180059950     <common>
 0003:00003958       _nstream                   0000000180059958     <common>
 0003:00003960       _bufin                     0000000180059960     <common>
 0003:00004960       _debugger_hook_dummy       000000018005a960     <common>
 0003:00004968       __dyn_tls_init_callback    000000018005a968     <common>
 0003:00004970       __onexitend                000000018005a970     <common>
 0003:00004978       __onexitbegin              000000018005a978     <common>
 0003:00004980       __mbctype_initialized      000000018005a980     <common>
 0003:00004984       __env_initialized          000000018005a984     <common>
 0003:000049a0       encodedKERNEL32Functions   000000018005a9a0     <common>
 0003:00004aa8       _acmdln                    000000018005aaa8     <common>

 entry point at        0001:0002615c

 Static symbols

 0000:fffa0000       .debug$S                   0000000180000000     kernel32:KERNEL32.dll
 0000:fffa0000       .debug$S                   0000000180000000     kernel32:KERNEL32.dll
 0000:fffa0000       .debug$S                   0000000180000000     kernel32:KERNEL32.dll
 0000:fffa0000       .debug$S                   0000000180000000     oci:OCI.dll
 0000:fffa0000       .debug$S                   0000000180000000     oci:OCI.dll
 0000:fffa0000       .debug$S                   0000000180000000     kernel32:KERNEL32.dll
 0000:fffa0000       .debug$S                   0000000180000000     oci:OCI.dll
 0000:fffa0000       .debug$S                   0000000180000000     oci:OCI.dll
 0000:fffa0000       .debug$S                   0000000180000000     oci:OCI.dll
 0000:fffa0000       .debug$S                   0000000180000000     oci:OCI.dll
 0000:fffa0000       .debug$S                   0000000180000000     oci:OCI.dll
 0000:fffa0000       .debug$S                   0000000180000000     oci:OCI.dll
 0000:fffa0000       .debug$S                   0000000180000000     oci:OCI.dll
 0000:fffa0000       .debug$S                   0000000180000000     oci:OCI.dll
 0000:fffa0000       .debug$S                   0000000180000000     oci:OCI.dll
 0000:fffa0000       .debug$S                   0000000180000000     oci:OCI.dll
 0000:fffa0000       .debug$S                   0000000180000000     oci:OCI.dll
 0000:fffa0000       .debug$S                   0000000180000000     oci:OCI.dll
 0000:fffa0000       .debug$S                   0000000180000000     oci:OCI.dll
 0000:fffa0000       .debug$S                   0000000180000000     oci:OCI.dll
 0000:fffa0000       .debug$S                   0000000180000000     oci:OCI.dll
 0000:fffa0000       .debug$S                   0000000180000000     oci:OCI.dll
 0000:fffa0000       .debug$S                   0000000180000000     oci:OCI.dll
 0000:fffa0000       .debug$S                   0000000180000000     oci:OCI.dll
 0000:fffa0000       .debug$S                   0000000180000000     oci:OCI.dll
 0000:fffa0000       .debug$S                   0000000180000000     oci:OCI.dll
 0000:fffa0000       .debug$S                   0000000180000000     oci:OCI.dll
 0000:fffa0000       .debug$S                   0000000180000000     oci:OCI.dll
 0000:fffa0000       .debug$S                   0000000180000000     oci:OCI.dll
 0000:fffa0000       .debug$S                   0000000180000000     oci:OCI.dll
 0000:fffa0000       .debug$S                   0000000180000000     oci:OCI.dll
 0000:fffa0000       .debug$S                   0000000180000000     oci:OCI.dll
 0000:fffa0000       .debug$S                   0000000180000000     oci:OCI.dll
 0000:fffa0000       .debug$S                   0000000180000000     oci:OCI.dll
 0000:fffa0000       .debug$S                   0000000180000000     oci:OCI.dll
 0000:fffa0000       .debug$S                   0000000180000000     oci:OCI.dll
 0000:fffa0000       .debug$S                   0000000180000000     oci:OCI.dll
 0000:fffa0000       .debug$S                   0000000180000000     oci:OCI.dll
 0000:fffa0000       .debug$S                   0000000180000000     oci:OCI.dll
 0000:fffa0000       .debug$S                   0000000180000000     oci:OCI.dll
 0000:fffa0000       .debug$S                   0000000180000000     node:node.exe
 0000:fffa0000       .debug$S                   0000000180000000     node:node.exe
 0000:fffa0000       .debug$S                   0000000180000000     node:node.exe
 0000:fffa0000       .debug$S                   0000000180000000     node:node.exe
 0000:fffa0000       .debug$S                   0000000180000000     node:node.exe
 0000:fffa0000       .debug$S                   0000000180000000     node:node.exe
 0000:fffa0000       .debug$S                   0000000180000000     node:node.exe
 0000:fffa0000       .debug$S                   0000000180000000     node:node.exe
 0000:fffa0000       .debug$S                   0000000180000000     node:node.exe
 0000:fffa0000       .debug$S                   0000000180000000     node:node.exe
 0000:fffa0000       .debug$S                   0000000180000000     node:node.exe
 0000:fffa0000       .debug$S                   0000000180000000     node:node.exe
 0000:fffa0000       .debug$S                   0000000180000000     node:node.exe
 0000:fffa0000       .debug$S                   0000000180000000     node:node.exe
 0000:fffa0000       .debug$S                   0000000180000000     node:node.exe
 0000:fffa0000       .debug$S                   0000000180000000     node:node.exe
 0000:fffa0000       .debug$S                   0000000180000000     node:node.exe
 0000:fffa0000       .debug$S                   0000000180000000     node:node.exe
 0000:fffa0000       .debug$S                   0000000180000000     node:node.exe
 0000:fffa0000       .debug$S                   0000000180000000     node:node.exe
 0000:fffa0000       .debug$S                   0000000180000000     node:node.exe
 0000:fffa0000       .debug$S                   0000000180000000     node:node.exe
 0000:fffa0000       .debug$S                   0000000180000000     node:node.exe
 0000:fffa0000       .debug$S                   0000000180000000     node:node.exe
 0000:fffa0000       .debug$S                   0000000180000000     node:node.exe
 0000:fffa0000       .debug$S                   0000000180000000     node:node.exe
 0000:fffa0000       .debug$S                   0000000180000000     node:node.exe
 0000:fffa0000       .debug$S                   0000000180000000     node:node.exe
 0000:fffa0000       .debug$S                   0000000180000000     node:node.exe
 0000:fffa0000       .debug$S                   0000000180000000     node:node.exe
 0000:fffa0000       .debug$S                   0000000180000000     node:node.exe
 0000:fffa0000       .debug$S                   0000000180000000     node:node.exe
 0000:fffa0000       .debug$S                   0000000180000000     node:node.exe
 0000:fffa0000       .debug$S                   0000000180000000     node:node.exe
 0000:fffa0000       .debug$S                   0000000180000000     node:node.exe
 0000:fffa0000       .debug$S                   0000000180000000     node:node.exe
 0000:fffa0000       .debug$S                   0000000180000000     node:node.exe
 0000:fffa0000       .debug$S                   0000000180000000     node:node.exe
 0000:fffa0000       .debug$S                   0000000180000000     node:node.exe
 0000:fffa0000       .debug$S                   0000000180000000     node:node.exe
 0000:fffa0000       .debug$S                   0000000180000000     node:node.exe
 0000:fffa0000       .debug$S                   0000000180000000     node:node.exe
 0000:fffa0000       .debug$S                   0000000180000000     node:node.exe
 0000:fffa0000       .debug$S                   0000000180000000     node:node.exe
 0000:fffa0000       .debug$S                   0000000180000000     node:node.exe
 0000:fffa0000       .debug$S                   0000000180000000     node:node.exe
 0000:fffa0000       .debug$S                   0000000180000000     node:node.exe
 0000:fffa0000       .debug$S                   0000000180000000     node:node.exe
 0000:fffa0000       .debug$S                   0000000180000000     node:node.exe
 0000:fffa0000       .debug$S                   0000000180000000     node:node.exe
 0000:fffa0000       .debug$S                   0000000180000000     node:node.exe
 0000:fffa0000       .debug$S                   0000000180000000     node:node.exe
 0000:fffa0000       .debug$S                   0000000180000000     node:node.exe
 0000:fffa0000       .debug$S                   0000000180000000     oci:OCI.dll
 0000:fffa0000       .debug$S                   0000000180000000     node:node.exe
 0000:fffa0000       .debug$S                   0000000180000000     node:node.exe
 0000:fffa0000       .debug$S                   0000000180000000     node:node.exe
 0000:fffa0000       .debug$S                   0000000180000000     node:node.exe
 0000:fffa0000       .debug$S                   0000000180000000     node:node.exe
 0000:fffa0000       .debug$S                   0000000180000000     node:node.exe
 0000:fffa0000       .debug$S                   0000000180000000     node:node.exe
 0000:fffa0000       .debug$S                   0000000180000000     node:node.exe
 0000:fffa0000       .debug$S                   0000000180000000     node:node.exe
 0000:fffa0000       .debug$S                   0000000180000000     node:node.exe
 0000:fffa0000       .debug$S                   0000000180000000     node:node.exe
 0000:fffa0000       .debug$S                   0000000180000000     node:node.exe
 0000:fffa0000       .debug$S                   0000000180000000     node:node.exe
 0000:fffa0000       .debug$S                   0000000180000000     node:node.exe
 0000:fffa0000       .debug$S                   0000000180000000     node:node.exe
 0000:fffa0000       .debug$S                   0000000180000000     node:node.exe
 0000:fffa0000       .debug$S                   0000000180000000     node:node.exe
 0000:fffa0000       .debug$S                   0000000180000000     node:node.exe
 0000:fffa0000       .debug$S                   0000000180000000     node:node.exe
 0000:fffa0000       .debug$S                   0000000180000000     node:node.exe
 0000:fffa0000       .debug$S                   0000000180000000     node:node.exe
 0000:fffa0000       .debug$S                   0000000180000000     node:node.exe
 0000:fffa0000       .debug$S                   0000000180000000     node:node.exe
 0000:fffa0000       .debug$S                   0000000180000000     node:node.exe
 0000:fffa0000       .debug$S                   0000000180000000     node:node.exe
 0000:fffa0000       .debug$S                   0000000180000000     node:node.exe
 0000:fffa0000       .debug$S                   0000000180000000     node:node.exe
 0000:fffa0000       .debug$S                   0000000180000000     node:node.exe
 0000:fffa0000       .debug$S                   0000000180000000     node:node.exe
 0000:fffa0000       .debug$S                   0000000180000000     node:node.exe
 0000:fffa0000       .debug$S                   0000000180000000     node:node.exe
 0000:fffa0000       .debug$S                   0000000180000000     node:node.exe
 0000:fffa0000       .debug$S                   0000000180000000     node:node.exe
 0000:fffa0000       .debug$S                   0000000180000000     node:node.exe
 0000:fffa0000       .debug$S                   0000000180000000     node:node.exe
 0000:fffa0000       .debug$S                   0000000180000000     node:node.exe
 0000:fffa0000       .debug$S                   0000000180000000     node:node.exe
 0000:fffa0000       .debug$S                   0000000180000000     node:node.exe
 0000:fffa0000       .debug$S                   0000000180000000     node:node.exe
 0000:fffa0000       .debug$S                   0000000180000000     node:node.exe
 0000:fffa0000       .debug$S                   0000000180000000     node:node.exe
 0000:fffa0000       .debug$S                   0000000180000000     node:node.exe
 0000:fffa0000       .debug$S                   0000000180000000     node:node.exe
 0000:fffa0000       .debug$S                   0000000180000000     node:node.exe
 0000:fffa0000       .debug$S                   0000000180000000     node:node.exe
 0000:fffa0000       .debug$S                   0000000180000000     node:node.exe
 0000:fffa0000       .debug$S                   0000000180000000     node:node.exe
 0000:fffa0000       .debug$S                   0000000180000000     node:node.exe
 0000:fffa0000       .debug$S                   0000000180000000     node:node.exe
 0000:fffa0000       .debug$S                   0000000180000000     node:node.exe
 0000:fffa0000       .debug$S                   0000000180000000     node:node.exe
 0000:fffa0000       .debug$S                   0000000180000000     kernel32:KERNEL32.dll
 0000:fffa0000       .debug$S                   0000000180000000     kernel32:KERNEL32.dll
 0000:fffa0000       .debug$S                   0000000180000000     kernel32:KERNEL32.dll
 0000:fffa0000       .debug$S                   0000000180000000     kernel32:KERNEL32.dll
 0000:fffa0000       .debug$S                   0000000180000000     kernel32:KERNEL32.dll
 0000:fffa0000       .debug$S                   0000000180000000     kernel32:KERNEL32.dll
 0000:fffa0000       .debug$S                   0000000180000000     kernel32:KERNEL32.dll
 0000:fffa0000       .debug$S                   0000000180000000     kernel32:KERNEL32.dll
 0000:fffa0000       .debug$S                   0000000180000000     kernel32:KERNEL32.dll
 0000:fffa0000       .debug$S                   0000000180000000     kernel32:KERNEL32.dll
 0000:fffa0000       .debug$S                   0000000180000000     kernel32:KERNEL32.dll
 0000:fffa0000       .debug$S                   0000000180000000     kernel32:KERNEL32.dll
 0000:fffa0000       .debug$S                   0000000180000000     kernel32:KERNEL32.dll
 0000:fffa0000       .debug$S                   0000000180000000     kernel32:KERNEL32.dll
 0000:fffa0000       .debug$S                   0000000180000000     kernel32:KERNEL32.dll
 0000:fffa0000       .debug$S                   0000000180000000     kernel32:KERNEL32.dll
 0000:fffa0000       .debug$S                   0000000180000000     kernel32:KERNEL32.dll
 0000:fffa0000       .debug$S                   0000000180000000     kernel32:KERNEL32.dll
 0000:fffa0000       .debug$S                   0000000180000000     kernel32:KERNEL32.dll
 0000:fffa0000       .debug$S                   0000000180000000     kernel32:KERNEL32.dll
 0000:fffa0000       .debug$S                   0000000180000000     kernel32:KERNEL32.dll
 0000:fffa0000       .debug$S                   0000000180000000     kernel32:KERNEL32.dll
 0000:fffa0000       .debug$S                   0000000180000000     kernel32:KERNEL32.dll
 0000:fffa0000       .debug$S                   0000000180000000     kernel32:KERNEL32.dll
 0000:fffa0000       .debug$S                   0000000180000000     kernel32:KERNEL32.dll
 0000:fffa0000       .debug$S                   0000000180000000     kernel32:KERNEL32.dll
 0000:fffa0000       .debug$S                   0000000180000000     kernel32:KERNEL32.dll
 0000:fffa0000       .debug$S                   0000000180000000     kernel32:KERNEL32.dll
 0000:fffa0000       .debug$S                   0000000180000000     kernel32:KERNEL32.dll
 0000:fffa0000       .debug$S                   0000000180000000     kernel32:KERNEL32.dll
 0000:fffa0000       .debug$S                   0000000180000000     kernel32:KERNEL32.dll
 0000:fffa0000       .debug$S                   0000000180000000     kernel32:KERNEL32.dll
 0000:fffa0000       .debug$S                   0000000180000000     kernel32:KERNEL32.dll
 0000:fffa0000       .debug$S                   0000000180000000     kernel32:KERNEL32.dll
 0000:fffa0000       .debug$S                   0000000180000000     kernel32:KERNEL32.dll
 0000:fffa0000       .debug$S                   0000000180000000     kernel32:KERNEL32.dll
 0000:fffa0000       .debug$S                   0000000180000000     kernel32:KERNEL32.dll
 0000:fffa0000       .debug$S                   0000000180000000     kernel32:KERNEL32.dll
 0000:fffa0000       .debug$S                   0000000180000000     kernel32:KERNEL32.dll
 0000:fffa0000       .debug$S                   0000000180000000     kernel32:KERNEL32.dll
 0000:fffa0000       .debug$S                   0000000180000000     kernel32:KERNEL32.dll
 0000:fffa0000       .debug$S                   0000000180000000     kernel32:KERNEL32.dll
 0000:fffa0000       .debug$S                   0000000180000000     kernel32:KERNEL32.dll
 0000:fffa0000       .debug$S                   0000000180000000     kernel32:KERNEL32.dll
 0000:fffa0000       .debug$S                   0000000180000000     kernel32:KERNEL32.dll
 0000:fffa0000       .debug$S                   0000000180000000     kernel32:KERNEL32.dll
 0000:fffa0000       .debug$S                   0000000180000000     kernel32:KERNEL32.dll
 0000:fffa0000       .debug$S                   0000000180000000     kernel32:KERNEL32.dll
 0000:fffa0000       .debug$S                   0000000180000000     kernel32:KERNEL32.dll
 0000:fffa0000       .debug$S                   0000000180000000     kernel32:KERNEL32.dll
 0000:fffa0000       .debug$S                   0000000180000000     kernel32:KERNEL32.dll
 0000:fffa0000       .debug$S                   0000000180000000     kernel32:KERNEL32.dll
 0000:fffa0000       .debug$S                   0000000180000000     kernel32:KERNEL32.dll
 0000:fffa0000       .debug$S                   0000000180000000     kernel32:KERNEL32.dll
 0000:fffa0000       .debug$S                   0000000180000000     kernel32:KERNEL32.dll
 0000:fffa0000       .debug$S                   0000000180000000     kernel32:KERNEL32.dll
 0000:fffa0000       .debug$S                   0000000180000000     kernel32:KERNEL32.dll
 0000:fffa0000       .debug$S                   0000000180000000     kernel32:KERNEL32.dll
 0000:fffa0000       .debug$S                   0000000180000000     kernel32:KERNEL32.dll
 0000:fffa0000       .debug$S                   0000000180000000     kernel32:KERNEL32.dll
 0000:fffa0000       .debug$S                   0000000180000000     kernel32:KERNEL32.dll
 0000:fffa0000       .debug$S                   0000000180000000     kernel32:KERNEL32.dll
 0000:fffa0000       .debug$S                   0000000180000000     kernel32:KERNEL32.dll
 0000:fffa0000       .debug$S                   0000000180000000     kernel32:KERNEL32.dll
 0000:fffa0000       .debug$S                   0000000180000000     kernel32:KERNEL32.dll
 0000:fffa0000       .debug$S                   0000000180000000     kernel32:KERNEL32.dll
 0000:fffa0000       .debug$S                   0000000180000000     kernel32:KERNEL32.dll
 0000:fffa0000       .debug$S                   0000000180000000     kernel32:KERNEL32.dll
 0000:fffa0000       .debug$S                   0000000180000000     kernel32:KERNEL32.dll
 0000:fffa0000       .debug$S                   0000000180000000     kernel32:KERNEL32.dll
 0000:fffa0000       .debug$S                   0000000180000000     kernel32:KERNEL32.dll
 0000:fffa0000       .debug$S                   0000000180000000     kernel32:KERNEL32.dll
 0000:fffa0000       .debug$S                   0000000180000000     kernel32:KERNEL32.dll
 0000:fffa0000       .debug$S                   0000000180000000     kernel32:KERNEL32.dll
 0000:fffa0000       .debug$S                   0000000180000000     kernel32:KERNEL32.dll
 0000:fffa0000       .debug$S                   0000000180000000     kernel32:KERNEL32.dll
 0000:fffa0000       .debug$S                   0000000180000000     kernel32:KERNEL32.dll
 0000:fffa0000       .debug$S                   0000000180000000     kernel32:KERNEL32.dll
 0000:fffa0000       .debug$S                   0000000180000000     kernel32:KERNEL32.dll
 0000:fffa0000       .debug$S                   0000000180000000     kernel32:KERNEL32.dll
 0001:00000000       ??__E?oracledbTemplate_s@Oracledb@@0V?$Persistent@VFunctionTemplate@v8@@V?$NonCopyablePersistentTraits@VFunctionTemplate@v8@@@2@@Nan@@A@@YAXXZ 0000000180001000 f   njsOracle.obj
 0001:00000010       ??__E?poolTemplate_s@Pool@@2V?$Persistent@VFunctionTemplate@v8@@V?$NonCopyablePersistentTraits@VFunctionTemplate@v8@@@2@@Nan@@A@@YAXXZ 0000000180001010 f   njsPool.obj
 0001:00000020       ??__E?connectionTemplate_s@Connection@@2V?$Persistent@VFunctionTemplate@v8@@V?$NonCopyablePersistentTraits@VFunctionTemplate@v8@@@2@@Nan@@A@@YAXXZ 0000000180001020 f   njsConnection.obj
 0001:00000030       ??__E?resultSetTemplate_s@ResultSet@@2V?$Persistent@VFunctionTemplate@v8@@V?$NonCopyablePersistentTraits@VFunctionTemplate@v8@@@2@@Nan@@A@@YAXXZ 0000000180001030 f   njsResultSet.obj
 0001:00000040       ??__E?iLobTemplate_s@ILob@@2V?$Persistent@VFunctionTemplate@v8@@V?$NonCopyablePersistentTraits@VFunctionTemplate@v8@@@2@@Nan@@A@@YAXXZ 0000000180001040 f   njsIntLob.obj
 0001:0000004c       ??__E_Fac_tidy_reg@std@@YAXXZ 000000018000104c f   libcpmt:locale0.obj
 0001:00000058       ??__Eclassic_locale@std@@YAXXZ 0000000180001058 f   libcpmt:locale0.obj
 0001:00000064       ??__Einitlocks@std@@YAXXZ  0000000180001064 f   libcpmt:xlock.obj
 0001:00000084       ??__Einit_atexit@@YAXXZ    0000000180001084 f   libcpmt:iosptrs.obj
 0001:00000090       ??__Einitlocks@std@@YAXXZ  0000000180001090 f   libcpmt:iosptrs.obj
 0001:00000a20       ?FunctionCallbackWrapper@imp@Nan@@YAXAEBV?$FunctionCallbackInfo@VValue@v8@@@v8@@@Z 0000000180001a20 f   njsOracle.obj
 0001:00000ad0       ?GetterCallbackWrapper@imp@Nan@@YAXV?$Local@VName@v8@@@v8@@AEBV?$PropertyCallbackInfo@VValue@v8@@@4@@Z 0000000180001ad0 f   njsOracle.obj
 0001:00000b80       ?SetterCallbackWrapper@imp@Nan@@YAXV?$Local@VName@v8@@@v8@@V?$Local@VValue@v8@@@4@AEBV?$PropertyCallbackInfo@X@4@@Z 0000000180001b80 f   njsOracle.obj
 0001:00007600       init                       0000000180008600 f   njsOracle.obj
 0001:00007640       _register_oracledb         0000000180008640 f   njsOracle.obj
 0001:000126cc       $LN258                     00000001800136cc     njsConnection.obj
 0001:00012d34       $LN481                     0000000180013d34     njsConnection.obj
 0001:00014294       $LN9                       0000000180015294     njsConnection.obj
 0001:000142a4       $LN8                       00000001800152a4     njsConnection.obj
 0001:000144d8       $LN31                      00000001800154d8     njsConnection.obj
 0001:000144e4       $LN30                      00000001800154e4     njsConnection.obj
 0001:00015010       $LN1176                    0000000180016010     njsConnection.obj
 0001:0001502c       $LN1175                    000000018001602c     njsConnection.obj
 0001:00016b34       $LN172                     0000000180017b34     njsConnection.obj
 0001:00016b50       $LN171                     0000000180017b50     njsConnection.obj
 0001:00017028       $LN251                     0000000180018028     njsConnection.obj
 0001:00017040       $LN250                     0000000180018040     njsConnection.obj
 0001:00019010       $LN857                     000000018001a010     njsConnection.obj
 0001:00019034       $LN856                     000000018001a034     njsConnection.obj
 0001:00019274       $LN17                      000000018001a274     njsConnection.obj
 0001:0001928c       $LN16                      000000018001a28c     njsConnection.obj
 0001:000233e0       ?ociCallCommon@@YAXHPEAXI@Z 00000001800243e0 f   dpiUtils.obj
 0001:00023540       load_exe_hook              0000000180024540 f   win_delay_load_hook.obj
 0001:00023e38       tidy_global                0000000180024e38 f   libcpmt:locale0.obj
 0001:00024518       ?swfun@std@@YAXAEAVios_base@1@_J@Z 0000000180025518 f   libcpmt:iomanip.obj
 0001:00024590       $$000000                   0000000180025590     LIBCMT:amdsecgs.obj
 0001:00024820       $$000000                   0000000180025820     LIBCMT:memcpy.obj
 0001:00024910       MoveSmall                  0000000180025910     LIBCMT:memcpy.obj
 0001:00025808       swprintf                   0000000180026808 f   LIBCMT:wassert.obj
 0001:0002619c       __DllMainCRTStartup        000000018002719c f   LIBCMT:dllcrt0.obj
 0001:00026870       ?x_ismbbtype_l@@YAHPEAUlocaleinfo_struct@@IHH@Z 0000000180027870 f   LIBCMT:ismbbyte.obj
 0001:00026900       $$000000                   0000000180027900     LIBCMT:memset.obj
 0001:00026aa5       MsetTab                    0000000180027aa5     LIBCMT:memset.obj
 0001:00026b40       $$000000                   0000000180027b40     LIBCMT:strlen.obj
 0001:00027c00       ?__crtLCMapStringA_stat@@YAHPEAUlocaleinfo_struct@@PEB_WKPEBDHPEADHHH@Z 0000000180028c00 f   LIBCMT:a_map.obj
 0001:00028110       $$000000                   0000000180029110     LIBCMT:strcmp.obj
 0001:00028ad0       $$000000                   0000000180029ad0     LIBCMT:memcmp.obj
 0001:00028d5c       __crtEnumLocalesProc       0000000180029d5c f   LIBCMT:winapinls.obj
 0001:00029274       _initterm                  000000018002a274 f   LIBCMT:crt0dat.obj
 0001:00029328       doexit                     000000018002a328 f   LIBCMT:crt0dat.obj
 0001:0002a420       write_char                 000000018002b420 f   LIBCMT:output.obj
 0001:0002a420       write_char                 000000018002b420 f   LIBCMT:output.obj
 0001:0002b2c0       xtow_s                     000000018002c2c0 f   LIBCMT:xtows.obj
 0001:0002b6c4       flsall                     000000018002c6c4 f   LIBCMT:fflush.obj
 0001:0002c308       ?getSystemCP@@YAHH@Z       000000018002d308 f   LIBCMT:mbctype.obj
 0001:0002c388       ?setSBCS@@YAXPEAUthreadmbcinfostruct@@@Z 000000018002d388 f   LIBCMT:mbctype.obj
 0001:0002c418       ?setSBUpLow@@YAXPEAUthreadmbcinfostruct@@@Z 000000018002d418 f   LIBCMT:mbctype.obj
 0001:0002ced4       _copytlocinfo_nolock       000000018002ded4 f   LIBCMT:wsetloca.obj
 0001:0002d568       _wsetlocale_get_all        000000018002e568 f   LIBCMT:wsetloca.obj
 0001:0002d73c       _wsetlocale_nolock         000000018002e73c f   LIBCMT:wsetloca.obj
 0001:0002d9a8       _wsetlocale_set_cat        000000018002e9a8 f   LIBCMT:wsetloca.obj
 0001:0002e330       parse_cmdline              000000018002f330 f   LIBCMT:stdargv.obj
 0001:0002e844       ?__crtGetStringTypeA_stat@@YAHPEAUlocaleinfo_struct@@KPEBDHPEAGHH@Z 000000018002f844 f   LIBCMT:a_str.obj
 0001:0002eb18       ?CatchIt@@YAXPEAUEHExceptionRecord@@PEA_KPEAU_CONTEXT@@PEAU_xDISPATCHER_CONTEXT@@PEBU_s_FuncInfo@@PEBU_s_HandlerType@@PEBU_s_CatchableType@@PEBU_s_TryBlockMapEntry@@H1EE@Z 000000018002fb18 f   LIBCMT:frame.obj
 0001:0002ebdc       ?FindHandler@@YAXPEAUEHExceptionRecord@@PEA_KPEAU_CONTEXT@@PEAU_xDISPATCHER_CONTEXT@@PEBU_s_FuncInfo@@EH1@Z 000000018002fbdc f   LIBCMT:frame.obj
 0001:0002f090       ?FindHandlerForForeignException@@YAXPEAUEHExceptionRecord@@PEA_KPEAU_CONTEXT@@PEAU_xDISPATCHER_CONTEXT@@PEBU_s_FuncInfo@@HH1@Z 0000000180030090 f   LIBCMT:frame.obj
 0001:0002f2f8       ?IsInExceptionSpec@@YAEPEAUEHExceptionRecord@@PEBU_s_ESTypeList@@@Z 00000001800302f8 f   LIBCMT:frame.obj
 0001:000303c0       _cftoe2_l                  00000001800313c0 f   LIBCMT:cvt.obj
 0001:000306b4       _cftof2_l                  00000001800316b4 f   LIBCMT:cvt.obj
 0001:000314b0       $$000000                   00000001800324b0     LIBCMT:chkstk.obj
 0001:00032fd8       write_multi_char           0000000180033fd8 f   LIBCMT:outputs.obj
 0001:00032fd8       write_multi_char           0000000180033fd8 f   LIBCMT:outputs.obj
 0001:0003302c       write_string               000000018003402c f   LIBCMT:outputs.obj
 0001:0003302c       write_string               000000018003402c f   LIBCMT:outputs.obj
 0001:00034120       _get_lc_time               0000000180035120 f   LIBCMT:inittime.obj
 0001:000358ec       write_char                 00000001800368ec f   LIBCMT:woutput.obj
 0001:00035924       write_multi_char           0000000180036924 f   LIBCMT:woutput.obj
 0001:00035978       write_string               0000000180036978 f   LIBCMT:woutput.obj
 0001:00035a20       $$000000                   0000000180036a20     LIBCMT:jmpuwind.obj
 0001:00035b50       ?__crtGetLocaleInfoA_stat@@YAHPEAUlocaleinfo_struct@@PEB_WKPEADH@Z 0000000180036b50 f   LIBCMT:a_loc.obj
 0001:00035d30       $$000000                   0000000180036d30     LIBCMT:fpsr.obj
 0001:00035e70       GetLocaleNameFromLangCountry 0000000180036e70 f   LIBCMT:getqloc.obj
 0001:00035f20       GetLocaleNameFromLanguage  0000000180036f20 f   LIBCMT:getqloc.obj
 0001:00035fa8       LangCountryEnumProcEx      0000000180036fa8 f   LIBCMT:getqloc.obj
 0001:00036334       LanguageEnumProcEx         0000000180037334 f   LIBCMT:getqloc.obj
 0001:00036414       ProcessCodePage            0000000180037414 f   LIBCMT:getqloc.obj
 0001:000364c8       TestDefaultCountry         00000001800374c8 f   LIBCMT:getqloc.obj
 0001:000367bc       CountryEnumProc            00000001800377bc f   LIBCMT:getqloc_downlevel.obj
 0001:000368a8       GetLcidFromLangCountry     00000001800378a8 f   LIBCMT:getqloc_downlevel.obj
 0001:0003695c       GetLcidFromLanguage        000000018003795c f   LIBCMT:getqloc_downlevel.obj
 0001:000369f0       LangCountryEnumProc        00000001800379f0 f   LIBCMT:getqloc_downlevel.obj
 0001:00036c20       LanguageEnumProc           0000000180037c20 f   LIBCMT:getqloc_downlevel.obj
 0001:00036d1c       LcidFromHexString          0000000180037d1c f   LIBCMT:getqloc_downlevel.obj
 0001:00036d6c       ProcessCodePage            0000000180037d6c f   LIBCMT:getqloc_downlevel.obj
 0001:00036e1c       TestDefaultLanguage        0000000180037e1c f   LIBCMT:getqloc_downlevel.obj
 0001:00036ec4       TranslateName              0000000180037ec4 f   LIBCMT:getqloc_downlevel.obj
 0001:00036ec4       TranslateName              0000000180037ec4 f   LIBCMT:getqloc_downlevel.obj
 0001:00037210       $$000000                   0000000180038210     LIBCMT:handlers.obj
 0001:00037f54       ?wcstoxl@@YAKPEB_WPEAPEB_WHH@Z 0000000180038f54 f   LIBCMT:wcstol.obj
 0001:0003ac10       ?dtor$0@?0???0_Locinfo@std@@QEAA@PEBD@Z@4HA 000000018003bc10 f   njsOracle.obj
 0001:0003ac1c       ?dtor$1@?0???0_Locinfo@std@@QEAA@PEBD@Z@4HA 000000018003bc1c f   njsOracle.obj
 0001:0003ac2c       ?dtor$2@?0???0_Locinfo@std@@QEAA@PEBD@Z@4HA 000000018003bc2c f   njsOracle.obj
 0001:0003ac3c       ?dtor$3@?0???0_Locinfo@std@@QEAA@PEBD@Z@4HA 000000018003bc3c f   njsOracle.obj
 0001:0003ac4c       ?dtor$4@?0???0_Locinfo@std@@QEAA@PEBD@Z@4HA 000000018003bc4c f   njsOracle.obj
 0001:0003ac5c       ?dtor$5@?0???0_Locinfo@std@@QEAA@PEBD@Z@4HA 000000018003bc5c f   njsOracle.obj
 0001:0003ac6c       ?dtor$6@?0???0_Locinfo@std@@QEAA@PEBD@Z@4HA 000000018003bc6c f   njsOracle.obj
 0001:0003ac7c       ?dtor$7@?0???0_Locinfo@std@@QEAA@PEBD@Z@4HA 000000018003bc7c f   njsOracle.obj
 0001:0003ac90       ?dtor$0@?0??_Getcat@?$ctype@D@std@@SA_KPEAPEBVfacet@locale@2@PEBV42@@Z@4HA 000000018003bc90 f   njsOracle.obj
 0001:0003aca0       ?dtor$0@?0??_Makestr@_System_error@std@@CA?AV?$basic_string@DU?$char_traits@D@std@@V?$allocator@D@2@@2@Verror_code@2@V32@@Z@4HA 000000018003bca0 f   njsOracle.obj
 0001:0003acac       ?dtor$1@?0??_Makestr@_System_error@std@@CA?AV?$basic_string@DU?$char_traits@D@std@@V?$allocator@D@2@@2@Verror_code@2@V32@@Z@4HA 000000018003bcac f   njsOracle.obj
 0001:0003acc0       ?dtor$0@?0???0system_error@std@@QEAA@Verror_code@1@PEBD@Z@4HA 000000018003bcc0 f   njsOracle.obj
 0001:0003acd0       ?dtor$0@?0??clear@ios_base@std@@QEAAXH_N@Z@4HA 000000018003bcd0 f   njsOracle.obj
 0001:0003acdc       ?dtor$1@?0??clear@ios_base@std@@QEAAXH_N@Z@4HA 000000018003bcdc f   njsOracle.obj
 0001:0003ace8       ?dtor$2@?0??clear@ios_base@std@@QEAAXH_N@Z@4HA 000000018003bce8 f   njsOracle.obj
 0001:0003ad00       ?dtor$0@?0??_Init@ios_base@std@@IEAAXXZ@4HA 000000018003bd00 f   njsOracle.obj
 0001:0003ad00       ?dtor$0@?0??New@Oracledb@@CAXAEBV?$FunctionCallbackInfo@VValue@v8@@@Nan@@@Z@4HA 000000018003bd00 f   njsOracle.obj
 0001:0003ad00       ?dtor$0@?0???0?$basic_streambuf@DU?$char_traits@D@std@@@std@@IEAA@XZ@4HA 000000018003bd00 f   njsOracle.obj
 0001:0003ad10       ?dtor$0@?0??New@?$Factory@VFunctionTemplate@v8@@@imp@Nan@@SA?AV?$Local@VFunctionTemplate@v8@@@v8@@P6AXAEBV?$FunctionCallbackInfo@VValue@v8@@@3@@ZV?$Local@VValue@v8@@@5@V?$Local@VSignature@v8@@@5@@Z@4HA 000000018003bd10 f   njsOracle.obj
 0001:0003ad20       ?dtor$0@?0??GetMetaData@Connection@@SA?AV?$Local@VValue@v8@@@v8@@PEAV?$basic_string@DU?$char_traits@D@std@@V?$allocator@D@2@@std@@I@Z@4HA 000000018003bd20 f   njsConnection.obj
 0001:0003ad20       ?dtor$0@?0??SetAccessor@Nan@@YAXV?$Local@VObjectTemplate@v8@@@v8@@V?$Local@VString@v8@@@3@P6AX1AEBV?$PropertyCallbackInfo@VValue@v8@@@1@@ZP6AX1V?$Local@VValue@v8@@@3@AEBV?$PropertyCallbackInfo@X@1@@Z4W4AccessControl@3@W4PropertyAttribute@3@V?$Local@VAccessorSignature@v8@@@3@@Z@4HA 000000018003bd20 f   njsOracle.obj
 0001:0003ad30       ?dtor$0@?0???1ObjectWrap@Nan@@UEAA@XZ@4HA 000000018003bd30 f   njsOracle.obj
 0001:0003ad40       ?dtor$0@?0???1connectionBaton@@QEAA@XZ@4HA 000000018003bd40 f   njsOracle.obj
 0001:0003ad40       ?dtor$0@?0???0connectionBaton@@QEAA@V?$Local@VFunction@v8@@@v8@@@Z@4HA 000000018003bd40 f   njsOracle.obj
 0001:0003ad53       ?dtor$1@?0???0connectionBaton@@QEAA@V?$Local@VFunction@v8@@@v8@@@Z@4HA 000000018003bd53 f   njsOracle.obj
 0001:0003ad53       ?dtor$1@?0???1connectionBaton@@QEAA@XZ@4HA 000000018003bd53 f   njsOracle.obj
 0001:0003ad66       ?dtor$2@?0???0connectionBaton@@QEAA@V?$Local@VFunction@v8@@@v8@@@Z@4HA 000000018003bd66 f   njsOracle.obj
 0001:0003ad66       ?dtor$2@?0???1connectionBaton@@QEAA@XZ@4HA 000000018003bd66 f   njsOracle.obj
 0001:0003ad79       ?dtor$3@?0???1connectionBaton@@QEAA@XZ@4HA 000000018003bd79 f   njsOracle.obj
 0001:0003ad79       ?dtor$3@?0???0connectionBaton@@QEAA@V?$Local@VFunction@v8@@@v8@@@Z@4HA 000000018003bd79 f   njsOracle.obj
 0001:0003ad8c       ?dtor$4@?0???1connectionBaton@@QEAA@XZ@4HA 000000018003bd8c f   njsOracle.obj
 0001:0003ad8c       ?dtor$4@?0???0connectionBaton@@QEAA@V?$Local@VFunction@v8@@@v8@@@Z@4HA 000000018003bd8c f   njsOracle.obj
 0001:0003ad9f       ?dtor$5@?0???1connectionBaton@@QEAA@XZ@4HA 000000018003bd9f f   njsOracle.obj
 0001:0003ad9f       ?dtor$5@?0???0connectionBaton@@QEAA@V?$Local@VFunction@v8@@@v8@@@Z@4HA 000000018003bd9f f   njsOracle.obj
 0001:0003adc0       ?dtor$0@?0???0Oracledb@@AEAA@XZ@4HA 000000018003bdc0 f   njsOracle.obj
 0001:0003adcc       ?dtor$1@?0???0Oracledb@@AEAA@XZ@4HA 000000018003bdcc f   njsOracle.obj
 0001:0003addc       ?dtor$2@?0???0Oracledb@@AEAA@XZ@4HA 000000018003bddc f   njsOracle.obj
 0001:0003adec       ?dtor$3@?0???0Oracledb@@AEAA@XZ@4HA 000000018003bdec f   njsOracle.obj
 0001:0003adf8       ?dtor$4@?0???0Oracledb@@AEAA@XZ@4HA 000000018003bdf8 f   njsOracle.obj
 0001:0003ae10       ?dtor$0@?0???1Oracledb@@EEAA@XZ@4HA 000000018003be10 f   njsOracle.obj
 0001:0003ae1c       ?dtor$1@?0???1Oracledb@@EEAA@XZ@4HA 000000018003be1c f   njsOracle.obj
 0001:0003ae2c       ?dtor$2@?0???1Oracledb@@EEAA@XZ@4HA 000000018003be2c f   njsOracle.obj
 0001:0003ae3c       ?dtor$4@?0???1Oracledb@@EEAA@XZ@4HA 000000018003be3c f   njsOracle.obj
 0001:0003ae50       ?dtor$0@?0??driverName@Oracledb@@AEBA?BV?$basic_string@DU?$char_traits@D@std@@V?$allocator@D@2@@std@@XZ@4HA 000000018003be50 f   njsOracle.obj
 0001:0003ae60       ?dtor$0@?0??Init@Oracledb@@SAXV?$Local@VObject@v8@@@v8@@@Z@4HA 000000018003be60 f   njsOracle.obj
 0001:0003ae60       ?dtor$0@?0??Init@Pool@@SAXV?$Local@VObject@v8@@@v8@@@Z@4HA 000000018003be60 f   njsPool.obj
 0001:0003ae6c       ?dtor$2@?0??Init@Pool@@SAXV?$Local@VObject@v8@@@v8@@@Z@4HA 000000018003be6c f   njsPool.obj
 0001:0003ae6c       ?dtor$2@?0??Init@Oracledb@@SAXV?$Local@VObject@v8@@@v8@@@Z@4HA 000000018003be6c f   njsOracle.obj
 0001:0003ae78       ?dtor$5@?0??Init@Oracledb@@SAXV?$Local@VObject@v8@@@v8@@@Z@4HA 000000018003be78 f   njsOracle.obj
 0001:0003ae78       ?dtor$5@?0??Init@Pool@@SAXV?$Local@VObject@v8@@@v8@@@Z@4HA 000000018003be78 f   njsPool.obj
 0001:0003ae90       ?dtor$0@?0??SetOracleServerVersion@Connection@@CAXV?$Local@VString@v8@@@v8@@V?$Local@VValue@v8@@@3@AEBV?$PropertyCallbackInfo@X@Nan@@@Z@4HA 000000018003be90 f   njsConnection.obj
 0001:0003ae90       ?dtor$0@?0??SetStmtCacheSize@Connection@@CAXV?$Local@VString@v8@@@v8@@V?$Local@VValue@v8@@@3@AEBV?$PropertyCallbackInfo@X@Nan@@@Z@4HA 000000018003be90 f   njsConnection.obj
 0001:0003ae90       ?dtor$0@?0??GetConnectionClass@Oracledb@@CAXV?$Local@VString@v8@@@v8@@AEBV?$PropertyCallbackInfo@VValue@v8@@@Nan@@@Z@4HA 000000018003be90 f   njsOracle.obj
 0001:0003ae90       ?dtor$0@?0??SetLength@ILob@@CAXV?$Local@VString@v8@@@v8@@V?$Local@VValue@v8@@@3@AEBV?$PropertyCallbackInfo@X@Nan@@@Z@4HA 000000018003be90 f   njsIntLob.obj
 0001:0003ae90       ?dtor$0@?0??GetAutoCommit@Oracledb@@CAXV?$Local@VString@v8@@@v8@@AEBV?$PropertyCallbackInfo@VValue@v8@@@Nan@@@Z@4HA 000000018003be90 f   njsOracle.obj
 0001:0003ae90       ?dtor$0@?0??GetPoolMin@Pool@@CAXV?$Local@VString@v8@@@v8@@AEBV?$PropertyCallbackInfo@VValue@v8@@@Nan@@@Z@4HA 000000018003be90 f   njsPool.obj
 0001:0003ae90       ?dtor$0@?0??GetStmtCacheSize@Pool@@CAXV?$Local@VString@v8@@@v8@@AEBV?$PropertyCallbackInfo@VValue@v8@@@Nan@@@Z@4HA 000000018003be90 f   njsPool.obj
 0001:0003ae90       ?dtor$0@?0??GetLobPrefetchSize@Oracledb@@CAXV?$Local@VString@v8@@@v8@@AEBV?$PropertyCallbackInfo@VValue@v8@@@Nan@@@Z@4HA 000000018003be90 f   njsOracle.obj
 0001:0003ae90       ?dtor$0@?0??GetPoolMax@Pool@@CAXV?$Local@VString@v8@@@v8@@AEBV?$PropertyCallbackInfo@VValue@v8@@@Nan@@@Z@4HA 000000018003be90 f   njsPool.obj
 0001:0003ae90       ?dtor$0@?0??GetOracleClientVersion@Oracledb@@CAXV?$Local@VString@v8@@@v8@@AEBV?$PropertyCallbackInfo@VValue@v8@@@Nan@@@Z@4HA 000000018003be90 f   njsOracle.obj
 0001:0003ae90       ?dtor$0@?0??GetExternalAuth@Oracledb@@CAXV?$Local@VString@v8@@@v8@@AEBV?$PropertyCallbackInfo@VValue@v8@@@Nan@@@Z@4HA 000000018003be90 f   njsOracle.obj
 0001:0003ae90       ?dtor$0@?0??GetStmtCacheSize@Oracledb@@CAXV?$Local@VString@v8@@@v8@@AEBV?$PropertyCallbackInfo@VValue@v8@@@Nan@@@Z@4HA 000000018003be90 f   njsOracle.obj
 0001:0003ae90       ?dtor$0@?0??SetExternalAuth@Oracledb@@CAXV?$Local@VString@v8@@@v8@@V?$Local@VValue@v8@@@3@AEBV?$PropertyCallbackInfo@X@Nan@@@Z@4HA 000000018003be90 f   njsOracle.obj
 0001:0003ae90       ?dtor$0@?0??SetChunkSize@ILob@@CAXV?$Local@VString@v8@@@v8@@V?$Local@VValue@v8@@@3@AEBV?$PropertyCallbackInfo@X@Nan@@@Z@4HA 000000018003be90 f   njsIntLob.obj
 0001:0003ae90       ?dtor$0@?0??GetOutFormat@Oracledb@@CAXV?$Local@VString@v8@@@v8@@AEBV?$PropertyCallbackInfo@VValue@v8@@@Nan@@@Z@4HA 000000018003be90 f   njsOracle.obj
 0001:0003ae90       ?dtor$0@?0??GetPoolIncrement@Oracledb@@CAXV?$Local@VString@v8@@@v8@@AEBV?$PropertyCallbackInfo@VValue@v8@@@Nan@@@Z@4HA 000000018003be90 f   njsOracle.obj
 0001:0003ae90       ?dtor$0@?0??SetAutoCommit@Oracledb@@CAXV?$Local@VString@v8@@@v8@@V?$Local@VValue@v8@@@3@AEBV?$PropertyCallbackInfo@X@Nan@@@Z@4HA 000000018003be90 f   njsOracle.obj
 0001:0003ae90       ?dtor$0@?0??GetPoolMax@Oracledb@@CAXV?$Local@VString@v8@@@v8@@AEBV?$PropertyCallbackInfo@VValue@v8@@@Nan@@@Z@4HA 000000018003be90 f   njsOracle.obj
 0001:0003ae90       ?dtor$0@?0??GetPoolMin@Oracledb@@CAXV?$Local@VString@v8@@@v8@@AEBV?$PropertyCallbackInfo@VValue@v8@@@Nan@@@Z@4HA 000000018003be90 f   njsOracle.obj
 0001:0003ae90       ?dtor$0@?0??SetType@ILob@@CAXV?$Local@VString@v8@@@v8@@V?$Local@VValue@v8@@@3@AEBV?$PropertyCallbackInfo@X@Nan@@@Z@4HA 000000018003be90 f   njsIntLob.obj
 0001:0003ae90       ?dtor$0@?0??GetPoolTimeout@Oracledb@@CAXV?$Local@VString@v8@@@v8@@AEBV?$PropertyCallbackInfo@VValue@v8@@@Nan@@@Z@4HA 000000018003be90 f   njsOracle.obj
 0001:0003ae90       ?dtor$0@?0??GetPoolTimeout@Pool@@CAXV?$Local@VString@v8@@@v8@@AEBV?$PropertyCallbackInfo@VValue@v8@@@Nan@@@Z@4HA 000000018003be90 f   njsPool.obj
 0001:0003ae90       ?dtor$0@?0??GetMaxRows@Oracledb@@CAXV?$Local@VString@v8@@@v8@@AEBV?$PropertyCallbackInfo@VValue@v8@@@Nan@@@Z@4HA 000000018003be90 f   njsOracle.obj
 0001:0003ae90       ?dtor$0@?0??GetPoolIncrement@Pool@@CAXV?$Local@VString@v8@@@v8@@AEBV?$PropertyCallbackInfo@VValue@v8@@@Nan@@@Z@4HA 000000018003be90 f   njsPool.obj
 0001:0003ae90       ?dtor$0@?0??GetPrefetchRows@Oracledb@@CAXV?$Local@VString@v8@@@v8@@AEBV?$PropertyCallbackInfo@VValue@v8@@@Nan@@@Z@4HA 000000018003be90 f   njsOracle.obj
 0001:0003ae9c       ?dtor$2@?0??SetChunkSize@ILob@@CAXV?$Local@VString@v8@@@v8@@V?$Local@VValue@v8@@@3@AEBV?$PropertyCallbackInfo@X@Nan@@@Z@4HA 000000018003be9c f   njsIntLob.obj
 0001:0003ae9c       ?dtor$2@?0??SetLength@ILob@@CAXV?$Local@VString@v8@@@v8@@V?$Local@VValue@v8@@@3@AEBV?$PropertyCallbackInfo@X@Nan@@@Z@4HA 000000018003be9c f   njsIntLob.obj
 0001:0003ae9c       ?dtor$2@?0??SetType@ILob@@CAXV?$Local@VString@v8@@@v8@@V?$Local@VValue@v8@@@3@AEBV?$PropertyCallbackInfo@X@Nan@@@Z@4HA 000000018003be9c f   njsIntLob.obj
 0001:0003ae9c       ?dtor$2@?0??SetStmtCacheSize@Connection@@CAXV?$Local@VString@v8@@@v8@@V?$Local@VValue@v8@@@3@AEBV?$PropertyCallbackInfo@X@Nan@@@Z@4HA 000000018003be9c f   njsConnection.obj
 0001:0003ae9c       ?dtor$2@?0??SetOracleServerVersion@Connection@@CAXV?$Local@VString@v8@@@v8@@V?$Local@VValue@v8@@@3@AEBV?$PropertyCallbackInfo@X@Nan@@@Z@4HA 000000018003be9c f   njsConnection.obj
 0001:0003ae9c       ?dtor$1@?0??GetPoolIncrement@Pool@@CAXV?$Local@VString@v8@@@v8@@AEBV?$PropertyCallbackInfo@VValue@v8@@@Nan@@@Z@4HA 000000018003be9c f   njsPool.obj
 0001:0003ae9c       ?dtor$1@?0??GetPoolMax@Pool@@CAXV?$Local@VString@v8@@@v8@@AEBV?$PropertyCallbackInfo@VValue@v8@@@Nan@@@Z@4HA 000000018003be9c f   njsPool.obj
 0001:0003ae9c       ?dtor$1@?0??GetPoolMin@Pool@@CAXV?$Local@VString@v8@@@v8@@AEBV?$PropertyCallbackInfo@VValue@v8@@@Nan@@@Z@4HA 000000018003be9c f   njsPool.obj
 0001:0003ae9c       ?dtor$1@?0??GetPoolTimeout@Pool@@CAXV?$Local@VString@v8@@@v8@@AEBV?$PropertyCallbackInfo@VValue@v8@@@Nan@@@Z@4HA 000000018003be9c f   njsPool.obj
 0001:0003ae9c       ?dtor$1@?0??GetStmtCacheSize@Pool@@CAXV?$Local@VString@v8@@@v8@@AEBV?$PropertyCallbackInfo@VValue@v8@@@Nan@@@Z@4HA 000000018003be9c f   njsPool.obj
 0001:0003ae9c       ?dtor$1@?0??GetConnectionClass@Oracledb@@CAXV?$Local@VString@v8@@@v8@@AEBV?$PropertyCallbackInfo@VValue@v8@@@Nan@@@Z@4HA 000000018003be9c f   njsOracle.obj
 0001:0003ae9c       ?dtor$1@?0??GetExternalAuth@Oracledb@@CAXV?$Local@VString@v8@@@v8@@AEBV?$PropertyCallbackInfo@VValue@v8@@@Nan@@@Z@4HA 000000018003be9c f   njsOracle.obj
 0001:0003ae9c       ?dtor$1@?0??GetLobPrefetchSize@Oracledb@@CAXV?$Local@VString@v8@@@v8@@AEBV?$PropertyCallbackInfo@VValue@v8@@@Nan@@@Z@4HA 000000018003be9c f   njsOracle.obj
 0001:0003ae9c       ?dtor$1@?0??GetMaxRows@Oracledb@@CAXV?$Local@VString@v8@@@v8@@AEBV?$PropertyCallbackInfo@VValue@v8@@@Nan@@@Z@4HA 000000018003be9c f   njsOracle.obj
 0001:0003ae9c       ?dtor$1@?0??GetOracleClientVersion@Oracledb@@CAXV?$Local@VString@v8@@@v8@@AEBV?$PropertyCallbackInfo@VValue@v8@@@Nan@@@Z@4HA 000000018003be9c f   njsOracle.obj
 0001:0003ae9c       ?dtor$1@?0??GetOutFormat@Oracledb@@CAXV?$Local@VString@v8@@@v8@@AEBV?$PropertyCallbackInfo@VValue@v8@@@Nan@@@Z@4HA 000000018003be9c f   njsOracle.obj
 0001:0003ae9c       ?dtor$1@?0??GetPoolIncrement@Oracledb@@CAXV?$Local@VString@v8@@@v8@@AEBV?$PropertyCallbackInfo@VValue@v8@@@Nan@@@Z@4HA 000000018003be9c f   njsOracle.obj
 0001:0003ae9c       ?dtor$1@?0??GetPoolMax@Oracledb@@CAXV?$Local@VString@v8@@@v8@@AEBV?$PropertyCallbackInfo@VValue@v8@@@Nan@@@Z@4HA 000000018003be9c f   njsOracle.obj
 0001:0003ae9c       ?dtor$1@?0??GetPoolMin@Oracledb@@CAXV?$Local@VString@v8@@@v8@@AEBV?$PropertyCallbackInfo@VValue@v8@@@Nan@@@Z@4HA 000000018003be9c f   njsOracle.obj
 0001:0003ae9c       ?dtor$1@?0??GetPoolTimeout@Oracledb@@CAXV?$Local@VString@v8@@@v8@@AEBV?$PropertyCallbackInfo@VValue@v8@@@Nan@@@Z@4HA 000000018003be9c f   njsOracle.obj
 0001:0003ae9c       ?dtor$1@?0??GetPrefetchRows@Oracledb@@CAXV?$Local@VString@v8@@@v8@@AEBV?$PropertyCallbackInfo@VValue@v8@@@Nan@@@Z@4HA 000000018003be9c f   njsOracle.obj
 0001:0003ae9c       ?dtor$1@?0??GetStmtCacheSize@Oracledb@@CAXV?$Local@VString@v8@@@v8@@AEBV?$PropertyCallbackInfo@VValue@v8@@@Nan@@@Z@4HA 000000018003be9c f   njsOracle.obj
 0001:0003ae9c       ?dtor$1@?0??SetAutoCommit@Oracledb@@CAXV?$Local@VString@v8@@@v8@@V?$Local@VValue@v8@@@3@AEBV?$PropertyCallbackInfo@X@Nan@@@Z@4HA 000000018003be9c f   njsOracle.obj
 0001:0003ae9c       ?dtor$1@?0??SetExternalAuth@Oracledb@@CAXV?$Local@VString@v8@@@v8@@V?$Local@VValue@v8@@@3@AEBV?$PropertyCallbackInfo@X@Nan@@@Z@4HA 000000018003be9c f   njsOracle.obj
 0001:0003ae9c       ?dtor$1@?0??GetAutoCommit@Oracledb@@CAXV?$Local@VString@v8@@@v8@@AEBV?$PropertyCallbackInfo@VValue@v8@@@Nan@@@Z@4HA 000000018003be9c f   njsOracle.obj
 0001:0003aeb0       ?dtor$0@?0??SetPrefetchRows@Oracledb@@CAXV?$Local@VString@v8@@@v8@@V?$Local@VValue@v8@@@3@AEBV?$PropertyCallbackInfo@X@Nan@@@Z@4HA 000000018003beb0 f   njsOracle.obj
 0001:0003aeb0       ?dtor$0@?0??SetOutFormat@Oracledb@@CAXV?$Local@VString@v8@@@v8@@V?$Local@VValue@v8@@@3@AEBV?$PropertyCallbackInfo@X@Nan@@@Z@4HA 000000018003beb0 f   njsOracle.obj
 0001:0003aeb0       ?dtor$0@?0??SetLobPrefetchSize@Oracledb@@CAXV?$Local@VString@v8@@@v8@@V?$Local@VValue@v8@@@3@AEBV?$PropertyCallbackInfo@X@Nan@@@Z@4HA 000000018003beb0 f   njsOracle.obj
 0001:0003aeb0       ?dtor$0@?0??SetStmtCacheSize@Oracledb@@CAXV?$Local@VString@v8@@@v8@@V?$Local@VValue@v8@@@3@AEBV?$PropertyCallbackInfo@X@Nan@@@Z@4HA 000000018003beb0 f   njsOracle.obj
 0001:0003aeb0       ?dtor$0@?0??SetPoolIncrement@Oracledb@@CAXV?$Local@VString@v8@@@v8@@V?$Local@VValue@v8@@@3@AEBV?$PropertyCallbackInfo@X@Nan@@@Z@4HA 000000018003beb0 f   njsOracle.obj
 0001:0003aeb0       ?dtor$0@?0??SetPoolMax@Oracledb@@CAXV?$Local@VString@v8@@@v8@@V?$Local@VValue@v8@@@3@AEBV?$PropertyCallbackInfo@X@Nan@@@Z@4HA 000000018003beb0 f   njsOracle.obj
 0001:0003aeb0       ?dtor$0@?0??SetPoolMin@Oracledb@@CAXV?$Local@VString@v8@@@v8@@V?$Local@VValue@v8@@@3@AEBV?$PropertyCallbackInfo@X@Nan@@@Z@4HA 000000018003beb0 f   njsOracle.obj
 0001:0003aeb0       ?dtor$0@?0??SetPoolTimeout@Oracledb@@CAXV?$Local@VString@v8@@@v8@@V?$Local@VValue@v8@@@3@AEBV?$PropertyCallbackInfo@X@Nan@@@Z@4HA 000000018003beb0 f   njsOracle.obj
 0001:0003aeb0       ?dtor$0@?0??SetMaxRows@Oracledb@@CAXV?$Local@VString@v8@@@v8@@V?$Local@VValue@v8@@@3@AEBV?$PropertyCallbackInfo@X@Nan@@@Z@4HA 000000018003beb0 f   njsOracle.obj
 0001:0003aebc       ?dtor$3@?0??SetPoolMin@Oracledb@@CAXV?$Local@VString@v8@@@v8@@V?$Local@VValue@v8@@@3@AEBV?$PropertyCallbackInfo@X@Nan@@@Z@4HA 000000018003bebc f   njsOracle.obj
 0001:0003aebc       ?dtor$3@?0??SetPoolTimeout@Oracledb@@CAXV?$Local@VString@v8@@@v8@@V?$Local@VValue@v8@@@3@AEBV?$PropertyCallbackInfo@X@Nan@@@Z@4HA 000000018003bebc f   njsOracle.obj
 0001:0003aebc       ?dtor$3@?0??SetPoolIncrement@Oracledb@@CAXV?$Local@VString@v8@@@v8@@V?$Local@VValue@v8@@@3@AEBV?$PropertyCallbackInfo@X@Nan@@@Z@4HA 000000018003bebc f   njsOracle.obj
 0001:0003aebc       ?dtor$3@?0??SetPrefetchRows@Oracledb@@CAXV?$Local@VString@v8@@@v8@@V?$Local@VValue@v8@@@3@AEBV?$PropertyCallbackInfo@X@Nan@@@Z@4HA 000000018003bebc f   njsOracle.obj
 0001:0003aebc       ?dtor$3@?0??SetStmtCacheSize@Oracledb@@CAXV?$Local@VString@v8@@@v8@@V?$Local@VValue@v8@@@3@AEBV?$PropertyCallbackInfo@X@Nan@@@Z@4HA 000000018003bebc f   njsOracle.obj
 0001:0003aebc       ?dtor$3@?0??SetPoolMax@Oracledb@@CAXV?$Local@VString@v8@@@v8@@V?$Local@VValue@v8@@@3@AEBV?$PropertyCallbackInfo@X@Nan@@@Z@4HA 000000018003bebc f   njsOracle.obj
 0001:0003aebc       ?dtor$3@?0??SetMaxRows@Oracledb@@CAXV?$Local@VString@v8@@@v8@@V?$Local@VValue@v8@@@3@AEBV?$PropertyCallbackInfo@X@Nan@@@Z@4HA 000000018003bebc f   njsOracle.obj
 0001:0003aebc       ?dtor$3@?0??SetLobPrefetchSize@Oracledb@@CAXV?$Local@VString@v8@@@v8@@V?$Local@VValue@v8@@@3@AEBV?$PropertyCallbackInfo@X@Nan@@@Z@4HA 000000018003bebc f   njsOracle.obj
 0001:0003aebc       ?dtor$3@?0??SetOutFormat@Oracledb@@CAXV?$Local@VString@v8@@@v8@@V?$Local@VValue@v8@@@3@AEBV?$PropertyCallbackInfo@X@Nan@@@Z@4HA 000000018003bebc f   njsOracle.obj
 0001:0003aec8       ?dtor$1@?0??SetPrefetchRows@Oracledb@@CAXV?$Local@VString@v8@@@v8@@V?$Local@VValue@v8@@@3@AEBV?$PropertyCallbackInfo@X@Nan@@@Z@4HA 000000018003bec8 f   njsOracle.obj
 0001:0003aec8       ?dtor$1@?0??SetMaxRows@Oracledb@@CAXV?$Local@VString@v8@@@v8@@V?$Local@VValue@v8@@@3@AEBV?$PropertyCallbackInfo@X@Nan@@@Z@4HA 000000018003bec8 f   njsOracle.obj
 0001:0003aec8       ?dtor$1@?0??SetOutFormat@Oracledb@@CAXV?$Local@VString@v8@@@v8@@V?$Local@VValue@v8@@@3@AEBV?$PropertyCallbackInfo@X@Nan@@@Z@4HA 000000018003bec8 f   njsOracle.obj
 0001:0003aec8       ?dtor$1@?0??SetPoolIncrement@Oracledb@@CAXV?$Local@VString@v8@@@v8@@V?$Local@VValue@v8@@@3@AEBV?$PropertyCallbackInfo@X@Nan@@@Z@4HA 000000018003bec8 f   njsOracle.obj
 0001:0003aec8       ?dtor$1@?0??SetPoolMax@Oracledb@@CAXV?$Local@VString@v8@@@v8@@V?$Local@VValue@v8@@@3@AEBV?$PropertyCallbackInfo@X@Nan@@@Z@4HA 000000018003bec8 f   njsOracle.obj
 0001:0003aec8       ?dtor$1@?0??SetPoolMin@Oracledb@@CAXV?$Local@VString@v8@@@v8@@V?$Local@VValue@v8@@@3@AEBV?$PropertyCallbackInfo@X@Nan@@@Z@4HA 000000018003bec8 f   njsOracle.obj
 0001:0003aec8       ?dtor$1@?0??SetStmtCacheSize@Oracledb@@CAXV?$Local@VString@v8@@@v8@@V?$Local@VValue@v8@@@3@AEBV?$PropertyCallbackInfo@X@Nan@@@Z@4HA 000000018003bec8 f   njsOracle.obj
 0001:0003aec8       ?dtor$1@?0??SetPoolTimeout@Oracledb@@CAXV?$Local@VString@v8@@@v8@@V?$Local@VValue@v8@@@3@AEBV?$PropertyCallbackInfo@X@Nan@@@Z@4HA 000000018003bec8 f   njsOracle.obj
 0001:0003aec8       ?dtor$1@?0??SetLobPrefetchSize@Oracledb@@CAXV?$Local@VString@v8@@@v8@@V?$Local@VValue@v8@@@3@AEBV?$PropertyCallbackInfo@X@Nan@@@Z@4HA 000000018003bec8 f   njsOracle.obj
 0001:0003aed4       ?dtor$6@?0??SetStmtCacheSize@Oracledb@@CAXV?$Local@VString@v8@@@v8@@V?$Local@VValue@v8@@@3@AEBV?$PropertyCallbackInfo@X@Nan@@@Z@4HA 000000018003bed4 f   njsOracle.obj
 0001:0003aed4       ?dtor$6@?0??SetMaxRows@Oracledb@@CAXV?$Local@VString@v8@@@v8@@V?$Local@VValue@v8@@@3@AEBV?$PropertyCallbackInfo@X@Nan@@@Z@4HA 000000018003bed4 f   njsOracle.obj
 0001:0003aed4       ?dtor$6@?0??SetPoolMin@Oracledb@@CAXV?$Local@VString@v8@@@v8@@V?$Local@VValue@v8@@@3@AEBV?$PropertyCallbackInfo@X@Nan@@@Z@4HA 000000018003bed4 f   njsOracle.obj
 0001:0003aed4       ?dtor$6@?0??SetOutFormat@Oracledb@@CAXV?$Local@VString@v8@@@v8@@V?$Local@VValue@v8@@@3@AEBV?$PropertyCallbackInfo@X@Nan@@@Z@4HA 000000018003bed4 f   njsOracle.obj
 0001:0003aed4       ?dtor$6@?0??SetPrefetchRows@Oracledb@@CAXV?$Local@VString@v8@@@v8@@V?$Local@VValue@v8@@@3@AEBV?$PropertyCallbackInfo@X@Nan@@@Z@4HA 000000018003bed4 f   njsOracle.obj
 0001:0003aed4       ?dtor$6@?0??SetPoolIncrement@Oracledb@@CAXV?$Local@VString@v8@@@v8@@V?$Local@VValue@v8@@@3@AEBV?$PropertyCallbackInfo@X@Nan@@@Z@4HA 000000018003bed4 f   njsOracle.obj
 0001:0003aed4       ?dtor$6@?0??SetPoolMax@Oracledb@@CAXV?$Local@VString@v8@@@v8@@V?$Local@VValue@v8@@@3@AEBV?$PropertyCallbackInfo@X@Nan@@@Z@4HA 000000018003bed4 f   njsOracle.obj
 0001:0003aed4       ?dtor$6@?0??SetPoolTimeout@Oracledb@@CAXV?$Local@VString@v8@@@v8@@V?$Local@VValue@v8@@@3@AEBV?$PropertyCallbackInfo@X@Nan@@@Z@4HA 000000018003bed4 f   njsOracle.obj
 0001:0003aed4       ?dtor$6@?0??SetLobPrefetchSize@Oracledb@@CAXV?$Local@VString@v8@@@v8@@V?$Local@VValue@v8@@@3@AEBV?$PropertyCallbackInfo@X@Nan@@@Z@4HA 000000018003bed4 f   njsOracle.obj
 0001:0003aee0       ?dtor$0@?0??SetOracleClientVersion@Oracledb@@CAXV?$Local@VString@v8@@@v8@@V?$Local@VValue@v8@@@3@AEBV?$PropertyCallbackInfo@X@Nan@@@Z@4HA 000000018003bee0 f   njsOracle.obj
 0001:0003aee0       ?dtor$0@?0??SetVersion@Oracledb@@CAXV?$Local@VString@v8@@@v8@@V?$Local@VValue@v8@@@3@AEBV?$PropertyCallbackInfo@X@Nan@@@Z@4HA 000000018003bee0 f   njsOracle.obj
 0001:0003aeec       ?dtor$2@?0??SetOracleClientVersion@Oracledb@@CAXV?$Local@VString@v8@@@v8@@V?$Local@VValue@v8@@@3@AEBV?$PropertyCallbackInfo@X@Nan@@@Z@4HA 000000018003beec f   njsOracle.obj
 0001:0003aeec       ?dtor$2@?0??SetVersion@Oracledb@@CAXV?$Local@VString@v8@@@v8@@V?$Local@VValue@v8@@@3@AEBV?$PropertyCallbackInfo@X@Nan@@@Z@4HA 000000018003beec f   njsOracle.obj
 0001:0003af00       ?dtor$0@?0??SetConnectionClass@Oracledb@@CAXV?$Local@VString@v8@@@v8@@V?$Local@VValue@v8@@@3@AEBV?$PropertyCallbackInfo@X@Nan@@@Z@4HA 000000018003bf00 f   njsOracle.obj
 0001:0003af0c       ?dtor$3@?0??SetConnectionClass@Oracledb@@CAXV?$Local@VString@v8@@@v8@@V?$Local@VValue@v8@@@3@AEBV?$PropertyCallbackInfo@X@Nan@@@Z@4HA 000000018003bf0c f   njsOracle.obj
 0001:0003af18       ?dtor$1@?0??SetConnectionClass@Oracledb@@CAXV?$Local@VString@v8@@@v8@@V?$Local@VValue@v8@@@3@AEBV?$PropertyCallbackInfo@X@Nan@@@Z@4HA 000000018003bf18 f   njsOracle.obj
 0001:0003af30       ?dtor$0@?0??GetFetchAsString@Oracledb@@CAXV?$Local@VString@v8@@@v8@@AEBV?$PropertyCallbackInfo@VValue@v8@@@Nan@@@Z@4HA 000000018003bf30 f   njsOracle.obj
 0001:0003af3c       ?dtor$1@?0??GetFetchAsString@Oracledb@@CAXV?$Local@VString@v8@@@v8@@AEBV?$PropertyCallbackInfo@VValue@v8@@@Nan@@@Z@4HA 000000018003bf3c f   njsOracle.obj
 0001:0003af50       ?dtor$0@?0??SetFetchAsString@Oracledb@@CAXV?$Local@VString@v8@@@v8@@V?$Local@VValue@v8@@@3@AEBV?$PropertyCallbackInfo@X@Nan@@@Z@4HA 000000018003bf50 f   njsOracle.obj
 0001:0003af5c       ?dtor$1@?0??SetFetchAsString@Oracledb@@CAXV?$Local@VString@v8@@@v8@@V?$Local@VValue@v8@@@3@AEBV?$PropertyCallbackInfo@X@Nan@@@Z@4HA 000000018003bf5c f   njsOracle.obj
 0001:0003af68       ?dtor$4@?0??SetFetchAsString@Oracledb@@CAXV?$Local@VString@v8@@@v8@@V?$Local@VValue@v8@@@3@AEBV?$PropertyCallbackInfo@X@Nan@@@Z@4HA 000000018003bf68 f   njsOracle.obj
 0001:0003af74       ?dtor$7@?0??SetFetchAsString@Oracledb@@CAXV?$Local@VString@v8@@@v8@@V?$Local@VValue@v8@@@3@AEBV?$PropertyCallbackInfo@X@Nan@@@Z@4HA 000000018003bf74 f   njsOracle.obj
 0001:0003af80       ?dtor$10@?0??SetFetchAsString@Oracledb@@CAXV?$Local@VString@v8@@@v8@@V?$Local@VValue@v8@@@3@AEBV?$PropertyCallbackInfo@X@Nan@@@Z@4HA 000000018003bf80 f   njsOracle.obj
 0001:0003af90       ?dtor$0@?0??GetConnection@Oracledb@@CAXAEBV?$FunctionCallbackInfo@VValue@v8@@@Nan@@@Z@4HA 000000018003bf90 f   njsOracle.obj
 0001:0003af9c       ?dtor$18@?0??GetConnection@Oracledb@@CAXAEBV?$FunctionCallbackInfo@VValue@v8@@@Nan@@@Z@4HA 000000018003bf9c f   njsOracle.obj
 0001:0003afa8       ?dtor$2@?0??GetConnection@Oracledb@@CAXAEBV?$FunctionCallbackInfo@VValue@v8@@@Nan@@@Z@4HA 000000018003bfa8 f   njsOracle.obj
 0001:0003afb4       ?dtor$6@?0??GetConnection@Oracledb@@CAXAEBV?$FunctionCallbackInfo@VValue@v8@@@Nan@@@Z@4HA 000000018003bfb4 f   njsOracle.obj
 0001:0003afc2       ?dtor$9@?0??GetConnection@Oracledb@@CAXAEBV?$FunctionCallbackInfo@VValue@v8@@@Nan@@@Z@4HA 000000018003bfc2 f   njsOracle.obj
 0001:0003afd0       ?dtor$12@?0??GetConnection@Oracledb@@CAXAEBV?$FunctionCallbackInfo@VValue@v8@@@Nan@@@Z@4HA 000000018003bfd0 f   njsOracle.obj
 0001:0003afde       ?dtor$17@?0??GetConnection@Oracledb@@CAXAEBV?$FunctionCallbackInfo@VValue@v8@@@Nan@@@Z@4HA 000000018003bfde f   njsOracle.obj
 0001:0003afea       ?dtor$21@?0??GetConnection@Oracledb@@CAXAEBV?$FunctionCallbackInfo@VValue@v8@@@Nan@@@Z@4HA 000000018003bfea f   njsOracle.obj
 0001:0003b000       ?catch$0@?0??Async_GetConnection@Oracledb@@CAXPEAUuv_work_s@@@Z@4HA 000000018003c000 f   njsOracle.obj
 0001:0003b00d       __catch$?Async_GetConnection@Oracledb@@CAXPEAUuv_work_s@@@Z$1 000000018003c00d f   njsOracle.obj
 0001:0003b090       ?dtor$0@?0??Async_AfterGetConnection@Oracledb@@CAXPEAUuv_work_s@@@Z@4HA 000000018003c090 f   njsOracle.obj
 0001:0003b090       ?dtor$0@?0??Async_AfterCreatePool@Oracledb@@CAXPEAUuv_work_s@@@Z@4HA 000000018003c090 f   njsOracle.obj
 0001:0003b090       ?dtor$0@?0??Async_AfterGetRows@ResultSet@@CAXPEAUuv_work_s@@@Z@4HA 000000018003c090 f   njsResultSet.obj
 0001:0003b090       ?dtor$0@?0??Async_AfterRead@ILob@@CAXPEAUuv_work_s@@@Z@4HA 000000018003c090 f   njsIntLob.obj
 0001:0003b090       ?dtor$0@?0??Async_AfterGetConnection@Pool@@CAXPEAUuv_work_s@@@Z@4HA 000000018003c090 f   njsPool.obj
 0001:0003b09c       ?dtor$1@?0??Async_AfterGetConnection@Pool@@CAXPEAUuv_work_s@@@Z@4HA 000000018003c09c f   njsPool.obj
 0001:0003b09c       ?dtor$1@?0??Async_AfterRead@ILob@@CAXPEAUuv_work_s@@@Z@4HA 000000018003c09c f   njsIntLob.obj
 0001:0003b09c       ?dtor$1@?0??Async_AfterCreatePool@Oracledb@@CAXPEAUuv_work_s@@@Z@4HA 000000018003c09c f   njsOracle.obj
 0001:0003b09c       ?dtor$1@?0??Async_AfterGetConnection@Oracledb@@CAXPEAUuv_work_s@@@Z@4HA 000000018003c09c f   njsOracle.obj
 0001:0003b09c       ?dtor$1@?0??Async_AfterGetRows@ResultSet@@CAXPEAUuv_work_s@@@Z@4HA 000000018003c09c f   njsResultSet.obj
 0001:0003b0b0       ?dtor$0@?0??CreatePool@Oracledb@@CAXAEBV?$FunctionCallbackInfo@VValue@v8@@@Nan@@@Z@4HA 000000018003c0b0 f   njsOracle.obj
 0001:0003b0bc       ?dtor$1@?0??CreatePool@Oracledb@@CAXAEBV?$FunctionCallbackInfo@VValue@v8@@@Nan@@@Z@4HA 000000018003c0bc f   njsOracle.obj
 0001:0003b0c8       ?dtor$28@?0??CreatePool@Oracledb@@CAXAEBV?$FunctionCallbackInfo@VValue@v8@@@Nan@@@Z@4HA 000000018003c0c8 f   njsOracle.obj
 0001:0003b0d4       ?dtor$3@?0??CreatePool@Oracledb@@CAXAEBV?$FunctionCallbackInfo@VValue@v8@@@Nan@@@Z@4HA 000000018003c0d4 f   njsOracle.obj
 0001:0003b0e0       ?dtor$7@?0??CreatePool@Oracledb@@CAXAEBV?$FunctionCallbackInfo@VValue@v8@@@Nan@@@Z@4HA 000000018003c0e0 f   njsOracle.obj
 0001:0003b0ee       ?dtor$10@?0??CreatePool@Oracledb@@CAXAEBV?$FunctionCallbackInfo@VValue@v8@@@Nan@@@Z@4HA 000000018003c0ee f   njsOracle.obj
 0001:0003b0fc       ?dtor$13@?0??CreatePool@Oracledb@@CAXAEBV?$FunctionCallbackInfo@VValue@v8@@@Nan@@@Z@4HA 000000018003c0fc f   njsOracle.obj
 0001:0003b10a       ?dtor$26@?0??CreatePool@Oracledb@@CAXAEBV?$FunctionCallbackInfo@VValue@v8@@@Nan@@@Z@4HA 000000018003c10a f   njsOracle.obj
 0001:0003b116       ?dtor$32@?0??CreatePool@Oracledb@@CAXAEBV?$FunctionCallbackInfo@VValue@v8@@@Nan@@@Z@4HA 000000018003c116 f   njsOracle.obj
 0001:0003b130       ?catch$0@?0??Async_CreatePool@Oracledb@@CAXPEAUuv_work_s@@@Z@4HA 000000018003c130 f   njsOracle.obj
 0001:0003b13d       __catch$?Async_CreatePool@Oracledb@@CAXPEAUuv_work_s@@@Z$1 000000018003c13d f   njsOracle.obj
 0001:0003b1c0       ?dtor$2@?0???6?$basic_ostream@DU?$char_traits@D@std@@@std@@QEAAAEAV01@H@Z@4HA 000000018003c1c0 f   njsOracle.obj
 0001:0003b1cc       ?dtor$0@?0???6?$basic_ostream@DU?$char_traits@D@std@@@std@@QEAAAEAV01@H@Z@4HA 000000018003c1cc f   njsOracle.obj
 0001:0003b1d8       ?dtor$1@?0???6?$basic_ostream@DU?$char_traits@D@std@@@std@@QEAAAEAV01@H@Z@4HA 000000018003c1d8 f   njsOracle.obj
 0001:0003b1f0       ?dtor$0@?0???0?$basic_stringstream@DU?$char_traits@D@std@@V?$allocator@D@2@@std@@QEAA@H@Z@4HA 000000018003c1f0 f   njsOracle.obj
 0001:0003b21d       ?dtor$1@?0???0?$basic_stringstream@DU?$char_traits@D@std@@V?$allocator@D@2@@std@@QEAA@H@Z@4HA 000000018003c21d f   njsOracle.obj
 0001:0003b22d       ?dtor$3@?0???0?$basic_stringstream@DU?$char_traits@D@std@@V?$allocator@D@2@@std@@QEAA@H@Z@4HA 000000018003c22d f   njsOracle.obj
 0001:0003b240       ?dtor$0@?0??init@?$basic_ios@DU?$char_traits@D@std@@@std@@IEAAXPEAV?$basic_streambuf@DU?$char_traits@D@std@@@2@_N@Z@4HA 000000018003c240 f   njsOracle.obj
 0001:0003b250       ?dtor$1@?0???0?$basic_iostream@DU?$char_traits@D@std@@@std@@QEAA@PEAV?$basic_streambuf@DU?$char_traits@D@std@@@1@@Z@4HA 000000018003c250 f   njsOracle.obj
 0001:0003b260       ?dtor$0@?0???0sentry@?$basic_ostream@DU?$char_traits@D@std@@@std@@QEAA@AEAV12@@Z@4HA 000000018003c260 f   njsOracle.obj
 0001:0003b270       ?dtor$0@?0??do_put@?$num_put@DV?$ostreambuf_iterator@DU?$char_traits@D@std@@@std@@@std@@MEBA?AV?$ostreambuf_iterator@DU?$char_traits@D@std@@@2@V32@AEAVios_base@2@D_N@Z@4HA 000000018003c270 f   njsOracle.obj
 0001:0003b27c       ?dtor$1@?0??do_put@?$num_put@DV?$ostreambuf_iterator@DU?$char_traits@D@std@@@std@@@std@@MEBA?AV?$ostreambuf_iterator@DU?$char_traits@D@std@@@2@V32@AEAVios_base@2@D_N@Z@4HA 000000018003c27c f   njsOracle.obj
 0001:0003b290       ?dtor$0@?0??flush@?$basic_ostream@DU?$char_traits@D@std@@@std@@QEAAAEAV12@XZ@4HA 000000018003c290 f   njsOracle.obj
 0001:0003b2a0       ?dtor$0@?0??_Fput@?$num_put@DV?$ostreambuf_iterator@DU?$char_traits@D@std@@@std@@@std@@AEBA?AV?$ostreambuf_iterator@DU?$char_traits@D@std@@@2@V32@AEAVios_base@2@DPEBD_K333@Z@4HA 000000018003c2a0 f   njsOracle.obj
 0001:0003b2ac       ?dtor$1@?0??_Fput@?$num_put@DV?$ostreambuf_iterator@DU?$char_traits@D@std@@@std@@@std@@AEBA?AV?$ostreambuf_iterator@DU?$char_traits@D@std@@@2@V32@AEAVios_base@2@DPEBD_K333@Z@4HA 000000018003c2ac f   njsOracle.obj
 0001:0003b2b8       ?dtor$2@?0??_Fput@?$num_put@DV?$ostreambuf_iterator@DU?$char_traits@D@std@@@std@@@std@@AEBA?AV?$ostreambuf_iterator@DU?$char_traits@D@std@@@2@V32@AEAVios_base@2@DPEBD_K333@Z@4HA 000000018003c2b8 f   njsOracle.obj
 0001:0003b2c4       ?dtor$3@?0??_Fput@?$num_put@DV?$ostreambuf_iterator@DU?$char_traits@D@std@@@std@@@std@@AEBA?AV?$ostreambuf_iterator@DU?$char_traits@D@std@@@2@V32@AEAVios_base@2@DPEBD_K333@Z@4HA 000000018003c2c4 f   njsOracle.obj
 0001:0003b2d0       ?dtor$0@?0??_Iput@?$num_put@DV?$ostreambuf_iterator@DU?$char_traits@D@std@@@std@@@std@@AEBA?AV?$ostreambuf_iterator@DU?$char_traits@D@std@@@2@V32@AEAVios_base@2@DPEAD_K@Z@4HA 000000018003c2d0 f   njsOracle.obj
 0001:0003b2dc       ?dtor$1@?0??_Iput@?$num_put@DV?$ostreambuf_iterator@DU?$char_traits@D@std@@@std@@@std@@AEBA?AV?$ostreambuf_iterator@DU?$char_traits@D@std@@@2@V32@AEAVios_base@2@DPEAD_K@Z@4HA 000000018003c2dc f   njsOracle.obj
 0001:0003b2e8       ?dtor$2@?0??_Iput@?$num_put@DV?$ostreambuf_iterator@DU?$char_traits@D@std@@@std@@@std@@AEBA?AV?$ostreambuf_iterator@DU?$char_traits@D@std@@@2@V32@AEAVios_base@2@DPEAD_K@Z@4HA 000000018003c2e8 f   njsOracle.obj
 0001:0003b2f4       ?dtor$3@?0??_Iput@?$num_put@DV?$ostreambuf_iterator@DU?$char_traits@D@std@@@std@@@std@@AEBA?AV?$ostreambuf_iterator@DU?$char_traits@D@std@@@2@V32@AEAVios_base@2@DPEAD_K@Z@4HA 000000018003c2f4 f   njsOracle.obj
 0001:0003b300       ?dtor$0@?0???$use_facet@V?$ctype@D@std@@@std@@YAAEBV?$ctype@D@0@AEBVlocale@0@@Z@4HA 000000018003c300 f   njsOracle.obj
 0001:0003b300       ?dtor$0@?0???$use_facet@V?$numpunct@D@std@@@std@@YAAEBV?$numpunct@D@0@AEBVlocale@0@@Z@4HA 000000018003c300 f   njsOracle.obj
 0001:0003b300       ?dtor$0@?0???$use_facet@V?$num_put@DV?$ostreambuf_iterator@DU?$char_traits@D@std@@@std@@@std@@@std@@YAAEBV?$num_put@DV?$ostreambuf_iterator@DU?$char_traits@D@std@@@std@@@0@AEBVlocale@0@@Z@4HA 000000018003c300 f   njsOracle.obj
 0001:0003b310       ?dtor$1@?0???$?6DU?$char_traits@D@std@@V?$allocator@D@1@@std@@YAAEAV?$basic_ostream@DU?$char_traits@D@std@@@0@AEAV10@AEBV?$basic_string@DU?$char_traits@D@std@@V?$allocator@D@2@@0@@Z@4HA 000000018003c310 f   dpiExceptionImpl.obj
 0001:0003b310       ?dtor$1@?0???$?6U?$char_traits@D@std@@@std@@YAAEAV?$basic_ostream@DU?$char_traits@D@std@@@0@AEAV10@PEBD@Z@4HA 000000018003c310 f   njsOracle.obj
 0001:0003b31c       ?dtor$0@?0???$?6U?$char_traits@D@std@@@std@@YAAEAV?$basic_ostream@DU?$char_traits@D@std@@@0@AEAV10@PEBD@Z@4HA 000000018003c31c f   njsOracle.obj
 0001:0003b31c       ?dtor$0@?0???$?6DU?$char_traits@D@std@@V?$allocator@D@1@@std@@YAAEAV?$basic_ostream@DU?$char_traits@D@std@@@0@AEAV10@AEBV?$basic_string@DU?$char_traits@D@std@@V?$allocator@D@2@@0@@Z@4HA 000000018003c31c f   dpiExceptionImpl.obj
 0001:0003b330       ?dtor$0@?0??_Getcat@?$num_put@DV?$ostreambuf_iterator@DU?$char_traits@D@std@@@std@@@std@@SA_KPEAPEBVfacet@locale@2@PEBV42@@Z@4HA 000000018003c330 f   njsOracle.obj
 0001:0003b340       ?dtor$0@?0??_Getcat@?$numpunct@D@std@@SA_KPEAPEBVfacet@locale@2@PEBV42@@Z@4HA 000000018003c340 f   njsOracle.obj
 0001:0003b34c       ?dtor$1@?0??_Getcat@?$numpunct@D@std@@SA_KPEAPEBVfacet@locale@2@PEBV42@@Z@4HA 000000018003c34c f   njsOracle.obj
 0001:0003b378       ?dtor$2@?0??_Getcat@?$numpunct@D@std@@SA_KPEAPEBVfacet@locale@2@PEBV42@@Z@4HA 000000018003c378 f   njsOracle.obj
 0001:0003b390       ?dtor$0@?0???1poolBaton@@QEAA@XZ@4HA 000000018003c390 f   njsPool.obj
 0001:0003b390       ?dtor$0@?0???0poolBaton@@QEAA@V?$Local@VFunction@v8@@@v8@@@Z@4HA 000000018003c390 f   njsPool.obj
 0001:0003b3a3       ?dtor$1@?0???1poolBaton@@QEAA@XZ@4HA 000000018003c3a3 f   njsPool.obj
 0001:0003b3a3       ?dtor$1@?0???0poolBaton@@QEAA@V?$Local@VFunction@v8@@@v8@@@Z@4HA 000000018003c3a3 f   njsPool.obj
 0001:0003b3b6       ?dtor$2@?0???1poolBaton@@QEAA@XZ@4HA 000000018003c3b6 f   njsPool.obj
 0001:0003b3b6       ?dtor$2@?0???0poolBaton@@QEAA@V?$Local@VFunction@v8@@@v8@@@Z@4HA 000000018003c3b6 f   njsPool.obj
 0001:0003b3d0       ?dtor$0@?0??getPoolProperty@Pool@@CA?AV?$Local@VPrimitive@v8@@@v8@@PEAV1@I@Z@4HA 000000018003c3d0 f   njsPool.obj
 0001:0003b3dc       ?dtor$1@?0??getPoolProperty@Pool@@CA?AV?$Local@VPrimitive@v8@@@v8@@PEAV1@I@Z@4HA 000000018003c3dc f   njsPool.obj
 0001:0003b3e8       ?dtor$3@?0??getPoolProperty@Pool@@CA?AV?$Local@VPrimitive@v8@@@v8@@PEAV1@I@Z@4HA 000000018003c3e8 f   njsPool.obj
 0001:0003b400       ?dtor$0@?0??GetConnectionsOpen@Pool@@CAXV?$Local@VString@v8@@@v8@@AEBV?$PropertyCallbackInfo@VValue@v8@@@Nan@@@Z@4HA 000000018003c400 f   njsPool.obj
 0001:0003b40c       ?dtor$2@?0??GetConnectionsOpen@Pool@@CAXV?$Local@VString@v8@@@v8@@AEBV?$PropertyCallbackInfo@VValue@v8@@@Nan@@@Z@4HA 000000018003c40c f   njsPool.obj
 0001:0003b418       ?dtor$1@?0??GetConnectionsOpen@Pool@@CAXV?$Local@VString@v8@@@v8@@AEBV?$PropertyCallbackInfo@VValue@v8@@@Nan@@@Z@4HA 000000018003c418 f   njsPool.obj
 0001:0003b424       ?dtor$5@?0??GetConnectionsOpen@Pool@@CAXV?$Local@VString@v8@@@v8@@AEBV?$PropertyCallbackInfo@VValue@v8@@@Nan@@@Z@4HA 000000018003c424 f   njsPool.obj
 0001:0003b430       ?catch$0@?0??GetConnectionsOpen@Pool@@CAXV?$Local@VString@v8@@@v8@@AEBV?$PropertyCallbackInfo@VValue@v8@@@Nan@@@Z@4HA 000000018003c430 f   njsPool.obj
 0001:0003b43e       __catch$?GetConnectionsOpen@Pool@@CAXV?$Local@VString@v8@@@v8@@AEBV?$PropertyCallbackInfo@VValue@v8@@@Nan@@@Z$0 000000018003c43e f   njsPool.obj
 0001:0003b4d1       ?dtor$8@?0??GetConnectionsOpen@Pool@@CAXV?$Local@VString@v8@@@v8@@AEBV?$PropertyCallbackInfo@VValue@v8@@@Nan@@@Z@4HA 000000018003c4d1 f   njsPool.obj
 0001:0003b4e0       ?dtor$0@?0??GetConnectionsInUse@Pool@@CAXV?$Local@VString@v8@@@v8@@AEBV?$PropertyCallbackInfo@VValue@v8@@@Nan@@@Z@4HA 000000018003c4e0 f   njsPool.obj
 0001:0003b4ec       ?dtor$2@?0??GetConnectionsInUse@Pool@@CAXV?$Local@VString@v8@@@v8@@AEBV?$PropertyCallbackInfo@VValue@v8@@@Nan@@@Z@4HA 000000018003c4ec f   njsPool.obj
 0001:0003b4f8       ?dtor$1@?0??GetConnectionsInUse@Pool@@CAXV?$Local@VString@v8@@@v8@@AEBV?$PropertyCallbackInfo@VValue@v8@@@Nan@@@Z@4HA 000000018003c4f8 f   njsPool.obj
 0001:0003b504       ?dtor$5@?0??GetConnectionsInUse@Pool@@CAXV?$Local@VString@v8@@@v8@@AEBV?$PropertyCallbackInfo@VValue@v8@@@Nan@@@Z@4HA 000000018003c504 f   njsPool.obj
 0001:0003b510       ?catch$0@?0??GetConnectionsInUse@Pool@@CAXV?$Local@VString@v8@@@v8@@AEBV?$PropertyCallbackInfo@VValue@v8@@@Nan@@@Z@4HA 000000018003c510 f   njsPool.obj
 0001:0003b51e       __catch$?GetConnectionsInUse@Pool@@CAXV?$Local@VString@v8@@@v8@@AEBV?$PropertyCallbackInfo@VValue@v8@@@Nan@@@Z$0 000000018003c51e f   njsPool.obj
 0001:0003b5b1       ?dtor$8@?0??GetConnectionsInUse@Pool@@CAXV?$Local@VString@v8@@@v8@@AEBV?$PropertyCallbackInfo@VValue@v8@@@Nan@@@Z@4HA 000000018003c5b1 f   njsPool.obj
 0001:0003b5c0       ?dtor$0@?0??setPoolProperty@Pool@@CAXPEAV1@V?$basic_string@DU?$char_traits@D@std@@V?$allocator@D@2@@std@@@Z@4HA 000000018003c5c0 f   njsPool.obj
 0001:0003b5cc       ?dtor$1@?0??setPoolProperty@Pool@@CAXPEAV1@V?$basic_string@DU?$char_traits@D@std@@V?$allocator@D@2@@std@@@Z@4HA 000000018003c5cc f   njsPool.obj
 0001:0003b5d8       ?dtor$2@?0??setPoolProperty@Pool@@CAXPEAV1@V?$basic_string@DU?$char_traits@D@std@@V?$allocator@D@2@@std@@@Z@4HA 000000018003c5d8 f   njsPool.obj
 0001:0003b5e4       ?dtor$7@?0??setPoolProperty@Pool@@CAXPEAV1@V?$basic_string@DU?$char_traits@D@std@@V?$allocator@D@2@@std@@@Z@4HA 000000018003c5e4 f   njsPool.obj
 0001:0003b5f0       ?dtor$3@?0??setPoolProperty@Pool@@CAXPEAV1@V?$basic_string@DU?$char_traits@D@std@@V?$allocator@D@2@@std@@@Z@4HA 000000018003c5f0 f   njsPool.obj
 0001:0003b5fc       ?dtor$11@?0??setPoolProperty@Pool@@CAXPEAV1@V?$basic_string@DU?$char_traits@D@std@@V?$allocator@D@2@@std@@@Z@4HA 000000018003c5fc f   njsPool.obj
 0001:0003b610       ?dtor$0@?0??SetConnectionsOpen@Pool@@CAXV?$Local@VString@v8@@@v8@@V?$Local@VValue@v8@@@3@AEBV?$PropertyCallbackInfo@X@Nan@@@Z@4HA 000000018003c610 f   njsPool.obj
 0001:0003b610       ?dtor$0@?0??SetPoolMin@Pool@@CAXV?$Local@VString@v8@@@v8@@V?$Local@VValue@v8@@@3@AEBV?$PropertyCallbackInfo@X@Nan@@@Z@4HA 000000018003c610 f   njsPool.obj
 0001:0003b610       ?dtor$0@?0??SetStmtCacheSize@Pool@@CAXV?$Local@VString@v8@@@v8@@V?$Local@VValue@v8@@@3@AEBV?$PropertyCallbackInfo@X@Nan@@@Z@4HA 000000018003c610 f   njsPool.obj
 0001:0003b610       ?dtor$0@?0??SetPoolMax@Pool@@CAXV?$Local@VString@v8@@@v8@@V?$Local@VValue@v8@@@3@AEBV?$PropertyCallbackInfo@X@Nan@@@Z@4HA 000000018003c610 f   njsPool.obj
 0001:0003b610       ?dtor$0@?0??SetPoolTimeout@Pool@@CAXV?$Local@VString@v8@@@v8@@V?$Local@VValue@v8@@@3@AEBV?$PropertyCallbackInfo@X@Nan@@@Z@4HA 000000018003c610 f   njsPool.obj
 0001:0003b610       ?dtor$0@?0??SetConnectionsInUse@Pool@@CAXV?$Local@VString@v8@@@v8@@V?$Local@VValue@v8@@@3@AEBV?$PropertyCallbackInfo@X@Nan@@@Z@4HA 000000018003c610 f   njsPool.obj
 0001:0003b610       ?dtor$0@?0??SetPoolIncrement@Pool@@CAXV?$Local@VString@v8@@@v8@@V?$Local@VValue@v8@@@3@AEBV?$PropertyCallbackInfo@X@Nan@@@Z@4HA 000000018003c610 f   njsPool.obj
 0001:0003b620       ?dtor$0@?0??Terminate@Pool@@CAXAEBV?$FunctionCallbackInfo@VValue@v8@@@Nan@@@Z@4HA 000000018003c620 f   njsPool.obj
 0001:0003b620       ?dtor$0@?0??GetConnection@Pool@@CAXAEBV?$FunctionCallbackInfo@VValue@v8@@@Nan@@@Z@4HA 000000018003c620 f   njsPool.obj
 0001:0003b62c       ?dtor$7@?0??Terminate@Pool@@CAXAEBV?$FunctionCallbackInfo@VValue@v8@@@Nan@@@Z@4HA 000000018003c62c f   njsPool.obj
 0001:0003b62c       ?dtor$7@?0??GetConnection@Pool@@CAXAEBV?$FunctionCallbackInfo@VValue@v8@@@Nan@@@Z@4HA 000000018003c62c f   njsPool.obj
 0001:0003b638       ?dtor$2@?0??GetConnection@Pool@@CAXAEBV?$FunctionCallbackInfo@VValue@v8@@@Nan@@@Z@4HA 000000018003c638 f   njsPool.obj
 0001:0003b638       ?dtor$2@?0??Terminate@Pool@@CAXAEBV?$FunctionCallbackInfo@VValue@v8@@@Nan@@@Z@4HA 000000018003c638 f   njsPool.obj
 0001:0003b644       ?dtor$6@?0??Terminate@Pool@@CAXAEBV?$FunctionCallbackInfo@VValue@v8@@@Nan@@@Z@4HA 000000018003c644 f   njsPool.obj
 0001:0003b644       ?dtor$6@?0??GetConnection@Pool@@CAXAEBV?$FunctionCallbackInfo@VValue@v8@@@Nan@@@Z@4HA 000000018003c644 f   njsPool.obj
 0001:0003b650       ?dtor$10@?0??Terminate@Pool@@CAXAEBV?$FunctionCallbackInfo@VValue@v8@@@Nan@@@Z@4HA 000000018003c650 f   njsPool.obj
 0001:0003b650       ?dtor$10@?0??GetConnection@Pool@@CAXAEBV?$FunctionCallbackInfo@VValue@v8@@@Nan@@@Z@4HA 000000018003c650 f   njsPool.obj
 0001:0003b660       ?catch$0@?0??Async_GetConnection@Pool@@CAXPEAUuv_work_s@@@Z@4HA 000000018003c660 f   njsPool.obj
 0001:0003b66d       __catch$?Async_GetConnection@Pool@@CAXPEAUuv_work_s@@@Z$1 000000018003c66d f   njsPool.obj
 0001:0003b6f0       ?catch$0@?0??Async_Terminate@Pool@@CAXPEAUuv_work_s@@@Z@4HA 000000018003c6f0 f   njsPool.obj
 0001:0003b6fd       __catch$?Async_Terminate@Pool@@CAXPEAUuv_work_s@@@Z$1 000000018003c6fd f   njsPool.obj
 0001:0003b780       ?dtor$0@?0??Async_AfterBreak@Connection@@CAXPEAUuv_work_s@@@Z@4HA 000000018003c780 f   njsConnection.obj
 0001:0003b780       ?dtor$0@?0??Async_AfterRelease@Connection@@CAXPEAUuv_work_s@@@Z@4HA 000000018003c780 f   njsConnection.obj
 0001:0003b780       ?dtor$0@?0??Async_AfterRollback@Connection@@CAXPEAUuv_work_s@@@Z@4HA 000000018003c780 f   njsConnection.obj
 0001:0003b780       ?dtor$0@?0??Async_AfterClose@ResultSet@@CAXPEAUuv_work_s@@@Z@4HA 000000018003c780 f   njsResultSet.obj
 0001:0003b780       ?dtor$0@?0??Async_AfterTerminate@Pool@@CAXPEAUuv_work_s@@@Z@4HA 000000018003c780 f   njsPool.obj
 0001:0003b780       ?dtor$0@?0??Async_AfterCommit@Connection@@CAXPEAUuv_work_s@@@Z@4HA 000000018003c780 f   njsConnection.obj
 0001:0003b780       ?dtor$0@?0??Async_AfterWrite@ILob@@CAXPEAUuv_work_s@@@Z@4HA 000000018003c780 f   njsIntLob.obj
 0001:0003b78c       ?dtor$1@?0??Async_AfterRelease@Connection@@CAXPEAUuv_work_s@@@Z@4HA 000000018003c78c f   njsConnection.obj
 0001:0003b78c       ?dtor$1@?0??Async_AfterClose@ResultSet@@CAXPEAUuv_work_s@@@Z@4HA 000000018003c78c f   njsResultSet.obj
 0001:0003b78c       ?dtor$1@?0??Async_AfterWrite@ILob@@CAXPEAUuv_work_s@@@Z@4HA 000000018003c78c f   njsIntLob.obj
 0001:0003b78c       ?dtor$1@?0??Async_AfterTerminate@Pool@@CAXPEAUuv_work_s@@@Z@4HA 000000018003c78c f   njsPool.obj
 0001:0003b78c       ?dtor$1@?0??Async_AfterCommit@Connection@@CAXPEAUuv_work_s@@@Z@4HA 000000018003c78c f   njsConnection.obj
 0001:0003b78c       ?dtor$1@?0??Async_AfterBreak@Connection@@CAXPEAUuv_work_s@@@Z@4HA 000000018003c78c f   njsConnection.obj
 0001:0003b78c       ?dtor$1@?0??Async_AfterRollback@Connection@@CAXPEAUuv_work_s@@@Z@4HA 000000018003c78c f   njsConnection.obj
 0001:0003b7a0       ?dtor$0@?0???0eBaton@@QEAA@AEAIV?$Local@VFunction@v8@@@v8@@@Z@4HA 000000018003c7a0 f   njsConnection.obj
 0001:0003b7b3       ?dtor$1@?0???0eBaton@@QEAA@AEAIV?$Local@VFunction@v8@@@v8@@@Z@4HA 000000018003c7b3 f   njsConnection.obj
 0001:0003b7c6       ?dtor$2@?0???0eBaton@@QEAA@AEAIV?$Local@VFunction@v8@@@v8@@@Z@4HA 000000018003c7c6 f   njsConnection.obj
 0001:0003b7d9       ?dtor$3@?0???0eBaton@@QEAA@AEAIV?$Local@VFunction@v8@@@v8@@@Z@4HA 000000018003c7d9 f   njsConnection.obj
 0001:0003b7ec       ?dtor$4@?0???0eBaton@@QEAA@AEAIV?$Local@VFunction@v8@@@v8@@@Z@4HA 000000018003c7ec f   njsConnection.obj
 0001:0003b800       ?dtor$0@?0???1eBaton@@QEAA@XZ@4HA 000000018003c800 f   njsConnection.obj
 0001:0003b813       ?dtor$1@?0???1eBaton@@QEAA@XZ@4HA 000000018003c813 f   njsConnection.obj
 0001:0003b826       ?dtor$2@?0???1eBaton@@QEAA@XZ@4HA 000000018003c826 f   njsConnection.obj
 0001:0003b839       ?dtor$3@?0???1eBaton@@QEAA@XZ@4HA 000000018003c839 f   njsConnection.obj
 0001:0003b84c       ?dtor$4@?0???1eBaton@@QEAA@XZ@4HA 000000018003c84c f   njsConnection.obj
 0001:0003b860       ?dtor$0@?0??Init@Connection@@SAXV?$Local@VObject@v8@@@v8@@@Z@4HA 000000018003c860 f   njsConnection.obj
 0001:0003b86c       ?dtor$2@?0??Init@Connection@@SAXV?$Local@VObject@v8@@@v8@@@Z@4HA 000000018003c86c f   njsConnection.obj
 0001:0003b878       ?dtor$5@?0??Init@Connection@@SAXV?$Local@VObject@v8@@@v8@@@Z@4HA 000000018003c878 f   njsConnection.obj
 0001:0003b884       ?dtor$8@?0??Init@Connection@@SAXV?$Local@VObject@v8@@@v8@@@Z@4HA 000000018003c884 f   njsConnection.obj
 0001:0003b890       ?dtor$11@?0??Init@Connection@@SAXV?$Local@VObject@v8@@@v8@@@Z@4HA 000000018003c890 f   njsConnection.obj
 0001:0003b89c       ?dtor$14@?0??Init@Connection@@SAXV?$Local@VObject@v8@@@v8@@@Z@4HA 000000018003c89c f   njsConnection.obj
 0001:0003b8b0       ?dtor$0@?0??connectionPropertyException@Connection@@CAXPEAV1@W4NJSErrorType@@V?$basic_string@DU?$char_traits@D@std@@V?$allocator@D@2@@std@@@Z@4HA 000000018003c8b0 f   njsConnection.obj
 0001:0003b8b0       ?dtor$0@?0??lobPropertyException@ILob@@CAXPEAV1@W4NJSErrorType@@V?$basic_string@DU?$char_traits@D@std@@V?$allocator@D@2@@std@@@Z@4HA 000000018003c8b0 f   njsIntLob.obj
 0001:0003b8bc       ?dtor$1@?0??connectionPropertyException@Connection@@CAXPEAV1@W4NJSErrorType@@V?$basic_string@DU?$char_traits@D@std@@V?$allocator@D@2@@std@@@Z@4HA 000000018003c8bc f   njsConnection.obj
 0001:0003b8bc       ?dtor$1@?0??lobPropertyException@ILob@@CAXPEAV1@W4NJSErrorType@@V?$basic_string@DU?$char_traits@D@std@@V?$allocator@D@2@@std@@@Z@4HA 000000018003c8bc f   njsIntLob.obj
 0001:0003b8c8       ?dtor$2@?0??connectionPropertyException@Connection@@CAXPEAV1@W4NJSErrorType@@V?$basic_string@DU?$char_traits@D@std@@V?$allocator@D@2@@std@@@Z@4HA 000000018003c8c8 f   njsConnection.obj
 0001:0003b8c8       ?dtor$2@?0??lobPropertyException@ILob@@CAXPEAV1@W4NJSErrorType@@V?$basic_string@DU?$char_traits@D@std@@V?$allocator@D@2@@std@@@Z@4HA 000000018003c8c8 f   njsIntLob.obj
 0001:0003b8d4       ?dtor$6@?0??lobPropertyException@ILob@@CAXPEAV1@W4NJSErrorType@@V?$basic_string@DU?$char_traits@D@std@@V?$allocator@D@2@@std@@@Z@4HA 000000018003c8d4 f   njsIntLob.obj
 0001:0003b8d4       ?dtor$6@?0??connectionPropertyException@Connection@@CAXPEAV1@W4NJSErrorType@@V?$basic_string@DU?$char_traits@D@std@@V?$allocator@D@2@@std@@@Z@4HA 000000018003c8d4 f   njsConnection.obj
 0001:0003b8e0       ?dtor$0@?0??GetStmtCacheSize@Connection@@CAXV?$Local@VString@v8@@@v8@@AEBV?$PropertyCallbackInfo@VValue@v8@@@Nan@@@Z@4HA 000000018003c8e0 f   njsConnection.obj
 0001:0003b8ec       ?dtor$2@?0??GetStmtCacheSize@Connection@@CAXV?$Local@VString@v8@@@v8@@AEBV?$PropertyCallbackInfo@VValue@v8@@@Nan@@@Z@4HA 000000018003c8ec f   njsConnection.obj
 0001:0003b8f8       ?dtor$1@?0??GetStmtCacheSize@Connection@@CAXV?$Local@VString@v8@@@v8@@AEBV?$PropertyCallbackInfo@VValue@v8@@@Nan@@@Z@4HA 000000018003c8f8 f   njsConnection.obj
 0001:0003b904       ?dtor$5@?0??GetStmtCacheSize@Connection@@CAXV?$Local@VString@v8@@@v8@@AEBV?$PropertyCallbackInfo@VValue@v8@@@Nan@@@Z@4HA 000000018003c904 f   njsConnection.obj
 0001:0003b910       ?catch$0@?0??GetStmtCacheSize@Connection@@CAXV?$Local@VString@v8@@@v8@@AEBV?$PropertyCallbackInfo@VValue@v8@@@Nan@@@Z@4HA 000000018003c910 f   njsConnection.obj
 0001:0003b920       __catch$?GetStmtCacheSize@Connection@@CAXV?$Local@VString@v8@@@v8@@AEBV?$PropertyCallbackInfo@VValue@v8@@@Nan@@@Z$0 000000018003c920 f   njsConnection.obj
 0001:0003b9da       ?dtor$8@?0??GetStmtCacheSize@Connection@@CAXV?$Local@VString@v8@@@v8@@AEBV?$PropertyCallbackInfo@VValue@v8@@@Nan@@@Z@4HA 000000018003c9da f   njsConnection.obj
 0001:0003b9f0       ?dtor$0@?0??SetClientId@Connection@@CAXV?$Local@VString@v8@@@v8@@V?$Local@VValue@v8@@@3@AEBV?$PropertyCallbackInfo@X@Nan@@@Z@4HA 000000018003c9f0 f   njsConnection.obj
 0001:0003b9fc       ?dtor$7@?0??SetClientId@Connection@@CAXV?$Local@VString@v8@@@v8@@V?$Local@VValue@v8@@@3@AEBV?$PropertyCallbackInfo@X@Nan@@@Z@4HA 000000018003c9fc f   njsConnection.obj
 0001:0003ba08       ?dtor$1@?0??SetClientId@Connection@@CAXV?$Local@VString@v8@@@v8@@V?$Local@VValue@v8@@@3@AEBV?$PropertyCallbackInfo@X@Nan@@@Z@4HA 000000018003ca08 f   njsConnection.obj
 0001:0003ba14       ?dtor$10@?0??SetClientId@Connection@@CAXV?$Local@VString@v8@@@v8@@V?$Local@VValue@v8@@@3@AEBV?$PropertyCallbackInfo@X@Nan@@@Z@4HA 000000018003ca14 f   njsConnection.obj
 0001:0003ba20       ?dtor$2@?0??SetClientId@Connection@@CAXV?$Local@VString@v8@@@v8@@V?$Local@VValue@v8@@@3@AEBV?$PropertyCallbackInfo@X@Nan@@@Z@4HA 000000018003ca20 f   njsConnection.obj
 0001:0003ba2c       ?dtor$3@?0??SetClientId@Connection@@CAXV?$Local@VString@v8@@@v8@@V?$Local@VValue@v8@@@3@AEBV?$PropertyCallbackInfo@X@Nan@@@Z@4HA 000000018003ca2c f   njsConnection.obj
 0001:0003ba38       ?dtor$4@?0??SetClientId@Connection@@CAXV?$Local@VString@v8@@@v8@@V?$Local@VValue@v8@@@3@AEBV?$PropertyCallbackInfo@X@Nan@@@Z@4HA 000000018003ca38 f   njsConnection.obj
 0001:0003ba46       ?dtor$13@?0??SetClientId@Connection@@CAXV?$Local@VString@v8@@@v8@@V?$Local@VValue@v8@@@3@AEBV?$PropertyCallbackInfo@X@Nan@@@Z@4HA 000000018003ca46 f   njsConnection.obj
 0001:0003ba52       ?catch$0@?0??SetClientId@Connection@@CAXV?$Local@VString@v8@@@v8@@V?$Local@VValue@v8@@@3@AEBV?$PropertyCallbackInfo@X@Nan@@@Z@4HA 000000018003ca52 f   njsConnection.obj
 0001:0003ba62       __catch$?SetClientId@Connection@@CAXV?$Local@VString@v8@@@v8@@V?$Local@VValue@v8@@@3@AEBV?$PropertyCallbackInfo@X@Nan@@@Z$0 000000018003ca62 f   njsConnection.obj
 0001:0003bb22       ?dtor$16@?0??SetClientId@Connection@@CAXV?$Local@VString@v8@@@v8@@V?$Local@VValue@v8@@@3@AEBV?$PropertyCallbackInfo@X@Nan@@@Z@4HA 000000018003cb22 f   njsConnection.obj
 0001:0003bb30       ?dtor$0@?0??SetModule@Connection@@CAXV?$Local@VString@v8@@@v8@@V?$Local@VValue@v8@@@3@AEBV?$PropertyCallbackInfo@X@Nan@@@Z@4HA 000000018003cb30 f   njsConnection.obj
 0001:0003bb3c       ?dtor$7@?0??SetModule@Connection@@CAXV?$Local@VString@v8@@@v8@@V?$Local@VValue@v8@@@3@AEBV?$PropertyCallbackInfo@X@Nan@@@Z@4HA 000000018003cb3c f   njsConnection.obj
 0001:0003bb48       ?dtor$1@?0??SetModule@Connection@@CAXV?$Local@VString@v8@@@v8@@V?$Local@VValue@v8@@@3@AEBV?$PropertyCallbackInfo@X@Nan@@@Z@4HA 000000018003cb48 f   njsConnection.obj
 0001:0003bb54       ?dtor$10@?0??SetModule@Connection@@CAXV?$Local@VString@v8@@@v8@@V?$Local@VValue@v8@@@3@AEBV?$PropertyCallbackInfo@X@Nan@@@Z@4HA 000000018003cb54 f   njsConnection.obj
 0001:0003bb60       ?dtor$2@?0??SetModule@Connection@@CAXV?$Local@VString@v8@@@v8@@V?$Local@VValue@v8@@@3@AEBV?$PropertyCallbackInfo@X@Nan@@@Z@4HA 000000018003cb60 f   njsConnection.obj
 0001:0003bb6c       ?dtor$3@?0??SetModule@Connection@@CAXV?$Local@VString@v8@@@v8@@V?$Local@VValue@v8@@@3@AEBV?$PropertyCallbackInfo@X@Nan@@@Z@4HA 000000018003cb6c f   njsConnection.obj
 0001:0003bb78       ?dtor$4@?0??SetModule@Connection@@CAXV?$Local@VString@v8@@@v8@@V?$Local@VValue@v8@@@3@AEBV?$PropertyCallbackInfo@X@Nan@@@Z@4HA 000000018003cb78 f   njsConnection.obj
 0001:0003bb86       ?dtor$13@?0??SetModule@Connection@@CAXV?$Local@VString@v8@@@v8@@V?$Local@VValue@v8@@@3@AEBV?$PropertyCallbackInfo@X@Nan@@@Z@4HA 000000018003cb86 f   njsConnection.obj
 0001:0003bb92       ?catch$0@?0??SetModule@Connection@@CAXV?$Local@VString@v8@@@v8@@V?$Local@VValue@v8@@@3@AEBV?$PropertyCallbackInfo@X@Nan@@@Z@4HA 000000018003cb92 f   njsConnection.obj
 0001:0003bba2       __catch$?SetModule@Connection@@CAXV?$Local@VString@v8@@@v8@@V?$Local@VValue@v8@@@3@AEBV?$PropertyCallbackInfo@X@Nan@@@Z$0 000000018003cba2 f   njsConnection.obj
 0001:0003bc62       ?dtor$16@?0??SetModule@Connection@@CAXV?$Local@VString@v8@@@v8@@V?$Local@VValue@v8@@@3@AEBV?$PropertyCallbackInfo@X@Nan@@@Z@4HA 000000018003cc62 f   njsConnection.obj
 0001:0003bc70       ?dtor$0@?0??SetAction@Connection@@CAXV?$Local@VString@v8@@@v8@@V?$Local@VValue@v8@@@3@AEBV?$PropertyCallbackInfo@X@Nan@@@Z@4HA 000000018003cc70 f   njsConnection.obj
 0001:0003bc7c       ?dtor$7@?0??SetAction@Connection@@CAXV?$Local@VString@v8@@@v8@@V?$Local@VValue@v8@@@3@AEBV?$PropertyCallbackInfo@X@Nan@@@Z@4HA 000000018003cc7c f   njsConnection.obj
 0001:0003bc88       ?dtor$1@?0??SetAction@Connection@@CAXV?$Local@VString@v8@@@v8@@V?$Local@VValue@v8@@@3@AEBV?$PropertyCallbackInfo@X@Nan@@@Z@4HA 000000018003cc88 f   njsConnection.obj
 0001:0003bc94       ?dtor$10@?0??SetAction@Connection@@CAXV?$Local@VString@v8@@@v8@@V?$Local@VValue@v8@@@3@AEBV?$PropertyCallbackInfo@X@Nan@@@Z@4HA 000000018003cc94 f   njsConnection.obj
 0001:0003bca0       ?dtor$2@?0??SetAction@Connection@@CAXV?$Local@VString@v8@@@v8@@V?$Local@VValue@v8@@@3@AEBV?$PropertyCallbackInfo@X@Nan@@@Z@4HA 000000018003cca0 f   njsConnection.obj
 0001:0003bcac       ?dtor$3@?0??SetAction@Connection@@CAXV?$Local@VString@v8@@@v8@@V?$Local@VValue@v8@@@3@AEBV?$PropertyCallbackInfo@X@Nan@@@Z@4HA 000000018003ccac f   njsConnection.obj
 0001:0003bcb8       ?dtor$4@?0??SetAction@Connection@@CAXV?$Local@VString@v8@@@v8@@V?$Local@VValue@v8@@@3@AEBV?$PropertyCallbackInfo@X@Nan@@@Z@4HA 000000018003ccb8 f   njsConnection.obj
 0001:0003bcc6       ?dtor$13@?0??SetAction@Connection@@CAXV?$Local@VString@v8@@@v8@@V?$Local@VValue@v8@@@3@AEBV?$PropertyCallbackInfo@X@Nan@@@Z@4HA 000000018003ccc6 f   njsConnection.obj
 0001:0003bcd2       ?catch$0@?0??SetAction@Connection@@CAXV?$Local@VString@v8@@@v8@@V?$Local@VValue@v8@@@3@AEBV?$PropertyCallbackInfo@X@Nan@@@Z@4HA 000000018003ccd2 f   njsConnection.obj
 0001:0003bce2       __catch$?SetAction@Connection@@CAXV?$Local@VString@v8@@@v8@@V?$Local@VValue@v8@@@3@AEBV?$PropertyCallbackInfo@X@Nan@@@Z$0 000000018003cce2 f   njsConnection.obj
 0001:0003bda2       ?dtor$16@?0??SetAction@Connection@@CAXV?$Local@VString@v8@@@v8@@V?$Local@VValue@v8@@@3@AEBV?$PropertyCallbackInfo@X@Nan@@@Z@4HA 000000018003cda2 f   njsConnection.obj
 0001:0003bdb0       ?dtor$0@?0??GetOracleServerVersion@Connection@@CAXV?$Local@VString@v8@@@v8@@AEBV?$PropertyCallbackInfo@VValue@v8@@@Nan@@@Z@4HA 000000018003cdb0 f   njsConnection.obj
 0001:0003bdbc       ?dtor$2@?0??GetOracleServerVersion@Connection@@CAXV?$Local@VString@v8@@@v8@@AEBV?$PropertyCallbackInfo@VValue@v8@@@Nan@@@Z@4HA 000000018003cdbc f   njsConnection.obj
 0001:0003bdc8       ?dtor$1@?0??GetOracleServerVersion@Connection@@CAXV?$Local@VString@v8@@@v8@@AEBV?$PropertyCallbackInfo@VValue@v8@@@Nan@@@Z@4HA 000000018003cdc8 f   njsConnection.obj
 0001:0003bdd4       ?dtor$5@?0??GetOracleServerVersion@Connection@@CAXV?$Local@VString@v8@@@v8@@AEBV?$PropertyCallbackInfo@VValue@v8@@@Nan@@@Z@4HA 000000018003cdd4 f   njsConnection.obj
 0001:0003bde0       ?catch$0@?0??GetOracleServerVersion@Connection@@CAXV?$Local@VString@v8@@@v8@@AEBV?$PropertyCallbackInfo@VValue@v8@@@Nan@@@Z@4HA 000000018003cde0 f   njsConnection.obj
 0001:0003bdf0       __catch$?GetOracleServerVersion@Connection@@CAXV?$Local@VString@v8@@@v8@@AEBV?$PropertyCallbackInfo@VValue@v8@@@Nan@@@Z$0 000000018003cdf0 f   njsConnection.obj
 0001:0003bec2       ?dtor$8@?0??GetOracleServerVersion@Connection@@CAXV?$Local@VString@v8@@@v8@@AEBV?$PropertyCallbackInfo@VValue@v8@@@Nan@@@Z@4HA 000000018003cec2 f   njsConnection.obj
 0001:0003bed0       ?dtor$0@?0??Execute@Connection@@CAXAEBV?$FunctionCallbackInfo@VValue@v8@@@Nan@@@Z@4HA 000000018003ced0 f   njsConnection.obj
 0001:0003bedc       ?dtor$10@?0??Execute@Connection@@CAXAEBV?$FunctionCallbackInfo@VValue@v8@@@Nan@@@Z@4HA 000000018003cedc f   njsConnection.obj
 0001:0003bee8       ?dtor$2@?0??Execute@Connection@@CAXAEBV?$FunctionCallbackInfo@VValue@v8@@@Nan@@@Z@4HA 000000018003cee8 f   njsConnection.obj
 0001:0003bef4       ?dtor$13@?0??Execute@Connection@@CAXAEBV?$FunctionCallbackInfo@VValue@v8@@@Nan@@@Z@4HA 000000018003cef4 f   njsConnection.obj
 0001:0003bf00       ?dtor$3@?0??Execute@Connection@@CAXAEBV?$FunctionCallbackInfo@VValue@v8@@@Nan@@@Z@4HA 000000018003cf00 f   njsConnection.obj
 0001:0003bf0c       ?dtor$7@?0??Execute@Connection@@CAXAEBV?$FunctionCallbackInfo@VValue@v8@@@Nan@@@Z@4HA 000000018003cf0c f   njsConnection.obj
 0001:0003bf1a       ?dtor$9@?0??Execute@Connection@@CAXAEBV?$FunctionCallbackInfo@VValue@v8@@@Nan@@@Z@4HA 000000018003cf1a f   njsConnection.obj
 0001:0003bf26       ?dtor$16@?0??Execute@Connection@@CAXAEBV?$FunctionCallbackInfo@VValue@v8@@@Nan@@@Z@4HA 000000018003cf26 f   njsConnection.obj
 0001:0003bf40       ?dtor$0@?0??GetOutBindParams@Connection@@CAXGPEAUBind@@PEAUeBaton@@@Z@4HA 000000018003cf40 f   njsConnection.obj
 0001:0003bf40       ?dtor$0@?0??ProcessBinds@Connection@@CAXAEBV?$FunctionCallbackInfo@VValue@v8@@@Nan@@IPEAUeBaton@@@Z@4HA 000000018003cf40 f   njsConnection.obj
 0001:0003bf50       ?dtor$0@?0??ProcessOptions@Connection@@CAXAEBV?$FunctionCallbackInfo@VValue@v8@@@Nan@@IPEAUeBaton@@@Z@4HA 000000018003cf50 f   njsConnection.obj
 0001:0003bf5c       ?dtor$7@?0??ProcessOptions@Connection@@CAXAEBV?$FunctionCallbackInfo@VValue@v8@@@Nan@@IPEAUeBaton@@@Z@4HA 000000018003cf5c f   njsConnection.obj
 0001:0003bf68       ?dtor$8@?0??ProcessOptions@Connection@@CAXAEBV?$FunctionCallbackInfo@VValue@v8@@@Nan@@IPEAUeBaton@@@Z@4HA 000000018003cf68 f   njsConnection.obj
 0001:0003bf80       ?dtor$0@?0??GetBinds@Connection@@CAXV?$Local@VObject@v8@@@v8@@PEAUeBaton@@@Z@4HA 000000018003cf80 f   njsConnection.obj
 0001:0003bf8c       ?dtor$1@?0??GetBinds@Connection@@CAXV?$Local@VObject@v8@@@v8@@PEAUeBaton@@@Z@4HA 000000018003cf8c f   njsConnection.obj
 0001:0003bf98       ?dtor$2@?0??GetBinds@Connection@@CAXV?$Local@VObject@v8@@@v8@@PEAUeBaton@@@Z@4HA 000000018003cf98 f   njsConnection.obj
 0001:0003bfa4       ?dtor$3@?0??GetBinds@Connection@@CAXV?$Local@VObject@v8@@@v8@@PEAUeBaton@@@Z@4HA 000000018003cfa4 f   njsConnection.obj
 0001:0003bfb2       ?dtor$5@?0??GetBinds@Connection@@CAXV?$Local@VObject@v8@@@v8@@PEAUeBaton@@@Z@4HA 000000018003cfb2 f   njsConnection.obj
 0001:0003bfc0       ?dtor$0@?0??GetBinds@Connection@@CAXV?$Local@VArray@v8@@@v8@@PEAUeBaton@@@Z@4HA 000000018003cfc0 f   njsConnection.obj
 0001:0003bfcc       ?dtor$1@?0??GetBinds@Connection@@CAXV?$Local@VArray@v8@@@v8@@PEAUeBaton@@@Z@4HA 000000018003cfcc f   njsConnection.obj
 0001:0003bfe0       ?dtor$0@?0??GetBindUnit@Connection@@CAXV?$Local@VValue@v8@@@v8@@PEAUBind@@PEAUeBaton@@@Z@4HA 000000018003cfe0 f   njsConnection.obj
 0001:0003bfec       ?dtor$16@?0??GetBindUnit@Connection@@CAXV?$Local@VValue@v8@@@v8@@PEAUBind@@PEAUeBaton@@@Z@4HA 000000018003cfec f   njsConnection.obj
 0001:0003c000       ?dtor$0@?0??GetValueRefCursor@Connection@@CA?AV?$Local@VValue@v8@@@v8@@PEAUeBaton@@PEAUBind@@@Z@4HA 000000018003d000 f   njsConnection.obj
 0001:0003c000       ?dtor$0@?0??GetInBindParams@Connection@@CAXV?$Local@VValue@v8@@@v8@@PEAUBind@@PEAUeBaton@@W4BindType@@@Z@4HA 000000018003d000 f   njsConnection.obj
 0001:0003c000       ?dtor$0@?0??GetValueLob@Connection@@CA?AV?$Local@VValue@v8@@@v8@@PEAUeBaton@@PEAUBind@@@Z@4HA 000000018003d000 f   njsConnection.obj
 0001:0003c000       ?dtor$0@?0??GetOutBinds@Connection@@CA?AV?$Local@VValue@v8@@@v8@@PEAUeBaton@@@Z@4HA 000000018003d000 f   njsConnection.obj
 0001:0003c010       ?dtor$0@?0??GetInBindParamsScalar@Connection@@CAXV?$Local@VValue@v8@@@v8@@PEAUBind@@PEAUeBaton@@W4BindType@@@Z@4HA 000000018003d010 f   njsConnection.obj
 0001:0003c01c       ?dtor$2@?0??GetInBindParamsScalar@Connection@@CAXV?$Local@VValue@v8@@@v8@@PEAUBind@@PEAUeBaton@@W4BindType@@@Z@4HA 000000018003d01c f   njsConnection.obj
 0001:0003c02a       ?dtor$12@?0??GetInBindParamsScalar@Connection@@CAXV?$Local@VValue@v8@@@v8@@PEAUBind@@PEAUeBaton@@W4BindType@@@Z@4HA 000000018003d02a f   njsConnection.obj
 0001:0003c040       ?dtor$0@?0??GetInBindParamsArray@Connection@@CAXV?$Local@VArray@v8@@@v8@@PEAUBind@@PEAUeBaton@@W4BindType@@@Z@4HA 000000018003d040 f   njsConnection.obj
 0001:0003c04c       ?dtor$15@?0??GetInBindParamsArray@Connection@@CAXV?$Local@VArray@v8@@@v8@@PEAUBind@@PEAUeBaton@@W4BindType@@@Z@4HA 000000018003d04c f   njsConnection.obj
 0001:0003c060       ?dtor$1@?0??Async_Execute@Connection@@CAXPEAUuv_work_s@@@Z@4HA 000000018003d060 f   njsConnection.obj
 0001:0003c06c       ?catch$0@?0??Async_Execute@Connection@@CAXPEAUuv_work_s@@@Z@4HA 000000018003d06c f   njsConnection.obj
 0001:0003c07c       __catch$?Async_Execute@Connection@@CAXPEAUuv_work_s@@@Z$7 000000018003d07c f   njsConnection.obj
 0001:0003c150       ?dtor$0@?0??Descr2protoILob@Connection@@CAXPEAUeBaton@@II@Z@4HA 000000018003d150 f   njsConnection.obj
 0001:0003c15c       ?dtor$1@?0??Descr2protoILob@Connection@@CAXPEAUeBaton@@II@Z@4HA 000000018003d15c f   njsConnection.obj
 0001:0003c170       ?dtor$0@?0??Async_AfterExecute@Connection@@CAXPEAUuv_work_s@@@Z@4HA 000000018003d170 f   njsConnection.obj
 0001:0003c17c       ?dtor$1@?0??Async_AfterExecute@Connection@@CAXPEAUuv_work_s@@@Z@4HA 000000018003d17c f   njsConnection.obj
 0001:0003c190       ?dtor$0@?0??GetRows@Connection@@SA?AV?$Local@VValue@v8@@@v8@@PEAUeBaton@@@Z@4HA 000000018003d190 f   njsConnection.obj
 0001:0003c1a0       ?dtor$0@?0??GetValue@Connection@@CA?AV?$Local@VValue@v8@@@v8@@PEAUeBaton@@_NII@Z@4HA 000000018003d1a0 f   njsConnection.obj
 0001:0003c1b0       ?dtor$0@?0??GetValueCommon@Connection@@CA?AV?$Local@VValue@v8@@@v8@@PEAUeBaton@@FGPEAXG@Z@4HA 000000018003d1b0 f   njsConnection.obj
 0001:0003c1c0       ?dtor$0@?0??GetArrayValue@Connection@@CA?AV?$Local@VValue@v8@@@v8@@PEAUeBaton@@PEAUBind@@K@Z@4HA 000000018003d1c0 f   njsConnection.obj
 0001:0003c1d0       ?dtor$0@?0??GetOutBindArray@Connection@@CA?AV?$Local@VValue@v8@@@v8@@PEAUeBaton@@@Z@4HA 000000018003d1d0 f   njsConnection.obj
 0001:0003c1dc       ?dtor$1@?0??GetOutBindArray@Connection@@CA?AV?$Local@VValue@v8@@@v8@@PEAUeBaton@@@Z@4HA 000000018003d1dc f   njsConnection.obj
 0001:0003c1f0       ?dtor$0@?0??GetOutBindObject@Connection@@CA?AV?$Local@VValue@v8@@@v8@@PEAUeBaton@@@Z@4HA 000000018003d1f0 f   njsConnection.obj
 0001:0003c1fc       ?dtor$1@?0??GetOutBindObject@Connection@@CA?AV?$Local@VValue@v8@@@v8@@PEAUeBaton@@@Z@4HA 000000018003d1fc f   njsConnection.obj
 0001:0003c210       ?dtor$0@?0??Release@Connection@@CAXAEBV?$FunctionCallbackInfo@VValue@v8@@@Nan@@@Z@4HA 000000018003d210 f   njsConnection.obj
 0001:0003c21c       ?dtor$1@?0??Release@Connection@@CAXAEBV?$FunctionCallbackInfo@VValue@v8@@@Nan@@@Z@4HA 000000018003d21c f   njsConnection.obj
 0001:0003c228       ?dtor$12@?0??Release@Connection@@CAXAEBV?$FunctionCallbackInfo@VValue@v8@@@Nan@@@Z@4HA 000000018003d228 f   njsConnection.obj
 0001:0003c234       ?dtor$3@?0??Release@Connection@@CAXAEBV?$FunctionCallbackInfo@VValue@v8@@@Nan@@@Z@4HA 000000018003d234 f   njsConnection.obj
 0001:0003c240       ?dtor$17@?0??Release@Connection@@CAXAEBV?$FunctionCallbackInfo@VValue@v8@@@Nan@@@Z@4HA 000000018003d240 f   njsConnection.obj
 0001:0003c24c       ?dtor$4@?0??Release@Connection@@CAXAEBV?$FunctionCallbackInfo@VValue@v8@@@Nan@@@Z@4HA 000000018003d24c f   njsConnection.obj
 0001:0003c258       ?dtor$10@?0??Release@Connection@@CAXAEBV?$FunctionCallbackInfo@VValue@v8@@@Nan@@@Z@4HA 000000018003d258 f   njsConnection.obj
 0001:0003c264       ?dtor$22@?0??Release@Connection@@CAXAEBV?$FunctionCallbackInfo@VValue@v8@@@Nan@@@Z@4HA 000000018003d264 f   njsConnection.obj
 0001:0003c270       ?catch$0@?0??Async_Release@Connection@@CAXPEAUuv_work_s@@@Z@4HA 000000018003d270 f   njsConnection.obj
 0001:0003c280       __catch$?Async_Release@Connection@@CAXPEAUuv_work_s@@@Z$1 000000018003d280 f   njsConnection.obj
 0001:0003c330       ?dtor$0@?0??Commit@Connection@@CAXAEBV?$FunctionCallbackInfo@VValue@v8@@@Nan@@@Z@4HA 000000018003d330 f   njsConnection.obj
 0001:0003c330       ?dtor$0@?0??Write@ILob@@CAXAEBV?$FunctionCallbackInfo@VValue@v8@@@Nan@@@Z@4HA 000000018003d330 f   njsIntLob.obj
 0001:0003c330       ?dtor$0@?0??Close@ResultSet@@CAXAEBV?$FunctionCallbackInfo@VValue@v8@@@Nan@@@Z@4HA 000000018003d330 f   njsResultSet.obj
 0001:0003c330       ?dtor$0@?0??Read@ILob@@CAXAEBV?$FunctionCallbackInfo@VValue@v8@@@Nan@@@Z@4HA 000000018003d330 f   njsIntLob.obj
 0001:0003c330       ?dtor$0@?0??Break@Connection@@CAXAEBV?$FunctionCallbackInfo@VValue@v8@@@Nan@@@Z@4HA 000000018003d330 f   njsConnection.obj
 0001:0003c330       ?dtor$0@?0??Rollback@Connection@@CAXAEBV?$FunctionCallbackInfo@VValue@v8@@@Nan@@@Z@4HA 000000018003d330 f   njsConnection.obj
 0001:0003c33c       ?dtor$8@?0??Write@ILob@@CAXAEBV?$FunctionCallbackInfo@VValue@v8@@@Nan@@@Z@4HA 000000018003d33c f   njsIntLob.obj
 0001:0003c33c       ?dtor$9@?0??Close@ResultSet@@CAXAEBV?$FunctionCallbackInfo@VValue@v8@@@Nan@@@Z@4HA 000000018003d33c f   njsResultSet.obj
 0001:0003c33c       ?dtor$7@?0??Commit@Connection@@CAXAEBV?$FunctionCallbackInfo@VValue@v8@@@Nan@@@Z@4HA 000000018003d33c f   njsConnection.obj
 0001:0003c33c       ?dtor$7@?0??Break@Connection@@CAXAEBV?$FunctionCallbackInfo@VValue@v8@@@Nan@@@Z@4HA 000000018003d33c f   njsConnection.obj
 0001:0003c33c       ?dtor$7@?0??Rollback@Connection@@CAXAEBV?$FunctionCallbackInfo@VValue@v8@@@Nan@@@Z@4HA 000000018003d33c f   njsConnection.obj
 0001:0003c33c       ?dtor$8@?0??Read@ILob@@CAXAEBV?$FunctionCallbackInfo@VValue@v8@@@Nan@@@Z@4HA 000000018003d33c f   njsIntLob.obj
 0001:0003c348       ?dtor$2@?0??Close@ResultSet@@CAXAEBV?$FunctionCallbackInfo@VValue@v8@@@Nan@@@Z@4HA 000000018003d348 f   njsResultSet.obj
 0001:0003c348       ?dtor$2@?0??Commit@Connection@@CAXAEBV?$FunctionCallbackInfo@VValue@v8@@@Nan@@@Z@4HA 000000018003d348 f   njsConnection.obj
 0001:0003c348       ?dtor$2@?0??Read@ILob@@CAXAEBV?$FunctionCallbackInfo@VValue@v8@@@Nan@@@Z@4HA 000000018003d348 f   njsIntLob.obj
 0001:0003c348       ?dtor$2@?0??Write@ILob@@CAXAEBV?$FunctionCallbackInfo@VValue@v8@@@Nan@@@Z@4HA 000000018003d348 f   njsIntLob.obj
 0001:0003c348       ?dtor$2@?0??Break@Connection@@CAXAEBV?$FunctionCallbackInfo@VValue@v8@@@Nan@@@Z@4HA 000000018003d348 f   njsConnection.obj
 0001:0003c348       ?dtor$2@?0??Rollback@Connection@@CAXAEBV?$FunctionCallbackInfo@VValue@v8@@@Nan@@@Z@4HA 000000018003d348 f   njsConnection.obj
 0001:0003c354       ?dtor$11@?0??Read@ILob@@CAXAEBV?$FunctionCallbackInfo@VValue@v8@@@Nan@@@Z@4HA 000000018003d354 f   njsIntLob.obj
 0001:0003c354       ?dtor$10@?0??Rollback@Connection@@CAXAEBV?$FunctionCallbackInfo@VValue@v8@@@Nan@@@Z@4HA 000000018003d354 f   njsConnection.obj
 0001:0003c354       ?dtor$10@?0??Break@Connection@@CAXAEBV?$FunctionCallbackInfo@VValue@v8@@@Nan@@@Z@4HA 000000018003d354 f   njsConnection.obj
 0001:0003c354       ?dtor$11@?0??Write@ILob@@CAXAEBV?$FunctionCallbackInfo@VValue@v8@@@Nan@@@Z@4HA 000000018003d354 f   njsIntLob.obj
 0001:0003c354       ?dtor$10@?0??Commit@Connection@@CAXAEBV?$FunctionCallbackInfo@VValue@v8@@@Nan@@@Z@4HA 000000018003d354 f   njsConnection.obj
 0001:0003c354       ?dtor$12@?0??Close@ResultSet@@CAXAEBV?$FunctionCallbackInfo@VValue@v8@@@Nan@@@Z@4HA 000000018003d354 f   njsResultSet.obj
 0001:0003c360       ?dtor$3@?0??Rollback@Connection@@CAXAEBV?$FunctionCallbackInfo@VValue@v8@@@Nan@@@Z@4HA 000000018003d360 f   njsConnection.obj
 0001:0003c360       ?dtor$3@?0??Close@ResultSet@@CAXAEBV?$FunctionCallbackInfo@VValue@v8@@@Nan@@@Z@4HA 000000018003d360 f   njsResultSet.obj
 0001:0003c360       ?dtor$3@?0??Commit@Connection@@CAXAEBV?$FunctionCallbackInfo@VValue@v8@@@Nan@@@Z@4HA 000000018003d360 f   njsConnection.obj
 0001:0003c360       ?dtor$3@?0??Break@Connection@@CAXAEBV?$FunctionCallbackInfo@VValue@v8@@@Nan@@@Z@4HA 000000018003d360 f   njsConnection.obj
 0001:0003c360       ?dtor$3@?0??Read@ILob@@CAXAEBV?$FunctionCallbackInfo@VValue@v8@@@Nan@@@Z@4HA 000000018003d360 f   njsIntLob.obj
 0001:0003c360       ?dtor$3@?0??Write@ILob@@CAXAEBV?$FunctionCallbackInfo@VValue@v8@@@Nan@@@Z@4HA 000000018003d360 f   njsIntLob.obj
 0001:0003c36c       ?dtor$7@?0??Read@ILob@@CAXAEBV?$FunctionCallbackInfo@VValue@v8@@@Nan@@@Z@4HA 000000018003d36c f   njsIntLob.obj
 0001:0003c36c       ?dtor$7@?0??Write@ILob@@CAXAEBV?$FunctionCallbackInfo@VValue@v8@@@Nan@@@Z@4HA 000000018003d36c f   njsIntLob.obj
 0001:0003c36c       ?dtor$8@?0??Close@ResultSet@@CAXAEBV?$FunctionCallbackInfo@VValue@v8@@@Nan@@@Z@4HA 000000018003d36c f   njsResultSet.obj
 0001:0003c36c       ?dtor$6@?0??Rollback@Connection@@CAXAEBV?$FunctionCallbackInfo@VValue@v8@@@Nan@@@Z@4HA 000000018003d36c f   njsConnection.obj
 0001:0003c36c       ?dtor$6@?0??Break@Connection@@CAXAEBV?$FunctionCallbackInfo@VValue@v8@@@Nan@@@Z@4HA 000000018003d36c f   njsConnection.obj
 0001:0003c36c       ?dtor$6@?0??Commit@Connection@@CAXAEBV?$FunctionCallbackInfo@VValue@v8@@@Nan@@@Z@4HA 000000018003d36c f   njsConnection.obj
 0001:0003c378       ?dtor$14@?0??Read@ILob@@CAXAEBV?$FunctionCallbackInfo@VValue@v8@@@Nan@@@Z@4HA 000000018003d378 f   njsIntLob.obj
 0001:0003c378       ?dtor$13@?0??Rollback@Connection@@CAXAEBV?$FunctionCallbackInfo@VValue@v8@@@Nan@@@Z@4HA 000000018003d378 f   njsConnection.obj
 0001:0003c378       ?dtor$13@?0??Commit@Connection@@CAXAEBV?$FunctionCallbackInfo@VValue@v8@@@Nan@@@Z@4HA 000000018003d378 f   njsConnection.obj
 0001:0003c378       ?dtor$13@?0??Break@Connection@@CAXAEBV?$FunctionCallbackInfo@VValue@v8@@@Nan@@@Z@4HA 000000018003d378 f   njsConnection.obj
 0001:0003c378       ?dtor$15@?0??Close@ResultSet@@CAXAEBV?$FunctionCallbackInfo@VValue@v8@@@Nan@@@Z@4HA 000000018003d378 f   njsResultSet.obj
 0001:0003c378       ?dtor$14@?0??Write@ILob@@CAXAEBV?$FunctionCallbackInfo@VValue@v8@@@Nan@@@Z@4HA 000000018003d378 f   njsIntLob.obj
 0001:0003c390       ?catch$0@?0??Async_Commit@Connection@@CAXPEAUuv_work_s@@@Z@4HA 000000018003d390 f   njsConnection.obj
 0001:0003c3a0       __catch$?Async_Commit@Connection@@CAXPEAUuv_work_s@@@Z$1 000000018003d3a0 f   njsConnection.obj
 0001:0003c450       ?catch$0@?0??Async_Rollback@Connection@@CAXPEAUuv_work_s@@@Z@4HA 000000018003d450 f   njsConnection.obj
 0001:0003c460       __catch$?Async_Rollback@Connection@@CAXPEAUuv_work_s@@@Z$1 000000018003d460 f   njsConnection.obj
 0001:0003c510       ?catch$0@?0??Async_Break@Connection@@CAXPEAUuv_work_s@@@Z@4HA 000000018003d510 f   njsConnection.obj
 0001:0003c520       __catch$?Async_Break@Connection@@CAXPEAUuv_work_s@@@Z$1 000000018003d520 f   njsConnection.obj
 0001:0003c5d0       ?dtor$16@?0??cbDynBufferAllocate@Connection@@CAXPEAX_NII@Z@4HA 000000018003d5d0 f   njsConnection.obj
 0001:0003c5e0       ?dtor$0@?0??NewLob@Connection@@CA?AV?$Local@VValue@v8@@@v8@@PEAUeBaton@@PEAVProtoILob@@@Z@4HA 000000018003d5e0 f   njsConnection.obj
 0001:0003c5f0       ?dtor$0@?0???$New@VString@v8@@V?$basic_string@DU?$char_traits@D@std@@V?$allocator@D@2@@std@@@Nan@@YA?AV?$MaybeLocal@VString@v8@@@v8@@V?$basic_string@DU?$char_traits@D@std@@V?$allocator@D@2@@std@@@Z@4HA 000000018003d5f0 f   njsConnection.obj
 0001:0003c600       ?dtor$0@?0???0rsBaton@@QEAA@AEAIV?$Local@VFunction@v8@@@v8@@@Z@4HA 000000018003d600 f   njsResultSet.obj
 0001:0003c613       ?dtor$1@?0???0rsBaton@@QEAA@AEAIV?$Local@VFunction@v8@@@v8@@@Z@4HA 000000018003d613 f   njsResultSet.obj
 0001:0003c620       ?dtor$0@?0???1rsBaton@@QEAA@XZ@4HA 000000018003d620 f   njsResultSet.obj
 0001:0003c640       ?dtor$0@?0??setResultSet@ResultSet@@QEAAXPEAVStmt@dpi@@PEAUeBaton@@@Z@4HA 000000018003d640 f   njsResultSet.obj
 0001:0003c650       ?dtor$0@?0??Init@ILob@@SAXV?$Local@VObject@v8@@@v8@@@Z@4HA 000000018003d650 f   njsIntLob.obj
 0001:0003c650       ?dtor$0@?0??Init@ResultSet@@SAXV?$Local@VObject@v8@@@v8@@@Z@4HA 000000018003d650 f   njsResultSet.obj
 0001:0003c65c       ?dtor$2@?0??Init@ResultSet@@SAXV?$Local@VObject@v8@@@v8@@@Z@4HA 000000018003d65c f   njsResultSet.obj
 0001:0003c65c       ?dtor$2@?0??Init@ILob@@SAXV?$Local@VObject@v8@@@v8@@@Z@4HA 000000018003d65c f   njsIntLob.obj
 0001:0003c668       ?dtor$5@?0??Init@ResultSet@@SAXV?$Local@VObject@v8@@@v8@@@Z@4HA 000000018003d668 f   njsResultSet.obj
 0001:0003c668       ?dtor$5@?0??Init@ILob@@SAXV?$Local@VObject@v8@@@v8@@@Z@4HA 000000018003d668 f   njsIntLob.obj
 0001:0003c674       ?dtor$8@?0??Init@ResultSet@@SAXV?$Local@VObject@v8@@@v8@@@Z@4HA 000000018003d674 f   njsResultSet.obj
 0001:0003c674       ?dtor$8@?0??Init@ILob@@SAXV?$Local@VObject@v8@@@v8@@@Z@4HA 000000018003d674 f   njsIntLob.obj
 0001:0003c680       ?dtor$0@?0??GetMetaData@ResultSet@@CAXV?$Local@VString@v8@@@v8@@AEBV?$PropertyCallbackInfo@VValue@v8@@@Nan@@@Z@4HA 000000018003d680 f   njsResultSet.obj
 0001:0003c68c       ?dtor$1@?0??GetMetaData@ResultSet@@CAXV?$Local@VString@v8@@@v8@@AEBV?$PropertyCallbackInfo@VValue@v8@@@Nan@@@Z@4HA 000000018003d68c f   njsResultSet.obj
 0001:0003c698       ?dtor$5@?0??GetMetaData@ResultSet@@CAXV?$Local@VString@v8@@@v8@@AEBV?$PropertyCallbackInfo@VValue@v8@@@Nan@@@Z@4HA 000000018003d698 f   njsResultSet.obj
 0001:0003c6a4       ?dtor$8@?0??GetMetaData@ResultSet@@CAXV?$Local@VString@v8@@@v8@@AEBV?$PropertyCallbackInfo@VValue@v8@@@Nan@@@Z@4HA 000000018003d6a4 f   njsResultSet.obj
 0001:0003c6b0       ?dtor$11@?0??GetMetaData@ResultSet@@CAXV?$Local@VString@v8@@@v8@@AEBV?$PropertyCallbackInfo@VValue@v8@@@Nan@@@Z@4HA 000000018003d6b0 f   njsResultSet.obj
 0001:0003c6bc       ?dtor$4@?0??GetMetaData@ResultSet@@CAXV?$Local@VString@v8@@@v8@@AEBV?$PropertyCallbackInfo@VValue@v8@@@Nan@@@Z@4HA 000000018003d6bc f   njsResultSet.obj
 0001:0003c6d0       ?dtor$0@?0??Release@ILob@@CAXAEBV?$FunctionCallbackInfo@VValue@v8@@@Nan@@@Z@4HA 000000018003d6d0 f   njsIntLob.obj
 0001:0003c6d0       ?dtor$0@?0??SetMetaData@ResultSet@@CAXV?$Local@VString@v8@@@v8@@V?$Local@VValue@v8@@@3@AEBV?$PropertyCallbackInfo@X@Nan@@@Z@4HA 000000018003d6d0 f   njsResultSet.obj
 0001:0003c6dc       ?dtor$1@?0??Release@ILob@@CAXAEBV?$FunctionCallbackInfo@VValue@v8@@@Nan@@@Z@4HA 000000018003d6dc f   njsIntLob.obj
 0001:0003c6dc       ?dtor$1@?0??SetMetaData@ResultSet@@CAXV?$Local@VString@v8@@@v8@@V?$Local@VValue@v8@@@3@AEBV?$PropertyCallbackInfo@X@Nan@@@Z@4HA 000000018003d6dc f   njsResultSet.obj
 0001:0003c6e8       ?dtor$3@?0??Release@ILob@@CAXAEBV?$FunctionCallbackInfo@VValue@v8@@@Nan@@@Z@4HA 000000018003d6e8 f   njsIntLob.obj
 0001:0003c6e8       ?dtor$5@?0??SetMetaData@ResultSet@@CAXV?$Local@VString@v8@@@v8@@V?$Local@VValue@v8@@@3@AEBV?$PropertyCallbackInfo@X@Nan@@@Z@4HA 000000018003d6e8 f   njsResultSet.obj
 0001:0003c6f4       ?dtor$8@?0??SetMetaData@ResultSet@@CAXV?$Local@VString@v8@@@v8@@V?$Local@VValue@v8@@@3@AEBV?$PropertyCallbackInfo@X@Nan@@@Z@4HA 000000018003d6f4 f   njsResultSet.obj
 0001:0003c6f4       ?dtor$6@?0??Release@ILob@@CAXAEBV?$FunctionCallbackInfo@VValue@v8@@@Nan@@@Z@4HA 000000018003d6f4 f   njsIntLob.obj
 0001:0003c700       ?dtor$0@?0??GetRow@ResultSet@@CAXAEBV?$FunctionCallbackInfo@VValue@v8@@@Nan@@@Z@4HA 000000018003d700 f   njsResultSet.obj
 0001:0003c700       ?dtor$0@?0??GetRows@ResultSet@@CAXAEBV?$FunctionCallbackInfo@VValue@v8@@@Nan@@@Z@4HA 000000018003d700 f   njsResultSet.obj
 0001:0003c70c       ?dtor$9@?0??GetRows@ResultSet@@CAXAEBV?$FunctionCallbackInfo@VValue@v8@@@Nan@@@Z@4HA 000000018003d70c f   njsResultSet.obj
 0001:0003c70c       ?dtor$7@?0??GetRow@ResultSet@@CAXAEBV?$FunctionCallbackInfo@VValue@v8@@@Nan@@@Z@4HA 000000018003d70c f   njsResultSet.obj
 0001:0003c718       ?dtor$2@?0??GetRow@ResultSet@@CAXAEBV?$FunctionCallbackInfo@VValue@v8@@@Nan@@@Z@4HA 000000018003d718 f   njsResultSet.obj
 0001:0003c718       ?dtor$2@?0??GetRows@ResultSet@@CAXAEBV?$FunctionCallbackInfo@VValue@v8@@@Nan@@@Z@4HA 000000018003d718 f   njsResultSet.obj
 0001:0003c724       ?dtor$12@?0??GetRows@ResultSet@@CAXAEBV?$FunctionCallbackInfo@VValue@v8@@@Nan@@@Z@4HA 000000018003d724 f   njsResultSet.obj
 0001:0003c724       ?dtor$10@?0??GetRow@ResultSet@@CAXAEBV?$FunctionCallbackInfo@VValue@v8@@@Nan@@@Z@4HA 000000018003d724 f   njsResultSet.obj
 0001:0003c730       ?dtor$3@?0??GetRows@ResultSet@@CAXAEBV?$FunctionCallbackInfo@VValue@v8@@@Nan@@@Z@4HA 000000018003d730 f   njsResultSet.obj
 0001:0003c730       ?dtor$3@?0??GetRow@ResultSet@@CAXAEBV?$FunctionCallbackInfo@VValue@v8@@@Nan@@@Z@4HA 000000018003d730 f   njsResultSet.obj
 0001:0003c740       ?dtor$1@?0??GetRowsCommon@ResultSet@@CAXPEAUrsBaton@@@Z@4HA 000000018003d740 f   njsResultSet.obj
 0001:0003c74c       ?dtor$2@?0??GetRowsCommon@ResultSet@@CAXPEAUrsBaton@@@Z@4HA 000000018003d74c f   njsResultSet.obj
 0001:0003c758       ?dtor$3@?0??GetRowsCommon@ResultSet@@CAXPEAUrsBaton@@@Z@4HA 000000018003d758 f   njsResultSet.obj
 0001:0003c770       ?catch$0@?0??Async_GetRows@ResultSet@@CAXPEAUuv_work_s@@@Z@4HA 000000018003d770 f   njsResultSet.obj
 0001:0003c780       __catch$?Async_GetRows@ResultSet@@CAXPEAUuv_work_s@@@Z$3 000000018003d780 f   njsResultSet.obj
 0001:0003c820       ?catch$0@?0??Async_Close@ResultSet@@CAXPEAUuv_work_s@@@Z@4HA 000000018003d820 f   njsResultSet.obj
 0001:0003c832       __catch$?Async_Close@ResultSet@@CAXPEAUuv_work_s@@@Z$1 000000018003d832 f   njsResultSet.obj
 0001:0003c8e0       ?dtor$0@?0??getErrorMsg@NJSMessages@@SA?AV?$basic_string@DU?$char_traits@D@std@@V?$allocator@D@2@@std@@W4NJSErrorType@@ZZ@4HA 000000018003d8e0 f   njsMessages.obj
 0001:0003c910       ?dtor$0@?0???1LobBaton@@QEAA@XZ@4HA 000000018003d910 f   njsIntLob.obj
 0001:0003c910       ?dtor$0@?0???0LobBaton@@QEAA@AEAIV?$Local@VFunction@v8@@@v8@@@Z@4HA 000000018003d910 f   njsIntLob.obj
 0001:0003c923       ?dtor$1@?0???0LobBaton@@QEAA@AEAIV?$Local@VFunction@v8@@@v8@@@Z@4HA 000000018003d923 f   njsIntLob.obj
 0001:0003c923       ?dtor$1@?0???1LobBaton@@QEAA@XZ@4HA 000000018003d923 f   njsIntLob.obj
 0001:0003c936       ?dtor$2@?0???1LobBaton@@QEAA@XZ@4HA 000000018003d936 f   njsIntLob.obj
 0001:0003c936       ?dtor$2@?0???0LobBaton@@QEAA@AEAIV?$Local@VFunction@v8@@@v8@@@Z@4HA 000000018003d936 f   njsIntLob.obj
 0001:0003c950       ?dtor$0@?0???_GILob@@EEAAPEAXI@Z@4HA 000000018003d950 f   njsIntLob.obj
 0001:0003c960       ?catch$0@?0??setILob@ILob@@QEAAXPEAUeBaton@@PEAVProtoILob@@@Z@4HA 000000018003d960 f   njsIntLob.obj
 0001:0003c970       __catch$?setILob@ILob@@QEAAXPEAUeBaton@@PEAVProtoILob@@@Z$0 000000018003d970 f   njsIntLob.obj
 0001:0003ca30       ?dtor$0@?0??GetChunkSize@ILob@@CAXV?$Local@VString@v8@@@v8@@AEBV?$PropertyCallbackInfo@VValue@v8@@@Nan@@@Z@4HA 000000018003da30 f   njsIntLob.obj
 0001:0003ca3c       ?dtor$1@?0??GetChunkSize@ILob@@CAXV?$Local@VString@v8@@@v8@@AEBV?$PropertyCallbackInfo@VValue@v8@@@Nan@@@Z@4HA 000000018003da3c f   njsIntLob.obj
 0001:0003ca48       ?dtor$3@?0??GetChunkSize@ILob@@CAXV?$Local@VString@v8@@@v8@@AEBV?$PropertyCallbackInfo@VValue@v8@@@Nan@@@Z@4HA 000000018003da48 f   njsIntLob.obj
 0001:0003ca54       ?dtor$6@?0??GetChunkSize@ILob@@CAXV?$Local@VString@v8@@@v8@@AEBV?$PropertyCallbackInfo@VValue@v8@@@Nan@@@Z@4HA 000000018003da54 f   njsIntLob.obj
 0001:0003ca60       ?catch$0@?0??GetChunkSize@ILob@@CAXV?$Local@VString@v8@@@v8@@AEBV?$PropertyCallbackInfo@VValue@v8@@@Nan@@@Z@4HA 000000018003da60 f   njsIntLob.obj
 0001:0003ca70       __catch$?GetChunkSize@ILob@@CAXV?$Local@VString@v8@@@v8@@AEBV?$PropertyCallbackInfo@VValue@v8@@@Nan@@@Z$0 000000018003da70 f   njsIntLob.obj
 0001:0003cb2a       ?dtor$9@?0??GetChunkSize@ILob@@CAXV?$Local@VString@v8@@@v8@@AEBV?$PropertyCallbackInfo@VValue@v8@@@Nan@@@Z@4HA 000000018003db2a f   njsIntLob.obj
 0001:0003cb40       ?dtor$0@?0??GetLength@ILob@@CAXV?$Local@VString@v8@@@v8@@AEBV?$PropertyCallbackInfo@VValue@v8@@@Nan@@@Z@4HA 000000018003db40 f   njsIntLob.obj
 0001:0003cb4c       ?dtor$1@?0??GetLength@ILob@@CAXV?$Local@VString@v8@@@v8@@AEBV?$PropertyCallbackInfo@VValue@v8@@@Nan@@@Z@4HA 000000018003db4c f   njsIntLob.obj
 0001:0003cb58       ?dtor$3@?0??GetLength@ILob@@CAXV?$Local@VString@v8@@@v8@@AEBV?$PropertyCallbackInfo@VValue@v8@@@Nan@@@Z@4HA 000000018003db58 f   njsIntLob.obj
 0001:0003cb64       ?dtor$6@?0??GetLength@ILob@@CAXV?$Local@VString@v8@@@v8@@AEBV?$PropertyCallbackInfo@VValue@v8@@@Nan@@@Z@4HA 000000018003db64 f   njsIntLob.obj
 0001:0003cb70       ?catch$0@?0??GetLength@ILob@@CAXV?$Local@VString@v8@@@v8@@AEBV?$PropertyCallbackInfo@VValue@v8@@@Nan@@@Z@4HA 000000018003db70 f   njsIntLob.obj
 0001:0003cb80       __catch$?GetLength@ILob@@CAXV?$Local@VString@v8@@@v8@@AEBV?$PropertyCallbackInfo@VValue@v8@@@Nan@@@Z$0 000000018003db80 f   njsIntLob.obj
 0001:0003cc3a       ?dtor$9@?0??GetLength@ILob@@CAXV?$Local@VString@v8@@@v8@@AEBV?$PropertyCallbackInfo@VValue@v8@@@Nan@@@Z@4HA 000000018003dc3a f   njsIntLob.obj
 0001:0003cc50       ?dtor$0@?0??GetPieceSize@ILob@@CAXV?$Local@VString@v8@@@v8@@AEBV?$PropertyCallbackInfo@VValue@v8@@@Nan@@@Z@4HA 000000018003dc50 f   njsIntLob.obj
 0001:0003cc5c       ?dtor$1@?0??GetPieceSize@ILob@@CAXV?$Local@VString@v8@@@v8@@AEBV?$PropertyCallbackInfo@VValue@v8@@@Nan@@@Z@4HA 000000018003dc5c f   njsIntLob.obj
 0001:0003cc68       ?dtor$3@?0??GetPieceSize@ILob@@CAXV?$Local@VString@v8@@@v8@@AEBV?$PropertyCallbackInfo@VValue@v8@@@Nan@@@Z@4HA 000000018003dc68 f   njsIntLob.obj
 0001:0003cc74       ?dtor$6@?0??GetPieceSize@ILob@@CAXV?$Local@VString@v8@@@v8@@AEBV?$PropertyCallbackInfo@VValue@v8@@@Nan@@@Z@4HA 000000018003dc74 f   njsIntLob.obj
 0001:0003cc80       ?catch$0@?0??GetPieceSize@ILob@@CAXV?$Local@VString@v8@@@v8@@AEBV?$PropertyCallbackInfo@VValue@v8@@@Nan@@@Z@4HA 000000018003dc80 f   njsIntLob.obj
 0001:0003cc90       __catch$?GetPieceSize@ILob@@CAXV?$Local@VString@v8@@@v8@@AEBV?$PropertyCallbackInfo@VValue@v8@@@Nan@@@Z$0 000000018003dc90 f   njsIntLob.obj
 0001:0003cd4a       ?dtor$9@?0??GetPieceSize@ILob@@CAXV?$Local@VString@v8@@@v8@@AEBV?$PropertyCallbackInfo@VValue@v8@@@Nan@@@Z@4HA 000000018003dd4a f   njsIntLob.obj
 0001:0003cd60       ?dtor$0@?0??SetPieceSize@ILob@@CAXV?$Local@VString@v8@@@v8@@V?$Local@VValue@v8@@@3@AEBV?$PropertyCallbackInfo@X@Nan@@@Z@4HA 000000018003dd60 f   njsIntLob.obj
 0001:0003cd6c       ?dtor$1@?0??SetPieceSize@ILob@@CAXV?$Local@VString@v8@@@v8@@V?$Local@VValue@v8@@@3@AEBV?$PropertyCallbackInfo@X@Nan@@@Z@4HA 000000018003dd6c f   njsIntLob.obj
 0001:0003cd78       ?dtor$6@?0??SetPieceSize@ILob@@CAXV?$Local@VString@v8@@@v8@@V?$Local@VValue@v8@@@3@AEBV?$PropertyCallbackInfo@X@Nan@@@Z@4HA 000000018003dd78 f   njsIntLob.obj
 0001:0003cd84       ?dtor$2@?0??SetPieceSize@ILob@@CAXV?$Local@VString@v8@@@v8@@V?$Local@VValue@v8@@@3@AEBV?$PropertyCallbackInfo@X@Nan@@@Z@4HA 000000018003dd84 f   njsIntLob.obj
 0001:0003cd90       ?dtor$9@?0??SetPieceSize@ILob@@CAXV?$Local@VString@v8@@@v8@@V?$Local@VValue@v8@@@3@AEBV?$PropertyCallbackInfo@X@Nan@@@Z@4HA 000000018003dd90 f   njsIntLob.obj
 0001:0003cd9c       ?dtor$12@?0??SetPieceSize@ILob@@CAXV?$Local@VString@v8@@@v8@@V?$Local@VValue@v8@@@3@AEBV?$PropertyCallbackInfo@X@Nan@@@Z@4HA 000000018003dd9c f   njsIntLob.obj
 0001:0003cda8       ?dtor$15@?0??SetPieceSize@ILob@@CAXV?$Local@VString@v8@@@v8@@V?$Local@VValue@v8@@@3@AEBV?$PropertyCallbackInfo@X@Nan@@@Z@4HA 000000018003dda8 f   njsIntLob.obj
 0001:0003cdb4       ?catch$0@?0??SetPieceSize@ILob@@CAXV?$Local@VString@v8@@@v8@@V?$Local@VValue@v8@@@3@AEBV?$PropertyCallbackInfo@X@Nan@@@Z@4HA 000000018003ddb4 f   njsIntLob.obj
 0001:0003cdc4       __catch$?SetPieceSize@ILob@@CAXV?$Local@VString@v8@@@v8@@V?$Local@VValue@v8@@@3@AEBV?$PropertyCallbackInfo@X@Nan@@@Z$0 000000018003ddc4 f   njsIntLob.obj
 0001:0003ce84       ?dtor$18@?0??SetPieceSize@ILob@@CAXV?$Local@VString@v8@@@v8@@V?$Local@VValue@v8@@@3@AEBV?$PropertyCallbackInfo@X@Nan@@@Z@4HA 000000018003de84 f   njsIntLob.obj
 0001:0003ce90       ?dtor$0@?0??GetOffset@ILob@@CAXV?$Local@VString@v8@@@v8@@AEBV?$PropertyCallbackInfo@VValue@v8@@@Nan@@@Z@4HA 000000018003de90 f   njsIntLob.obj
 0001:0003ce9c       ?dtor$1@?0??GetOffset@ILob@@CAXV?$Local@VString@v8@@@v8@@AEBV?$PropertyCallbackInfo@VValue@v8@@@Nan@@@Z@4HA 000000018003de9c f   njsIntLob.obj
 0001:0003cea8       ?dtor$3@?0??GetOffset@ILob@@CAXV?$Local@VString@v8@@@v8@@AEBV?$PropertyCallbackInfo@VValue@v8@@@Nan@@@Z@4HA 000000018003dea8 f   njsIntLob.obj
 0001:0003ceb4       ?dtor$6@?0??GetOffset@ILob@@CAXV?$Local@VString@v8@@@v8@@AEBV?$PropertyCallbackInfo@VValue@v8@@@Nan@@@Z@4HA 000000018003deb4 f   njsIntLob.obj
 0001:0003cec0       ?catch$0@?0??GetOffset@ILob@@CAXV?$Local@VString@v8@@@v8@@AEBV?$PropertyCallbackInfo@VValue@v8@@@Nan@@@Z@4HA 000000018003dec0 f   njsIntLob.obj
 0001:0003ced0       __catch$?GetOffset@ILob@@CAXV?$Local@VString@v8@@@v8@@AEBV?$PropertyCallbackInfo@VValue@v8@@@Nan@@@Z$0 000000018003ded0 f   njsIntLob.obj
 0001:0003cf8a       ?dtor$9@?0??GetOffset@ILob@@CAXV?$Local@VString@v8@@@v8@@AEBV?$PropertyCallbackInfo@VValue@v8@@@Nan@@@Z@4HA 000000018003df8a f   njsIntLob.obj
 0001:0003cfa0       ?dtor$0@?0??SetOffset@ILob@@CAXV?$Local@VString@v8@@@v8@@V?$Local@VValue@v8@@@3@AEBV?$PropertyCallbackInfo@X@Nan@@@Z@4HA 000000018003dfa0 f   njsIntLob.obj
 0001:0003cfac       ?dtor$1@?0??SetOffset@ILob@@CAXV?$Local@VString@v8@@@v8@@V?$Local@VValue@v8@@@3@AEBV?$PropertyCallbackInfo@X@Nan@@@Z@4HA 000000018003dfac f   njsIntLob.obj
 0001:0003cfb8       ?dtor$7@?0??SetOffset@ILob@@CAXV?$Local@VString@v8@@@v8@@V?$Local@VValue@v8@@@3@AEBV?$PropertyCallbackInfo@X@Nan@@@Z@4HA 000000018003dfb8 f   njsIntLob.obj
 0001:0003cfc4       ?dtor$2@?0??SetOffset@ILob@@CAXV?$Local@VString@v8@@@v8@@V?$Local@VValue@v8@@@3@AEBV?$PropertyCallbackInfo@X@Nan@@@Z@4HA 000000018003dfc4 f   njsIntLob.obj
 0001:0003cfd0       ?dtor$10@?0??SetOffset@ILob@@CAXV?$Local@VString@v8@@@v8@@V?$Local@VValue@v8@@@3@AEBV?$PropertyCallbackInfo@X@Nan@@@Z@4HA 000000018003dfd0 f   njsIntLob.obj
 0001:0003cfdc       ?dtor$4@?0??SetOffset@ILob@@CAXV?$Local@VString@v8@@@v8@@V?$Local@VValue@v8@@@3@AEBV?$PropertyCallbackInfo@X@Nan@@@Z@4HA 000000018003dfdc f   njsIntLob.obj
 0001:0003cfe8       ?dtor$13@?0??SetOffset@ILob@@CAXV?$Local@VString@v8@@@v8@@V?$Local@VValue@v8@@@3@AEBV?$PropertyCallbackInfo@X@Nan@@@Z@4HA 000000018003dfe8 f   njsIntLob.obj
 0001:0003cff4       ?dtor$16@?0??SetOffset@ILob@@CAXV?$Local@VString@v8@@@v8@@V?$Local@VValue@v8@@@3@AEBV?$PropertyCallbackInfo@X@Nan@@@Z@4HA 000000018003dff4 f   njsIntLob.obj
 0001:0003d000       ?dtor$19@?0??SetOffset@ILob@@CAXV?$Local@VString@v8@@@v8@@V?$Local@VValue@v8@@@3@AEBV?$PropertyCallbackInfo@X@Nan@@@Z@4HA 000000018003e000 f   njsIntLob.obj
 0001:0003d010       ?dtor$0@?0??GetType@ILob@@CAXV?$Local@VString@v8@@@v8@@AEBV?$PropertyCallbackInfo@VValue@v8@@@Nan@@@Z@4HA 000000018003e010 f   njsIntLob.obj
 0001:0003d01c       ?dtor$1@?0??GetType@ILob@@CAXV?$Local@VString@v8@@@v8@@AEBV?$PropertyCallbackInfo@VValue@v8@@@Nan@@@Z@4HA 000000018003e01c f   njsIntLob.obj
 0001:0003d028       ?catch$0@?0??GetType@ILob@@CAXV?$Local@VString@v8@@@v8@@AEBV?$PropertyCallbackInfo@VValue@v8@@@Nan@@@Z@4HA 000000018003e028 f   njsIntLob.obj
 0001:0003d036       __catch$?GetType@ILob@@CAXV?$Local@VString@v8@@@v8@@AEBV?$PropertyCallbackInfo@VValue@v8@@@Nan@@@Z$0 000000018003e036 f   njsIntLob.obj
 0001:0003d0c9       ?dtor$4@?0??GetType@ILob@@CAXV?$Local@VString@v8@@@v8@@AEBV?$PropertyCallbackInfo@VValue@v8@@@Nan@@@Z@4HA 000000018003e0c9 f   njsIntLob.obj
 0001:0003d0e0       ?catch$0@?0??Async_Read@ILob@@CAXPEAUuv_work_s@@@Z@4HA 000000018003e0e0 f   njsIntLob.obj
 0001:0003d0f0       __catch$?Async_Read@ILob@@CAXPEAUuv_work_s@@@Z$1 000000018003e0f0 f   njsIntLob.obj
 0001:0003d1b0       ?catch$0@?0??Async_Write@ILob@@CAXPEAUuv_work_s@@@Z@4HA 000000018003e1b0 f   njsIntLob.obj
 0001:0003d1c0       __catch$?Async_Write@ILob@@CAXPEAUuv_work_s@@@Z$1 000000018003e1c0 f   njsIntLob.obj
 0001:0003d280       ?catch$0@?0???0ProtoILob@@QEAA@PEAUeBaton@@PEAUDescriptor@dpi@@G@Z@4HA 000000018003e280 f   njsIntLob.obj
 0001:0003d290       __catch$??0ProtoILob@@QEAA@PEAUeBaton@@PEAUDescriptor@dpi@@G@Z$0 000000018003e290 f   njsIntLob.obj
 0001:0003d340       ?dtor$0@?0???0EnvImpl@@QEAA@AEBV?$basic_string@DU?$char_traits@D@std@@V?$allocator@D@2@@std@@@Z@4HA 000000018003e340 f   dpiEnvImpl.obj
 0001:0003d34c       ?dtor$1@?0???0EnvImpl@@QEAA@AEBV?$basic_string@DU?$char_traits@D@std@@V?$allocator@D@2@@std@@@Z@4HA 000000018003e34c f   dpiEnvImpl.obj
 0001:0003d35c       ?catch$0@?0???0EnvImpl@@QEAA@AEBV?$basic_string@DU?$char_traits@D@std@@V?$allocator@D@2@@std@@@Z@4HA 000000018003e35c f   dpiEnvImpl.obj
 0001:0003d36a       __catch$??0EnvImpl@@QEAA@AEBV?$basic_string@DU?$char_traits@D@std@@V?$allocator@D@2@@std@@@Z$0 000000018003e36a f   dpiEnvImpl.obj
 0001:0003d3a0       ?dtor$0@?0???0ExceptionImpl@@QEAA@AEBV0@@Z@4HA 000000018003e3a0 f   dpiEnvImpl.obj
 0001:0003d3ac       ?dtor$1@?0???0ExceptionImpl@@QEAA@AEBV0@@Z@4HA 000000018003e3ac f   dpiEnvImpl.obj
 0001:0003d3c0       ?dtor$0@?0??createPool@EnvImpl@@UEAAPEAVSPool@dpi@@AEBV?$basic_string@DU?$char_traits@D@std@@V?$allocator@D@2@@std@@00HHHHH_N@Z@4HA 000000018003e3c0 f   dpiEnvImpl.obj
 0001:0003d3d0       ?dtor$0@?0??getConnection@EnvImpl@@UEAAPEAVConn@dpi@@AEBV?$basic_string@DU?$char_traits@D@std@@V?$allocator@D@2@@std@@00H0_N@Z@4HA 000000018003e3d0 f   dpiEnvImpl.obj
 0001:0003d3e0       ?dtor$0@?0???0ExceptionImpl@@QEAA@W4DpiError@dpi@@@Z@4HA 000000018003e3e0 f   dpiExceptionImpl.obj
 0001:0003d3ec       ?dtor$1@?0???0ExceptionImpl@@QEAA@W4DpiError@dpi@@@Z@4HA 000000018003e3ec f   dpiExceptionImpl.obj
 0001:0003d3fc       ?dtor$2@?0???0ExceptionImpl@@QEAA@W4DpiError@dpi@@@Z@4HA 000000018003e3fc f   dpiExceptionImpl.obj
 0001:0003d40c       ?dtor$3@?0???0ExceptionImpl@@QEAA@W4DpiError@dpi@@@Z@4HA 000000018003e40c f   dpiExceptionImpl.obj
 0001:0003d420       ?dtor$0@?0???0ConnImpl@@QEAA@PEAVEnvImpl@@PEAUOCIEnv@@_NIAEBV?$basic_string@DU?$char_traits@D@std@@V?$allocator@D@2@@std@@333@Z@4HA 000000018003e420 f   dpiConnImpl.obj
 0001:0003d42c       ?catch$0@?0???0ConnImpl@@QEAA@PEAVEnvImpl@@PEAUOCIEnv@@_NIAEBV?$basic_string@DU?$char_traits@D@std@@V?$allocator@D@2@@std@@333@Z@4HA 000000018003e42c f   dpiConnImpl.obj
 0001:0003d439       __catch$??0ConnImpl@@QEAA@PEAVEnvImpl@@PEAUOCIEnv@@_NIAEBV?$basic_string@DU?$char_traits@D@std@@V?$allocator@D@2@@std@@333@Z$0 000000018003e439 f   dpiConnImpl.obj
 0001:0003d450       ?dtor$0@?0???0ConnImpl@@QEAA@PEAVPoolImpl@@PEAUOCIEnv@@_NPEAEIAEBV?$basic_string@DU?$char_traits@D@std@@V?$allocator@D@2@@std@@@Z@4HA 000000018003e450 f   dpiConnImpl.obj
 0001:0003d45c       ?dtor$1@?0???0ConnImpl@@QEAA@PEAVPoolImpl@@PEAUOCIEnv@@_NPEAEIAEBV?$basic_string@DU?$char_traits@D@std@@V?$allocator@D@2@@std@@@Z@4HA 000000018003e45c f   dpiConnImpl.obj
 0001:0003d468       ?dtor$2@?0???0ConnImpl@@QEAA@PEAVPoolImpl@@PEAUOCIEnv@@_NPEAEIAEBV?$basic_string@DU?$char_traits@D@std@@V?$allocator@D@2@@std@@@Z@4HA 000000018003e468 f   dpiConnImpl.obj
 0001:0003d474       ?catch$0@?0???0ConnImpl@@QEAA@PEAVPoolImpl@@PEAUOCIEnv@@_NPEAEIAEBV?$basic_string@DU?$char_traits@D@std@@V?$allocator@D@2@@std@@@Z@4HA 000000018003e474 f   dpiConnImpl.obj
 0001:0003d481       __catch$??0ConnImpl@@QEAA@PEAVPoolImpl@@PEAUOCIEnv@@_NPEAEIAEBV?$basic_string@DU?$char_traits@D@std@@V?$allocator@D@2@@std@@@Z$0 000000018003e481 f   dpiConnImpl.obj
 0001:0003d4a0       ?dtor$0@?0???_GConnImpl@@UEAAPEAXI@Z@4HA 000000018003e4a0 f   dpiConnImpl.obj
 0001:0003d4b0       ?dtor$0@?0??getStmt@ConnImpl@@UEAAPEAVStmt@dpi@@AEBV?$basic_string@DU?$char_traits@D@std@@V?$allocator@D@2@@std@@@Z@4HA 000000018003e4b0 f   dpiConnImpl.obj
 0001:0003d4c0       ?dtor$0@?0???_GDateTimeArrayImpl@dpi@@UEAAPEAXI@Z@4HA 000000018003e4c0 f   dpiDateTimeArrayImpl.obj
 0001:0003d4d0       ?dtor$0@?0???0PoolImpl@@QEAA@PEAVEnvImpl@@PEAUOCIEnv@@AEBV?$basic_string@DU?$char_traits@D@std@@V?$allocator@D@2@@std@@22HHHH_NH@Z@4HA 000000018003e4d0 f   dpiPoolImpl.obj
 0001:0003d4dc       ?catch$0@?0???0PoolImpl@@QEAA@PEAVEnvImpl@@PEAUOCIEnv@@AEBV?$basic_string@DU?$char_traits@D@std@@V?$allocator@D@2@@std@@22HHHH_NH@Z@4HA 000000018003e4dc f   dpiPoolImpl.obj
 0001:0003d4ec       __catch$??0PoolImpl@@QEAA@PEAVEnvImpl@@PEAUOCIEnv@@AEBV?$basic_string@DU?$char_traits@D@std@@V?$allocator@D@2@@std@@22HHHH_NH@Z$0 000000018003e4ec f   dpiPoolImpl.obj
 0001:0003d510       ?dtor$0@?0??getConnection@PoolImpl@@UEAAPEAVConn@dpi@@AEBV?$basic_string@DU?$char_traits@D@std@@V?$allocator@D@2@@std@@@Z@4HA 000000018003e510 f   dpiPoolImpl.obj
 0001:0003d520       ?dtor$0@?0???0StmtImpl@@QEAA@PEAVEnvImpl@@PEAUOCIEnv@@PEAVConnImpl@@PEAUOCISvcCtx@@AEBV?$basic_string@DU?$char_traits@D@std@@V?$allocator@D@2@@std@@@Z@4HA 000000018003e520 f   dpiStmtImpl.obj
 0001:0003d52c       ?catch$0@?0???0StmtImpl@@QEAA@PEAVEnvImpl@@PEAUOCIEnv@@PEAVConnImpl@@PEAUOCISvcCtx@@AEBV?$basic_string@DU?$char_traits@D@std@@V?$allocator@D@2@@std@@@Z@4HA 000000018003e52c f   dpiStmtImpl.obj
 0001:0003d539       __catch$??0StmtImpl@@QEAA@PEAVEnvImpl@@PEAUOCIEnv@@PEAVConnImpl@@PEAUOCISvcCtx@@AEBV?$basic_string@DU?$char_traits@D@std@@V?$allocator@D@2@@std@@@Z$0 000000018003e539 f   dpiStmtImpl.obj
 0001:0003d550       ?dtor$0@?0???_GStmtImpl@@UEAAPEAXI@Z@4HA 000000018003e550 f   dpiStmtImpl.obj
 0001:0003d560       ?dtor$0@?0??ociCallCommon@@YAXHPEAXI@Z@4HA 000000018003e560 f   dpiUtils.obj
 0001:0003d56c       ?dtor$1@?0??ociCallCommon@@YAXHPEAXI@Z@4HA 000000018003e56c f   dpiUtils.obj
 0001:0003d57c       ?dtor$0@?0??_Locimp_dtor@_Locimp@locale@std@@CAXPEAV123@@Z@4HA 000000018003e57c f   libcpmt:locale0.obj
 0001:0003d57c       ?dtor$0@?0??_Init@locale@std@@CAPEAV_Locimp@12@_N@Z@4HA 000000018003e57c f   libcpmt:locale0.obj
 0001:0003d588       _onexit$fin$0              000000018003e588 f   LIBCMT:onexit.obj
 0001:0003d59c       ?fin$0@?0???_M@YAXPEAX_KHP6AX0@Z@Z@4HA 000000018003e59c f   LIBCMT:ehvecdtr.obj
 0001:0003d5c8       ?filt$0@?0??__ArrayUnwind@@YAXPEAX_KHP6AX0@Z@Z@4HA 000000018003e5c8 f   LIBCMT:ehvecdtr.obj
 0001:0003d609       ?fin$0@?0???_L@YAXPEAX_KHP6AX0@Z2@Z@4HA 000000018003e609 f   LIBCMT:ehvecctr.obj
 0001:0003d635       _CRT_INIT$fin$0            000000018003e635 f   LIBCMT:dllcrt0.obj
 0001:0003d65b       __DllMainCRTStartup$filt$0 000000018003e65b f   LIBCMT:dllcrt0.obj
 0001:0003d6a4       _CallSETranslator$filt$0   000000018003e6a4 f   LIBCMT:trnsctrl.obj
 0001:0003d6ea       setlocale$fin$0            000000018003e6ea f   LIBCMT:setlocal.obj
 0001:0003d705       _mtinitlocknum$fin$0       000000018003e705 f   LIBCMT:mlock.obj
 0001:0003d722       doexit$fin$0               000000018003e722 f   LIBCMT:crt0dat.obj
 0001:0003d746       raise$fin$0                000000018003e746 f   LIBCMT:winsig.obj
 0001:0003d764       _locterm$fin$0             000000018003e764 f   LIBCMT:localref.obj
 0001:0003d764       __updatetlocinfo$fin$0     000000018003e764 f   LIBCMT:localref.obj
 0001:0003d77d       _freefls$fin$1             000000018003e77d f   LIBCMT:tidtable.obj
 0001:0003d77d       _initptd$fin$1             000000018003e77d f   LIBCMT:tidtable.obj
 0001:0003d796       _initptd$fin$0             000000018003e796 f   LIBCMT:tidtable.obj
 0001:0003d796       _freefls$fin$0             000000018003e796 f   LIBCMT:tidtable.obj
 0001:0003d7af       fflush$fin$0               000000018003e7af f   LIBCMT:fflush.obj
 0001:0003d7af       fclose$fin$0               000000018003e7af f   LIBCMT:fflush.obj
 0001:0003d7c7       flsall$fin$0               000000018003e7c7 f   LIBCMT:fflush.obj
 0001:0003d7ef       flsall$fin$1               000000018003e7ef f   LIBCMT:fflush.obj
 0001:0003d808       setvbuf$fin$0              000000018003e808 f   LIBCMT:setvbuf.obj
 0001:0003d820       fwprintf$fin$0             000000018003e820 f   LIBCMT:fwprintf.obj
 0001:0003d83a       ?fin$0@?0??_Type_info_dtor@type_info@@CAXPEAV1@@Z@4HA 000000018003e83a f   LIBCMT:typname.obj
 0001:0003d853       __updatetmbcinfo$fin$0     000000018003e853 f   LIBCMT:mbctype.obj
 0001:0003d853       _setmbcp$fin$0             000000018003e853 f   LIBCMT:mbctype.obj
 0001:0003d86c       _wsetlocale$fin$1          000000018003e86c f   LIBCMT:wsetloca.obj
 0001:0003d887       _wsetlocale$fin$0          000000018003e887 f   LIBCMT:wsetloca.obj
 0001:0003d8a2       _wsetlocale$fin$2          000000018003e8a2 f   LIBCMT:wsetloca.obj
 0001:0003d8bd       _ioinit$fin$0              000000018003e8bd f   LIBCMT:ioinit.obj
 0001:0003d8d8       __CxxCallCatchBlock$filt$0 000000018003e8d8 f   LIBCMT:frame.obj
 0001:0003d9cc       __CxxCallCatchBlock$fin$1  000000018003e9cc f   LIBCMT:frame.obj
 0001:0003da4a       __DestructExceptionObject$filt$0 000000018003ea4a f   LIBCMT:frame.obj
 0001:0003da62       __FrameUnwindToState$filt$0 000000018003ea62 f   LIBCMT:frame.obj
 0001:0003da78       __FrameUnwindToState$fin$1 000000018003ea78 f   LIBCMT:frame.obj
 0001:0003dab0       _IsNonwritableInCurrentImage$filt$0 000000018003eab0 f   LIBCMT:pesect.obj
 0001:0003dad0       _lseeki64$fin$0            000000018003ead0 f   LIBCMT:write.obj
 0001:0003dad0       _write$fin$0               000000018003ead0 f   LIBCMT:write.obj
 0001:0003dae7       _fcloseall$fin$0           000000018003eae7 f   LIBCMT:closeall.obj
 0001:0003db00       _commit$fin$0              000000018003eb00 f   LIBCMT:commit.obj
 0001:0003db00       _close$fin$0               000000018003eb00 f   LIBCMT:commit.obj
 0001:0003db17       __lock_fhandle$fin$0       000000018003eb17 f   LIBCMT:osfinfo.obj
 0001:0003db30       ??__F?oracledbTemplate_s@Oracledb@@0V?$Persistent@VFunctionTemplate@v8@@V?$NonCopyablePersistentTraits@VFunctionTemplate@v8@@@2@@Nan@@A@@YAXXZ 000000018003eb30 f   njsOracle.obj
 0001:0003db40       ??__F?poolTemplate_s@Pool@@2V?$Persistent@VFunctionTemplate@v8@@V?$NonCopyablePersistentTraits@VFunctionTemplate@v8@@@2@@Nan@@A@@YAXXZ 000000018003eb40 f   njsPool.obj
 0001:0003db50       ??__F?connectionTemplate_s@Connection@@2V?$Persistent@VFunctionTemplate@v8@@V?$NonCopyablePersistentTraits@VFunctionTemplate@v8@@@2@@Nan@@A@@YAXXZ 000000018003eb50 f   njsConnection.obj
 0001:0003db60       ??__F?resultSetTemplate_s@ResultSet@@2V?$Persistent@VFunctionTemplate@v8@@V?$NonCopyablePersistentTraits@VFunctionTemplate@v8@@@2@@Nan@@A@@YAXXZ 000000018003eb60 f   njsResultSet.obj
 0001:0003db70       ??__F?iLobTemplate_s@ILob@@2V?$Persistent@VFunctionTemplate@v8@@V?$NonCopyablePersistentTraits@VFunctionTemplate@v8@@@2@@Nan@@A@@YAXXZ 000000018003eb70 f   njsIntLob.obj
 0001:0003db74       ??__F_Fac_tidy_reg@std@@YAXXZ 000000018003eb74 f   libcpmt:locale0.obj
 0001:0003dbc0       ??__Fclassic_locale@std@@YAXXZ 000000018003ebc0 f   libcpmt:locale0.obj
 0001:0003dbf0       ??__Finitlocks@std@@YAXXZ  000000018003ebf0 f   libcpmt:xlock.obj
 0001:0003dbfc       ??__Finit_atexit@@YAXXZ    000000018003ebfc f   libcpmt:iosptrs.obj
 0001:0003dc38       ??__Finitlocks@std@@YAXXZ  000000018003ec38 f   libcpmt:iosptrs.obj
 0002:00000380       initlocks$initializer$     000000018003f380     libcpmt:xlock.obj
 0002:00000388       initlocks$initializer$     000000018003f388     libcpmt:iosptrs.obj
 0002:00000390       init_atexit$initializer$   000000018003f390     libcpmt:iosptrs.obj
 0002:00000398       _Fac_tidy_reg$initializer$ 000000018003f398     libcpmt:locale0.obj
 0002:000003a0       classic_locale$initializer$ 000000018003f3a0     libcpmt:locale0.obj
 0002:000003b0       ?oracledbTemplate_s$initializer$@Oracledb@@0P6AXXZEA 000000018003f3b0     njsOracle.obj
 0002:000003b8       ?poolTemplate_s$initializer$@Pool@@2P6AXXZEA 000000018003f3b8     njsPool.obj
 0002:000003c0       ?connectionTemplate_s$initializer$@Connection@@2P6AXXZEA 000000018003f3c0     njsConnection.obj
 0002:000003c8       ?resultSetTemplate_s$initializer$@ResultSet@@2P6AXXZEA 000000018003f3c8     njsResultSet.obj
 0002:000003d0       ?iLobTemplate_s$initializer$@ILob@@2P6AXXZEA 000000018003f3d0     njsIntLob.obj
 0002:000003e8       pinit                      000000018003f3e8     LIBCMT:onexit.obj
 0002:000003f0       pinit                      000000018003f3f0     LIBCMT:cpu_disp.obj
 0002:000003f8       pinit                      000000018003f3f8     LIBCMT:_file.obj
 0002:00000400       pinit                      000000018003f400     LIBCMT:mbctype.obj
 0002:00000418       pterm                      000000018003f418     LIBCMT:wsetloca.obj
 0002:00000420       pterm                      000000018003f420     LIBCMT:initcon.obj
 0002:00000428       pterm                      000000018003f428     LIBCMT:_file.obj
 0002:000004a0       _Win_errtab                000000018003f4a0     libcpmt:syserror.obj
 0002:00000950       _Sys_errtab                000000018003f950     libcpmt:syserror.obj
 0002:00001790       $cppxdata$?_Locimp_dtor@_Locimp@locale@std@@CAXPEAV123@@Z 0000000180040790     libcpmt:locale0.obj
 0002:000017b8       $cppxdata$?_Init@locale@std@@CAPEAV_Locimp@12@_N@Z 00000001800407b8     libcpmt:locale0.obj
 0002:000019c8       digits                     00000001800409c8     libcpmt:xstoul.obj
 0002:000019f0       ndigs                      00000001800409f0     libcpmt:xstoul.obj
 0002:00001a18       digits                     0000000180040a18     libcpmt:xstoull.obj
 0002:00001a40       ndigs                      0000000180040a40     libcpmt:xstoull.obj
 0002:00001a68       ?digits@?1??_Stoxflt@@9@9  0000000180040a68     libcpmt:xstoxflt.obj
 0002:00001a80       ?vals@?1??_Stoxflt@@9@9    0000000180040a80     libcpmt:xstoxflt.obj
 0002:00001a98       tenth                      0000000180040a98     libcpmt:xfdtento.obj
 0002:00001ab0       tenth                      0000000180040ab0     libcpmt:xdtento.obj
 0002:00001ac8       tenth                      0000000180040ac8     libcpmt:xldtento.obj
 0002:00001ae0       ?mask@?3??_FDint@@9@9      0000000180040ae0     libcpmt:xfdint.obj
 0002:00001b00       ?sub@?3??_FDint@@9@9       0000000180040b00     libcpmt:xfdint.obj
 0002:00001b10       ?mask@?3??_Dint@@9@9       0000000180040b10     libcpmt:xdint.obj
 0002:00001b30       ?sub@?3??_Dint@@9@9        0000000180040b30     libcpmt:xdint.obj
 0002:00001de8       GS_ExceptionPointers       0000000180040de8     LIBCMT:gs_report.obj
 0002:00001e00       ?ExceptionTemplate@?1??_CxxThrowException@@9@4UEHExceptionRecord@@B 0000000180040e00     LIBCMT:throw.obj
 0002:00001e40       ?ExceptionTemplate@?1??_UnwindNestedFrames@@9@4U_EXCEPTION_RECORD@@B 0000000180040e40     LIBCMT:trnsctrl.obj
 0002:00005e40       rterrs                     0000000180044e40     LIBCMT:crt0msg.obj
 0002:00006d48       _mb_locale_names           0000000180045d48     LIBCMT:mbctype.obj
 0002:00006e80       _first_127char             0000000180045e80     LIBCMT:wsetloca.obj
 0002:000071a0       __real@433fffffffffffff    00000001800461a0     LIBCMT:fpsr.obj
 0002:000071a8       __real@c33fffffffffffff    00000001800461a8     LIBCMT:fpsr.obj
 0002:000071b0       tokenTable                 00000001800461b0     LIBCMT:undname.obj
 0002:00007220       nameTable                  0000000180046220     LIBCMT:undname.obj
 0002:000074a0       rttiTable                  00000001800464a0     LIBCMT:undname.obj
 0002:00009d70       errMsg                     0000000180048d70     njsMessages.obj
 0002:00009eb0       dpiErrors                  0000000180048eb0     dpiExceptionImpl.obj
 0002:0000a5a8       $cppxdata$?_Getcat@?$numpunct@D@std@@SA_KPEAPEBVfacet@locale@2@PEBV42@@Z 00000001800495a8     njsOracle.obj
 0002:0000a5d0       $cppxdata$?_Getcat@?$num_put@DV?$ostreambuf_iterator@DU?$char_traits@D@std@@@std@@@std@@SA_KPEAPEBVfacet@locale@2@PEBV42@@Z 00000001800495d0     njsOracle.obj
 0002:0000a5f8       $cppxdata$??$use_facet@V?$numpunct@D@std@@@std@@YAAEBV?$numpunct@D@0@AEBVlocale@0@@Z 00000001800495f8     njsOracle.obj
 0002:0000a620       $cppxdata$??$use_facet@V?$num_put@DV?$ostreambuf_iterator@DU?$char_traits@D@std@@@std@@@std@@@std@@YAAEBV?$num_put@DV?$ostreambuf_iterator@DU?$char_traits@D@std@@@std@@@0@AEBVlocale@0@@Z 0000000180049620     njsOracle.obj
 0002:0000a648       $cppxdata$??$?6U?$char_traits@D@std@@@std@@YAAEAV?$basic_ostream@DU?$char_traits@D@std@@@0@AEAV10@PEBD@Z 0000000180049648     njsOracle.obj
 0002:0000a670       $cppxdata$??$use_facet@V?$ctype@D@std@@@std@@YAAEBV?$ctype@D@0@AEBVlocale@0@@Z 0000000180049670     njsOracle.obj
 0002:0000a698       $cppxdata$?_Iput@?$num_put@DV?$ostreambuf_iterator@DU?$char_traits@D@std@@@std@@@std@@AEBA?AV?$ostreambuf_iterator@DU?$char_traits@D@std@@@2@V32@AEAVios_base@2@DPEAD_K@Z 0000000180049698     njsOracle.obj
 0002:0000a6c0       $cppxdata$?_Fput@?$num_put@DV?$ostreambuf_iterator@DU?$char_traits@D@std@@@std@@@std@@AEBA?AV?$ostreambuf_iterator@DU?$char_traits@D@std@@@2@V32@AEAVios_base@2@DPEBD_K333@Z 00000001800496c0     njsOracle.obj
 0002:0000a6e8       $cppxdata$?flush@?$basic_ostream@DU?$char_traits@D@std@@@std@@QEAAAEAV12@XZ 00000001800496e8     njsOracle.obj
 0002:0000a710       $cppxdata$??0?$basic_streambuf@DU?$char_traits@D@std@@@std@@IEAA@XZ 0000000180049710     njsOracle.obj
 0002:0000a738       $cppxdata$?do_put@?$num_put@DV?$ostreambuf_iterator@DU?$char_traits@D@std@@@std@@@std@@MEBA?AV?$ostreambuf_iterator@DU?$char_traits@D@std@@@2@V32@AEAVios_base@2@D_N@Z 0000000180049738     njsOracle.obj
 0002:0000a760       $cppxdata$??0sentry@?$basic_ostream@DU?$char_traits@D@std@@@std@@QEAA@AEAV12@@Z 0000000180049760     njsOracle.obj
 0002:0000a788       $cppxdata$??0?$basic_iostream@DU?$char_traits@D@std@@@std@@QEAA@PEAV?$basic_streambuf@DU?$char_traits@D@std@@@1@@Z 0000000180049788     njsOracle.obj
 0002:0000a7b0       $cppxdata$?init@?$basic_ios@DU?$char_traits@D@std@@@std@@IEAAXPEAV?$basic_streambuf@DU?$char_traits@D@std@@@2@_N@Z 00000001800497b0     njsOracle.obj
 0002:0000a7d8       $cppxdata$??0?$basic_stringstream@DU?$char_traits@D@std@@V?$allocator@D@2@@std@@QEAA@H@Z 00000001800497d8     njsOracle.obj
 0002:0000a800       $cppxdata$??6?$basic_ostream@DU?$char_traits@D@std@@@std@@QEAAAEAV01@H@Z 0000000180049800     njsOracle.obj
 0002:0000a828       $cppxdata$?Async_AfterCreatePool@Oracledb@@CAXPEAUuv_work_s@@@Z 0000000180049828     njsOracle.obj
 0002:0000a850       $cppxdata$?Async_CreatePool@Oracledb@@CAXPEAUuv_work_s@@@Z 0000000180049850     njsOracle.obj
 0002:0000a878       $cppxdata$?CreatePool@Oracledb@@CAXAEBV?$FunctionCallbackInfo@VValue@v8@@@Nan@@@Z 0000000180049878     njsOracle.obj
 0002:0000a8a0       $cppxdata$?Async_AfterGetConnection@Oracledb@@CAXPEAUuv_work_s@@@Z 00000001800498a0     njsOracle.obj
 0002:0000a8c8       $cppxdata$?Async_GetConnection@Oracledb@@CAXPEAUuv_work_s@@@Z 00000001800498c8     njsOracle.obj
 0002:0000a8f0       $cppxdata$?GetConnection@Oracledb@@CAXAEBV?$FunctionCallbackInfo@VValue@v8@@@Nan@@@Z 00000001800498f0     njsOracle.obj
 0002:0000a918       $cppxdata$?SetOracleClientVersion@Oracledb@@CAXV?$Local@VString@v8@@@v8@@V?$Local@VValue@v8@@@3@AEBV?$PropertyCallbackInfo@X@Nan@@@Z 0000000180049918     njsOracle.obj
 0002:0000a940       $cppxdata$?GetOracleClientVersion@Oracledb@@CAXV?$Local@VString@v8@@@v8@@AEBV?$PropertyCallbackInfo@VValue@v8@@@Nan@@@Z 0000000180049940     njsOracle.obj
 0002:0000a968       $cppxdata$?SetFetchAsString@Oracledb@@CAXV?$Local@VString@v8@@@v8@@V?$Local@VValue@v8@@@3@AEBV?$PropertyCallbackInfo@X@Nan@@@Z 0000000180049968     njsOracle.obj
 0002:0000a990       $cppxdata$?GetFetchAsString@Oracledb@@CAXV?$Local@VString@v8@@@v8@@AEBV?$PropertyCallbackInfo@VValue@v8@@@Nan@@@Z 0000000180049990     njsOracle.obj
 0002:0000a9b8       $cppxdata$?SetLobPrefetchSize@Oracledb@@CAXV?$Local@VString@v8@@@v8@@V?$Local@VValue@v8@@@3@AEBV?$PropertyCallbackInfo@X@Nan@@@Z 00000001800499b8     njsOracle.obj
 0002:0000a9e0       $cppxdata$?GetLobPrefetchSize@Oracledb@@CAXV?$Local@VString@v8@@@v8@@AEBV?$PropertyCallbackInfo@VValue@v8@@@Nan@@@Z 00000001800499e0     njsOracle.obj
 0002:0000aa08       $cppxdata$?SetExternalAuth@Oracledb@@CAXV?$Local@VString@v8@@@v8@@V?$Local@VValue@v8@@@3@AEBV?$PropertyCallbackInfo@X@Nan@@@Z 0000000180049a08     njsOracle.obj
 0002:0000aa30       $cppxdata$?GetExternalAuth@Oracledb@@CAXV?$Local@VString@v8@@@v8@@AEBV?$PropertyCallbackInfo@VValue@v8@@@Nan@@@Z 0000000180049a30     njsOracle.obj
 0002:0000aa58       $cppxdata$?SetConnectionClass@Oracledb@@CAXV?$Local@VString@v8@@@v8@@V?$Local@VValue@v8@@@3@AEBV?$PropertyCallbackInfo@X@Nan@@@Z 0000000180049a58     njsOracle.obj
 0002:0000aa80       $cppxdata$?GetConnectionClass@Oracledb@@CAXV?$Local@VString@v8@@@v8@@AEBV?$PropertyCallbackInfo@VValue@v8@@@Nan@@@Z 0000000180049a80     njsOracle.obj
 0002:0000aaa8       $cppxdata$?SetVersion@Oracledb@@CAXV?$Local@VString@v8@@@v8@@V?$Local@VValue@v8@@@3@AEBV?$PropertyCallbackInfo@X@Nan@@@Z 0000000180049aa8     njsOracle.obj
 0002:0000aad0       $cppxdata$?SetAutoCommit@Oracledb@@CAXV?$Local@VString@v8@@@v8@@V?$Local@VValue@v8@@@3@AEBV?$PropertyCallbackInfo@X@Nan@@@Z 0000000180049ad0     njsOracle.obj
 0002:0000aaf8       $cppxdata$?GetAutoCommit@Oracledb@@CAXV?$Local@VString@v8@@@v8@@AEBV?$PropertyCallbackInfo@VValue@v8@@@Nan@@@Z 0000000180049af8     njsOracle.obj
 0002:0000ab20       $cppxdata$?SetPrefetchRows@Oracledb@@CAXV?$Local@VString@v8@@@v8@@V?$Local@VValue@v8@@@3@AEBV?$PropertyCallbackInfo@X@Nan@@@Z 0000000180049b20     njsOracle.obj
 0002:0000ab48       $cppxdata$?GetPrefetchRows@Oracledb@@CAXV?$Local@VString@v8@@@v8@@AEBV?$PropertyCallbackInfo@VValue@v8@@@Nan@@@Z 0000000180049b48     njsOracle.obj
 0002:0000ab70       $cppxdata$?SetStmtCacheSize@Oracledb@@CAXV?$Local@VString@v8@@@v8@@V?$Local@VValue@v8@@@3@AEBV?$PropertyCallbackInfo@X@Nan@@@Z 0000000180049b70     njsOracle.obj
 0002:0000ab98       $cppxdata$?GetStmtCacheSize@Oracledb@@CAXV?$Local@VString@v8@@@v8@@AEBV?$PropertyCallbackInfo@VValue@v8@@@Nan@@@Z 0000000180049b98     njsOracle.obj
 0002:0000abc0       $cppxdata$?SetOutFormat@Oracledb@@CAXV?$Local@VString@v8@@@v8@@V?$Local@VValue@v8@@@3@AEBV?$PropertyCallbackInfo@X@Nan@@@Z 0000000180049bc0     njsOracle.obj
 0002:0000abe8       $cppxdata$?GetOutFormat@Oracledb@@CAXV?$Local@VString@v8@@@v8@@AEBV?$PropertyCallbackInfo@VValue@v8@@@Nan@@@Z 0000000180049be8     njsOracle.obj
 0002:0000ac10       $cppxdata$?SetMaxRows@Oracledb@@CAXV?$Local@VString@v8@@@v8@@V?$Local@VValue@v8@@@3@AEBV?$PropertyCallbackInfo@X@Nan@@@Z 0000000180049c10     njsOracle.obj
 0002:0000ac38       $cppxdata$?GetMaxRows@Oracledb@@CAXV?$Local@VString@v8@@@v8@@AEBV?$PropertyCallbackInfo@VValue@v8@@@Nan@@@Z 0000000180049c38     njsOracle.obj
 0002:0000ac60       $cppxdata$?SetPoolTimeout@Oracledb@@CAXV?$Local@VString@v8@@@v8@@V?$Local@VValue@v8@@@3@AEBV?$PropertyCallbackInfo@X@Nan@@@Z 0000000180049c60     njsOracle.obj
 0002:0000ac88       $cppxdata$?GetPoolTimeout@Oracledb@@CAXV?$Local@VString@v8@@@v8@@AEBV?$PropertyCallbackInfo@VValue@v8@@@Nan@@@Z 0000000180049c88     njsOracle.obj
 0002:0000acb0       $cppxdata$?SetPoolIncrement@Oracledb@@CAXV?$Local@VString@v8@@@v8@@V?$Local@VValue@v8@@@3@AEBV?$PropertyCallbackInfo@X@Nan@@@Z 0000000180049cb0     njsOracle.obj
 0002:0000acd8       $cppxdata$?GetPoolIncrement@Oracledb@@CAXV?$Local@VString@v8@@@v8@@AEBV?$PropertyCallbackInfo@VValue@v8@@@Nan@@@Z 0000000180049cd8     njsOracle.obj
 0002:0000ad00       $cppxdata$?SetPoolMax@Oracledb@@CAXV?$Local@VString@v8@@@v8@@V?$Local@VValue@v8@@@3@AEBV?$PropertyCallbackInfo@X@Nan@@@Z 0000000180049d00     njsOracle.obj
 0002:0000ad28       $cppxdata$?GetPoolMax@Oracledb@@CAXV?$Local@VString@v8@@@v8@@AEBV?$PropertyCallbackInfo@VValue@v8@@@Nan@@@Z 0000000180049d28     njsOracle.obj
 0002:0000ad50       $cppxdata$?SetPoolMin@Oracledb@@CAXV?$Local@VString@v8@@@v8@@V?$Local@VValue@v8@@@3@AEBV?$PropertyCallbackInfo@X@Nan@@@Z 0000000180049d50     njsOracle.obj
 0002:0000ad78       $cppxdata$?GetPoolMin@Oracledb@@CAXV?$Local@VString@v8@@@v8@@AEBV?$PropertyCallbackInfo@VValue@v8@@@Nan@@@Z 0000000180049d78     njsOracle.obj
 0002:0000ada0       $cppxdata$?New@Oracledb@@CAXAEBV?$FunctionCallbackInfo@VValue@v8@@@Nan@@@Z 0000000180049da0     njsOracle.obj
 0002:0000adc8       $cppxdata$?Init@Oracledb@@SAXV?$Local@VObject@v8@@@v8@@@Z 0000000180049dc8     njsOracle.obj
 0002:0000adf0       $cppxdata$?driverName@Oracledb@@AEBA?BV?$basic_string@DU?$char_traits@D@std@@V?$allocator@D@2@@std@@XZ 0000000180049df0     njsOracle.obj
 0002:0000ae18       $cppxdata$??1Oracledb@@EEAA@XZ 0000000180049e18     njsOracle.obj
 0002:0000ae40       $cppxdata$??0Oracledb@@AEAA@XZ 0000000180049e40     njsOracle.obj
 0002:0000ae68       $cppxdata$??1connectionBaton@@QEAA@XZ 0000000180049e68     njsOracle.obj
 0002:0000ae90       $cppxdata$??0connectionBaton@@QEAA@V?$Local@VFunction@v8@@@v8@@@Z 0000000180049e90     njsOracle.obj
 0002:0000aeb8       $cppxdata$??1ObjectWrap@Nan@@UEAA@XZ 0000000180049eb8     njsOracle.obj
 0002:0000aee0       $cppxdata$?SetAccessor@Nan@@YAXV?$Local@VObjectTemplate@v8@@@v8@@V?$Local@VString@v8@@@3@P6AX1AEBV?$PropertyCallbackInfo@VValue@v8@@@1@@ZP6AX1V?$Local@VValue@v8@@@3@AEBV?$PropertyCallbackInfo@X@1@@Z4W4AccessControl@3@W4PropertyAttribute@3@V?$Local@VAccessorSignature@v8@@@3@@Z 0000000180049ee0     njsOracle.obj
 0002:0000af08       $cppxdata$?New@?$Factory@VFunctionTemplate@v8@@@imp@Nan@@SA?AV?$Local@VFunctionTemplate@v8@@@v8@@P6AXAEBV?$FunctionCallbackInfo@VValue@v8@@@3@@ZV?$Local@VValue@v8@@@5@V?$Local@VSignature@v8@@@5@@Z 0000000180049f08     njsOracle.obj
 0002:0000af30       $cppxdata$?_Init@ios_base@std@@IEAAXXZ 0000000180049f30     njsOracle.obj
 0002:0000af58       $cppxdata$?clear@ios_base@std@@QEAAXH_N@Z 0000000180049f58     njsOracle.obj
 0002:0000af80       $cppxdata$??0system_error@std@@QEAA@Verror_code@1@PEBD@Z 0000000180049f80     njsOracle.obj
 0002:0000afa8       $cppxdata$?_Makestr@_System_error@std@@CA?AV?$basic_string@DU?$char_traits@D@std@@V?$allocator@D@2@@2@Verror_code@2@V32@@Z 0000000180049fa8     njsOracle.obj
 0002:0000afd0       $cppxdata$?_Getcat@?$ctype@D@std@@SA_KPEAPEBVfacet@locale@2@PEBV42@@Z 0000000180049fd0     njsOracle.obj
 0002:0000aff8       $cppxdata$??0_Locinfo@std@@QEAA@PEBD@Z 0000000180049ff8     njsOracle.obj
 0002:0000b090       $cppxdata$?Async_AfterTerminate@Pool@@CAXPEAUuv_work_s@@@Z 000000018004a090     njsPool.obj
 0002:0000b0b8       $cppxdata$?Async_Terminate@Pool@@CAXPEAUuv_work_s@@@Z 000000018004a0b8     njsPool.obj
 0002:0000b0e0       $cppxdata$?Terminate@Pool@@CAXAEBV?$FunctionCallbackInfo@VValue@v8@@@Nan@@@Z 000000018004a0e0     njsPool.obj
 0002:0000b108       $cppxdata$?Async_AfterGetConnection@Pool@@CAXPEAUuv_work_s@@@Z 000000018004a108     njsPool.obj
 0002:0000b130       $cppxdata$?Async_GetConnection@Pool@@CAXPEAUuv_work_s@@@Z 000000018004a130     njsPool.obj
 0002:0000b158       $cppxdata$?GetConnection@Pool@@CAXAEBV?$FunctionCallbackInfo@VValue@v8@@@Nan@@@Z 000000018004a158     njsPool.obj
 0002:0000b180       $cppxdata$?SetStmtCacheSize@Pool@@CAXV?$Local@VString@v8@@@v8@@V?$Local@VValue@v8@@@3@AEBV?$PropertyCallbackInfo@X@Nan@@@Z 000000018004a180     njsPool.obj
 0002:0000b1a8       $cppxdata$?SetConnectionsInUse@Pool@@CAXV?$Local@VString@v8@@@v8@@V?$Local@VValue@v8@@@3@AEBV?$PropertyCallbackInfo@X@Nan@@@Z 000000018004a1a8     njsPool.obj
 0002:0000b1d0       $cppxdata$?SetConnectionsOpen@Pool@@CAXV?$Local@VString@v8@@@v8@@V?$Local@VValue@v8@@@3@AEBV?$PropertyCallbackInfo@X@Nan@@@Z 000000018004a1d0     njsPool.obj
 0002:0000b1f8       $cppxdata$?SetPoolTimeout@Pool@@CAXV?$Local@VString@v8@@@v8@@V?$Local@VValue@v8@@@3@AEBV?$PropertyCallbackInfo@X@Nan@@@Z 000000018004a1f8     njsPool.obj
 0002:0000b220       $cppxdata$?SetPoolIncrement@Pool@@CAXV?$Local@VString@v8@@@v8@@V?$Local@VValue@v8@@@3@AEBV?$PropertyCallbackInfo@X@Nan@@@Z 000000018004a220     njsPool.obj
 0002:0000b248       $cppxdata$?SetPoolMax@Pool@@CAXV?$Local@VString@v8@@@v8@@V?$Local@VValue@v8@@@3@AEBV?$PropertyCallbackInfo@X@Nan@@@Z 000000018004a248     njsPool.obj
 0002:0000b270       $cppxdata$?SetPoolMin@Pool@@CAXV?$Local@VString@v8@@@v8@@V?$Local@VValue@v8@@@3@AEBV?$PropertyCallbackInfo@X@Nan@@@Z 000000018004a270     njsPool.obj
 0002:0000b298       $cppxdata$?setPoolProperty@Pool@@CAXPEAV1@V?$basic_string@DU?$char_traits@D@std@@V?$allocator@D@2@@std@@@Z 000000018004a298     njsPool.obj
 0002:0000b2c0       $cppxdata$?GetStmtCacheSize@Pool@@CAXV?$Local@VString@v8@@@v8@@AEBV?$PropertyCallbackInfo@VValue@v8@@@Nan@@@Z 000000018004a2c0     njsPool.obj
 0002:0000b2e8       $cppxdata$?GetConnectionsInUse@Pool@@CAXV?$Local@VString@v8@@@v8@@AEBV?$PropertyCallbackInfo@VValue@v8@@@Nan@@@Z 000000018004a2e8     njsPool.obj
 0002:0000b310       $cppxdata$?GetConnectionsOpen@Pool@@CAXV?$Local@VString@v8@@@v8@@AEBV?$PropertyCallbackInfo@VValue@v8@@@Nan@@@Z 000000018004a310     njsPool.obj
 0002:0000b338       $cppxdata$?GetPoolTimeout@Pool@@CAXV?$Local@VString@v8@@@v8@@AEBV?$PropertyCallbackInfo@VValue@v8@@@Nan@@@Z 000000018004a338     njsPool.obj
 0002:0000b360       $cppxdata$?GetPoolIncrement@Pool@@CAXV?$Local@VString@v8@@@v8@@AEBV?$PropertyCallbackInfo@VValue@v8@@@Nan@@@Z 000000018004a360     njsPool.obj
 0002:0000b388       $cppxdata$?GetPoolMax@Pool@@CAXV?$Local@VString@v8@@@v8@@AEBV?$PropertyCallbackInfo@VValue@v8@@@Nan@@@Z 000000018004a388     njsPool.obj
 0002:0000b3b0       $cppxdata$?GetPoolMin@Pool@@CAXV?$Local@VString@v8@@@v8@@AEBV?$PropertyCallbackInfo@VValue@v8@@@Nan@@@Z 000000018004a3b0     njsPool.obj
 0002:0000b3d8       $cppxdata$?getPoolProperty@Pool@@CA?AV?$Local@VPrimitive@v8@@@v8@@PEAV1@I@Z 000000018004a3d8     njsPool.obj
 0002:0000b400       $cppxdata$??1poolBaton@@QEAA@XZ 000000018004a400     njsPool.obj
 0002:0000b428       $cppxdata$??0poolBaton@@QEAA@V?$Local@VFunction@v8@@@v8@@@Z 000000018004a428     njsPool.obj
 0002:0000b450       $cppxdata$?Init@Pool@@SAXV?$Local@VObject@v8@@@v8@@@Z 000000018004a450     njsPool.obj
 0002:0000b478       $cppxdata$??$New@VString@v8@@V?$basic_string@DU?$char_traits@D@std@@V?$allocator@D@2@@std@@@Nan@@YA?AV?$MaybeLocal@VString@v8@@@v8@@V?$basic_string@DU?$char_traits@D@std@@V?$allocator@D@2@@std@@@Z 000000018004a478     njsConnection.obj
 0002:0000b4a0       $cppxdata$?NewLob@Connection@@CA?AV?$Local@VValue@v8@@@v8@@PEAUeBaton@@PEAVProtoILob@@@Z 000000018004a4a0     njsConnection.obj
 0002:0000b4c8       $cppxdata$?cbDynBufferAllocate@Connection@@CAXPEAX_NII@Z 000000018004a4c8     njsConnection.obj
 0002:0000b4f0       $cppxdata$?Async_Break@Connection@@CAXPEAUuv_work_s@@@Z 000000018004a4f0     njsConnection.obj
 0002:0000b518       $cppxdata$?Break@Connection@@CAXAEBV?$FunctionCallbackInfo@VValue@v8@@@Nan@@@Z 000000018004a518     njsConnection.obj
 0002:0000b540       $cppxdata$?Async_Rollback@Connection@@CAXPEAUuv_work_s@@@Z 000000018004a540     njsConnection.obj
 0002:0000b568       $cppxdata$?Rollback@Connection@@CAXAEBV?$FunctionCallbackInfo@VValue@v8@@@Nan@@@Z 000000018004a568     njsConnection.obj
 0002:0000b590       $cppxdata$?Async_Commit@Connection@@CAXPEAUuv_work_s@@@Z 000000018004a590     njsConnection.obj
 0002:0000b5b8       $cppxdata$?Commit@Connection@@CAXAEBV?$FunctionCallbackInfo@VValue@v8@@@Nan@@@Z 000000018004a5b8     njsConnection.obj
 0002:0000b5e0       $cppxdata$?Async_AfterBreak@Connection@@CAXPEAUuv_work_s@@@Z 000000018004a5e0     njsConnection.obj
 0002:0000b5e0       $cppxdata$?Async_AfterRelease@Connection@@CAXPEAUuv_work_s@@@Z 000000018004a5e0     njsConnection.obj
 0002:0000b5e0       $cppxdata$?Async_AfterRollback@Connection@@CAXPEAUuv_work_s@@@Z 000000018004a5e0     njsConnection.obj
 0002:0000b5e0       $cppxdata$?Async_AfterCommit@Connection@@CAXPEAUuv_work_s@@@Z 000000018004a5e0     njsConnection.obj
 0002:0000b608       $cppxdata$?Async_Release@Connection@@CAXPEAUuv_work_s@@@Z 000000018004a608     njsConnection.obj
 0002:0000b630       $cppxdata$?Release@Connection@@CAXAEBV?$FunctionCallbackInfo@VValue@v8@@@Nan@@@Z 000000018004a630     njsConnection.obj
 0002:0000b658       $cppxdata$?GetOutBindObject@Connection@@CA?AV?$Local@VValue@v8@@@v8@@PEAUeBaton@@@Z 000000018004a658     njsConnection.obj
 0002:0000b680       $cppxdata$?GetOutBindArray@Connection@@CA?AV?$Local@VValue@v8@@@v8@@PEAUeBaton@@@Z 000000018004a680     njsConnection.obj
 0002:0000b6a8       $cppxdata$?GetOutBinds@Connection@@CA?AV?$Local@VValue@v8@@@v8@@PEAUeBaton@@@Z 000000018004a6a8     njsConnection.obj
 0002:0000b6d0       $cppxdata$?GetArrayValue@Connection@@CA?AV?$Local@VValue@v8@@@v8@@PEAUeBaton@@PEAUBind@@K@Z 000000018004a6d0     njsConnection.obj
 0002:0000b6f8       $cppxdata$?GetValueCommon@Connection@@CA?AV?$Local@VValue@v8@@@v8@@PEAUeBaton@@FGPEAXG@Z 000000018004a6f8     njsConnection.obj
 0002:0000b720       $cppxdata$?GetValueLob@Connection@@CA?AV?$Local@VValue@v8@@@v8@@PEAUeBaton@@PEAUBind@@@Z 000000018004a720     njsConnection.obj
 0002:0000b748       $cppxdata$?GetValueRefCursor@Connection@@CA?AV?$Local@VValue@v8@@@v8@@PEAUeBaton@@PEAUBind@@@Z 000000018004a748     njsConnection.obj
 0002:0000b770       $cppxdata$?GetValue@Connection@@CA?AV?$Local@VValue@v8@@@v8@@PEAUeBaton@@_NII@Z 000000018004a770     njsConnection.obj
 0002:0000b798       $cppxdata$?GetRows@Connection@@SA?AV?$Local@VValue@v8@@@v8@@PEAUeBaton@@@Z 000000018004a798     njsConnection.obj
 0002:0000b7c0       $cppxdata$?GetMetaData@Connection@@SA?AV?$Local@VValue@v8@@@v8@@PEAV?$basic_string@DU?$char_traits@D@std@@V?$allocator@D@2@@std@@I@Z 000000018004a7c0     njsConnection.obj
 0002:0000b7e8       $cppxdata$?Async_AfterExecute@Connection@@CAXPEAUuv_work_s@@@Z 000000018004a7e8     njsConnection.obj
 0002:0000b810       $cppxdata$?Descr2protoILob@Connection@@CAXPEAUeBaton@@II@Z 000000018004a810     njsConnection.obj
 0002:0000b838       $cppxdata$?Async_Execute@Connection@@CAXPEAUuv_work_s@@@Z 000000018004a838     njsConnection.obj
 0002:0000b860       $cppxdata$?GetInBindParamsArray@Connection@@CAXV?$Local@VArray@v8@@@v8@@PEAUBind@@PEAUeBaton@@W4BindType@@@Z 000000018004a860     njsConnection.obj
 0002:0000b888       $cppxdata$?GetInBindParamsScalar@Connection@@CAXV?$Local@VValue@v8@@@v8@@PEAUBind@@PEAUeBaton@@W4BindType@@@Z 000000018004a888     njsConnection.obj
 0002:0000b8b0       $cppxdata$?GetInBindParams@Connection@@CAXV?$Local@VValue@v8@@@v8@@PEAUBind@@PEAUeBaton@@W4BindType@@@Z 000000018004a8b0     njsConnection.obj
 0002:0000b8d8       $cppxdata$?GetOutBindParams@Connection@@CAXGPEAUBind@@PEAUeBaton@@@Z 000000018004a8d8     njsConnection.obj
 0002:0000b900       $cppxdata$?GetBindUnit@Connection@@CAXV?$Local@VValue@v8@@@v8@@PEAUBind@@PEAUeBaton@@@Z 000000018004a900     njsConnection.obj
 0002:0000b928       $cppxdata$?GetBinds@Connection@@CAXV?$Local@VArray@v8@@@v8@@PEAUeBaton@@@Z 000000018004a928     njsConnection.obj
 0002:0000b950       $cppxdata$?GetBinds@Connection@@CAXV?$Local@VObject@v8@@@v8@@PEAUeBaton@@@Z 000000018004a950     njsConnection.obj
 0002:0000b978       $cppxdata$?ProcessOptions@Connection@@CAXAEBV?$FunctionCallbackInfo@VValue@v8@@@Nan@@IPEAUeBaton@@@Z 000000018004a978     njsConnection.obj
 0002:0000b9a0       $cppxdata$?ProcessBinds@Connection@@CAXAEBV?$FunctionCallbackInfo@VValue@v8@@@Nan@@IPEAUeBaton@@@Z 000000018004a9a0     njsConnection.obj
 0002:0000b9c8       $cppxdata$?Execute@Connection@@CAXAEBV?$FunctionCallbackInfo@VValue@v8@@@Nan@@@Z 000000018004a9c8     njsConnection.obj
 0002:0000b9f0       $cppxdata$?SetOracleServerVersion@Connection@@CAXV?$Local@VString@v8@@@v8@@V?$Local@VValue@v8@@@3@AEBV?$PropertyCallbackInfo@X@Nan@@@Z 000000018004a9f0     njsConnection.obj
 0002:0000ba18       $cppxdata$?GetOracleServerVersion@Connection@@CAXV?$Local@VString@v8@@@v8@@AEBV?$PropertyCallbackInfo@VValue@v8@@@Nan@@@Z 000000018004aa18     njsConnection.obj
 0002:0000ba40       $cppxdata$?SetAction@Connection@@CAXV?$Local@VString@v8@@@v8@@V?$Local@VValue@v8@@@3@AEBV?$PropertyCallbackInfo@X@Nan@@@Z 000000018004aa40     njsConnection.obj
 0002:0000ba68       $cppxdata$?SetModule@Connection@@CAXV?$Local@VString@v8@@@v8@@V?$Local@VValue@v8@@@3@AEBV?$PropertyCallbackInfo@X@Nan@@@Z 000000018004aa68     njsConnection.obj
 0002:0000ba90       $cppxdata$?SetClientId@Connection@@CAXV?$Local@VString@v8@@@v8@@V?$Local@VValue@v8@@@3@AEBV?$PropertyCallbackInfo@X@Nan@@@Z 000000018004aa90     njsConnection.obj
 0002:0000bab8       $cppxdata$?SetStmtCacheSize@Connection@@CAXV?$Local@VString@v8@@@v8@@V?$Local@VValue@v8@@@3@AEBV?$PropertyCallbackInfo@X@Nan@@@Z 000000018004aab8     njsConnection.obj
 0002:0000bae0       $cppxdata$?GetStmtCacheSize@Connection@@CAXV?$Local@VString@v8@@@v8@@AEBV?$PropertyCallbackInfo@VValue@v8@@@Nan@@@Z 000000018004aae0     njsConnection.obj
 0002:0000bb08       $cppxdata$?connectionPropertyException@Connection@@CAXPEAV1@W4NJSErrorType@@V?$basic_string@DU?$char_traits@D@std@@V?$allocator@D@2@@std@@@Z 000000018004ab08     njsConnection.obj
 0002:0000bb30       $cppxdata$??1eBaton@@QEAA@XZ 000000018004ab30     njsConnection.obj
 0002:0000bb58       $cppxdata$??0eBaton@@QEAA@AEAIV?$Local@VFunction@v8@@@v8@@@Z 000000018004ab58     njsConnection.obj
 0002:0000bb80       $cppxdata$?Init@Connection@@SAXV?$Local@VObject@v8@@@v8@@@Z 000000018004ab80     njsConnection.obj
 0002:0000bba8       $cppxdata$?Async_AfterClose@ResultSet@@CAXPEAUuv_work_s@@@Z 000000018004aba8     njsResultSet.obj
 0002:0000bbd0       $cppxdata$?Async_Close@ResultSet@@CAXPEAUuv_work_s@@@Z 000000018004abd0     njsResultSet.obj
 0002:0000bbf8       $cppxdata$?Close@ResultSet@@CAXAEBV?$FunctionCallbackInfo@VValue@v8@@@Nan@@@Z 000000018004abf8     njsResultSet.obj
 0002:0000bc20       $cppxdata$?Async_AfterGetRows@ResultSet@@CAXPEAUuv_work_s@@@Z 000000018004ac20     njsResultSet.obj
 0002:0000bc48       $cppxdata$?Async_GetRows@ResultSet@@CAXPEAUuv_work_s@@@Z 000000018004ac48     njsResultSet.obj
 0002:0000bc70       $cppxdata$?GetRowsCommon@ResultSet@@CAXPEAUrsBaton@@@Z 000000018004ac70     njsResultSet.obj
 0002:0000bc98       $cppxdata$?GetRows@ResultSet@@CAXAEBV?$FunctionCallbackInfo@VValue@v8@@@Nan@@@Z 000000018004ac98     njsResultSet.obj
 0002:0000bcc0       $cppxdata$?GetRow@ResultSet@@CAXAEBV?$FunctionCallbackInfo@VValue@v8@@@Nan@@@Z 000000018004acc0     njsResultSet.obj
 0002:0000bce8       $cppxdata$?SetMetaData@ResultSet@@CAXV?$Local@VString@v8@@@v8@@V?$Local@VValue@v8@@@3@AEBV?$PropertyCallbackInfo@X@Nan@@@Z 000000018004ace8     njsResultSet.obj
 0002:0000bd10       $cppxdata$?GetMetaData@ResultSet@@CAXV?$Local@VString@v8@@@v8@@AEBV?$PropertyCallbackInfo@VValue@v8@@@Nan@@@Z 000000018004ad10     njsResultSet.obj
 0002:0000bd38       $cppxdata$??1rsBaton@@QEAA@XZ 000000018004ad38     njsResultSet.obj
 0002:0000bd60       $cppxdata$??0rsBaton@@QEAA@AEAIV?$Local@VFunction@v8@@@v8@@@Z 000000018004ad60     njsResultSet.obj
 0002:0000bd88       $cppxdata$?setResultSet@ResultSet@@QEAAXPEAVStmt@dpi@@PEAUeBaton@@@Z 000000018004ad88     njsResultSet.obj
 0002:0000bdb0       $cppxdata$?Init@ResultSet@@SAXV?$Local@VObject@v8@@@v8@@@Z 000000018004adb0     njsResultSet.obj
 0002:0000bdd8       $cppxdata$?getErrorMsg@NJSMessages@@SA?AV?$basic_string@DU?$char_traits@D@std@@V?$allocator@D@2@@std@@W4NJSErrorType@@ZZ 000000018004add8     njsMessages.obj
 0002:0000be00       $cppxdata$?Async_AfterWrite@ILob@@CAXPEAUuv_work_s@@@Z 000000018004ae00     njsIntLob.obj
 0002:0000be28       $cppxdata$?Async_Write@ILob@@CAXPEAUuv_work_s@@@Z 000000018004ae28     njsIntLob.obj
 0002:0000be50       $cppxdata$?Write@ILob@@CAXAEBV?$FunctionCallbackInfo@VValue@v8@@@Nan@@@Z 000000018004ae50     njsIntLob.obj
 0002:0000be78       $cppxdata$?Async_AfterRead@ILob@@CAXPEAUuv_work_s@@@Z 000000018004ae78     njsIntLob.obj
 0002:0000bea0       $cppxdata$?Async_Read@ILob@@CAXPEAUuv_work_s@@@Z 000000018004aea0     njsIntLob.obj
 0002:0000bec8       $cppxdata$?Read@ILob@@CAXAEBV?$FunctionCallbackInfo@VValue@v8@@@Nan@@@Z 000000018004aec8     njsIntLob.obj
 0002:0000bef0       $cppxdata$?SetType@ILob@@CAXV?$Local@VString@v8@@@v8@@V?$Local@VValue@v8@@@3@AEBV?$PropertyCallbackInfo@X@Nan@@@Z 000000018004aef0     njsIntLob.obj
 0002:0000bf18       $cppxdata$?GetType@ILob@@CAXV?$Local@VString@v8@@@v8@@AEBV?$PropertyCallbackInfo@VValue@v8@@@Nan@@@Z 000000018004af18     njsIntLob.obj
 0002:0000bf40       $cppxdata$?SetOffset@ILob@@CAXV?$Local@VString@v8@@@v8@@V?$Local@VValue@v8@@@3@AEBV?$PropertyCallbackInfo@X@Nan@@@Z 000000018004af40     njsIntLob.obj
 0002:0000bf68       $cppxdata$?GetOffset@ILob@@CAXV?$Local@VString@v8@@@v8@@AEBV?$PropertyCallbackInfo@VValue@v8@@@Nan@@@Z 000000018004af68     njsIntLob.obj
 0002:0000bf90       $cppxdata$?SetPieceSize@ILob@@CAXV?$Local@VString@v8@@@v8@@V?$Local@VValue@v8@@@3@AEBV?$PropertyCallbackInfo@X@Nan@@@Z 000000018004af90     njsIntLob.obj
 0002:0000bfb8       $cppxdata$?GetPieceSize@ILob@@CAXV?$Local@VString@v8@@@v8@@AEBV?$PropertyCallbackInfo@VValue@v8@@@Nan@@@Z 000000018004afb8     njsIntLob.obj
 0002:0000bfe0       $cppxdata$?SetLength@ILob@@CAXV?$Local@VString@v8@@@v8@@V?$Local@VValue@v8@@@3@AEBV?$PropertyCallbackInfo@X@Nan@@@Z 000000018004afe0     njsIntLob.obj
 0002:0000c008       $cppxdata$?GetLength@ILob@@CAXV?$Local@VString@v8@@@v8@@AEBV?$PropertyCallbackInfo@VValue@v8@@@Nan@@@Z 000000018004b008     njsIntLob.obj
 0002:0000c030       $cppxdata$?SetChunkSize@ILob@@CAXV?$Local@VString@v8@@@v8@@V?$Local@VValue@v8@@@3@AEBV?$PropertyCallbackInfo@X@Nan@@@Z 000000018004b030     njsIntLob.obj
 0002:0000c058       $cppxdata$?GetChunkSize@ILob@@CAXV?$Local@VString@v8@@@v8@@AEBV?$PropertyCallbackInfo@VValue@v8@@@Nan@@@Z 000000018004b058     njsIntLob.obj
 0002:0000c080       $cppxdata$?lobPropertyException@ILob@@CAXPEAV1@W4NJSErrorType@@V?$basic_string@DU?$char_traits@D@std@@V?$allocator@D@2@@std@@@Z 000000018004b080     njsIntLob.obj
 0002:0000c0a8       $cppxdata$?Release@ILob@@CAXAEBV?$FunctionCallbackInfo@VValue@v8@@@Nan@@@Z 000000018004b0a8     njsIntLob.obj
 0002:0000c0d0       $cppxdata$??_GILob@@EEAAPEAXI@Z 000000018004b0d0     njsIntLob.obj
 0002:0000c0f8       $cppxdata$??1LobBaton@@QEAA@XZ 000000018004b0f8     njsIntLob.obj
 0002:0000c120       $cppxdata$??0LobBaton@@QEAA@AEAIV?$Local@VFunction@v8@@@v8@@@Z 000000018004b120     njsIntLob.obj
 0002:0000c148       $cppxdata$??0ProtoILob@@QEAA@PEAUeBaton@@PEAUDescriptor@dpi@@G@Z 000000018004b148     njsIntLob.obj
 0002:0000c170       $cppxdata$?setILob@ILob@@QEAAXPEAUeBaton@@PEAVProtoILob@@@Z 000000018004b170     njsIntLob.obj
 0002:0000c198       $cppxdata$?Init@ILob@@SAXV?$Local@VObject@v8@@@v8@@@Z 000000018004b198     njsIntLob.obj
 0002:0000c1c0       $cppxdata$?getConnection@EnvImpl@@UEAAPEAVConn@dpi@@AEBV?$basic_string@DU?$char_traits@D@std@@V?$allocator@D@2@@std@@00H0_N@Z 000000018004b1c0     dpiEnvImpl.obj
 0002:0000c1e8       $cppxdata$?createPool@EnvImpl@@UEAAPEAVSPool@dpi@@AEBV?$basic_string@DU?$char_traits@D@std@@V?$allocator@D@2@@std@@00HHHHH_N@Z 000000018004b1e8     dpiEnvImpl.obj
 0002:0000c210       $cppxdata$??0ExceptionImpl@@QEAA@AEBV0@@Z 000000018004b210     dpiEnvImpl.obj
 0002:0000c238       $cppxdata$??0EnvImpl@@QEAA@AEBV?$basic_string@DU?$char_traits@D@std@@V?$allocator@D@2@@std@@@Z 000000018004b238     dpiEnvImpl.obj
 0002:0000c260       $cppxdata$??$?6DU?$char_traits@D@std@@V?$allocator@D@1@@std@@YAAEAV?$basic_ostream@DU?$char_traits@D@std@@@0@AEAV10@AEBV?$basic_string@DU?$char_traits@D@std@@V?$allocator@D@2@@0@@Z 000000018004b260     dpiExceptionImpl.obj
 0002:0000c288       $cppxdata$??0ExceptionImpl@@QEAA@W4DpiError@dpi@@@Z 000000018004b288     dpiExceptionImpl.obj
 0002:0000c2b0       $cppxdata$?getStmt@ConnImpl@@UEAAPEAVStmt@dpi@@AEBV?$basic_string@DU?$char_traits@D@std@@V?$allocator@D@2@@std@@@Z 000000018004b2b0     dpiConnImpl.obj
 0002:0000c2d8       $cppxdata$??_GConnImpl@@UEAAPEAXI@Z 000000018004b2d8     dpiConnImpl.obj
 0002:0000c300       $cppxdata$??0ConnImpl@@QEAA@PEAVPoolImpl@@PEAUOCIEnv@@_NPEAEIAEBV?$basic_string@DU?$char_traits@D@std@@V?$allocator@D@2@@std@@@Z 000000018004b300     dpiConnImpl.obj
 0002:0000c328       $cppxdata$??0ConnImpl@@QEAA@PEAVEnvImpl@@PEAUOCIEnv@@_NIAEBV?$basic_string@DU?$char_traits@D@std@@V?$allocator@D@2@@std@@333@Z 000000018004b328     dpiConnImpl.obj
 0002:0000c350       $cppxdata$??_GDateTimeArrayImpl@dpi@@UEAAPEAXI@Z 000000018004b350     dpiDateTimeArrayImpl.obj
 0002:0000c378       $cppxdata$?getConnection@PoolImpl@@UEAAPEAVConn@dpi@@AEBV?$basic_string@DU?$char_traits@D@std@@V?$allocator@D@2@@std@@@Z 000000018004b378     dpiPoolImpl.obj
 0002:0000c3a0       $cppxdata$??0PoolImpl@@QEAA@PEAVEnvImpl@@PEAUOCIEnv@@AEBV?$basic_string@DU?$char_traits@D@std@@V?$allocator@D@2@@std@@22HHHH_NH@Z 000000018004b3a0     dpiPoolImpl.obj
 0002:0000c3c8       $cppxdata$??_GStmtImpl@@UEAAPEAXI@Z 000000018004b3c8     dpiStmtImpl.obj
 0002:0000c3f0       $cppxdata$??0StmtImpl@@QEAA@PEAVEnvImpl@@PEAUOCIEnv@@PEAVConnImpl@@PEAUOCISvcCtx@@AEBV?$basic_string@DU?$char_traits@D@std@@V?$allocator@D@2@@std@@@Z 000000018004b3f0     dpiStmtImpl.obj
 0002:0000c418       $cppxdata$?ociCallCommon@@YAXHPEAXI@Z 000000018004b418     dpiUtils.obj
 0002:0000ccb0       $unwind$?falsename@?$numpunct@D@std@@QEBA?AV?$basic_string@DU?$char_traits@D@std@@V?$allocator@D@2@@2@XZ 000000018004bcb0     njsOracle.obj
 0002:0000ccb0       $unwind$?connectionsOpen@PoolImpl@@UEBAIXZ 000000018004bcb0     dpiPoolImpl.obj
 0002:0000ccb0       $unwind$?truename@?$numpunct@D@std@@QEBA?AV?$basic_string@DU?$char_traits@D@std@@V?$allocator@D@2@@2@XZ 000000018004bcb0     njsOracle.obj
 0002:0000ccb0       $unwind$?rowsAffected@StmtImpl@@UEBAHXZ 000000018004bcb0     dpiStmtImpl.obj
 0002:0000ccb0       $unwind$?allocDescriptorArray@EnvImpl@@UEAAXW4DescriptorType@dpi@@IQEAPEAUDescriptor@3@@Z 000000018004bcb0     dpiEnvImpl.obj
 0002:0000ccb0       $unwind$?connectionsInUse@PoolImpl@@UEBAIXZ 000000018004bcb0     dpiPoolImpl.obj
 0002:0000ccb0       $unwind$?_Raise@exception@stdext@@QEBAXXZ 000000018004bcb0     njsOracle.obj
 0002:0000ccb0       $unwind$?do_grouping@?$numpunct@D@std@@MEBA?AV?$basic_string@DU?$char_traits@D@std@@V?$allocator@D@2@@2@XZ 000000018004bcb0     njsOracle.obj
 0002:0000ccb0       $unwind$?fetch@StmtImpl@@UEAAXI@Z 000000018004bcb0     dpiStmtImpl.obj
 0002:0000ccb0       $unwind$?do_falsename@?$numpunct@D@std@@MEBA?AV?$basic_string@DU?$char_traits@D@std@@V?$allocator@D@2@@2@XZ 000000018004bcb0     njsOracle.obj
 0002:0000ccb0       $unwind$?grouping@?$numpunct@D@std@@QEBA?AV?$basic_string@DU?$char_traits@D@std@@V?$allocator@D@2@@2@XZ 000000018004bcb0     njsOracle.obj
 0002:0000ccb0       $unwind$?allocDescriptor@EnvImpl@@UEAAPEAUDescriptor@dpi@@W4DescriptorType@3@@Z 000000018004bcb0     dpiEnvImpl.obj
 0002:0000ccb0       $unwind$??$?HDU?$char_traits@D@std@@V?$allocator@D@1@@std@@YA?AV?$basic_string@DU?$char_traits@D@std@@V?$allocator@D@2@@0@PEBD$$QEAV10@@Z 000000018004bcb0     njsConnection.obj
 0002:0000ccb0       $unwind$?str@?$basic_stringstream@DU?$char_traits@D@std@@V?$allocator@D@2@@std@@QEBA?AV?$basic_string@DU?$char_traits@D@std@@V?$allocator@D@2@@2@XZ 000000018004bcb0     njsOracle.obj
 0002:0000ccb0       $unwind$?allocHandle@EnvImpl@@UEAAPEAUDpiHandle@dpi@@W4HandleType@3@@Z 000000018004bcb0     dpiEnvImpl.obj
 0002:0000ccb0       $unwind$?stmtCacheSize@ConnImpl@@UEBAIXZ 000000018004bcb0     dpiConnImpl.obj
 0002:0000ccb0       $unwind$?message@error_code@std@@QEBA?AV?$basic_string@DU?$char_traits@D@std@@V?$allocator@D@2@@2@XZ 000000018004bcb0     njsOracle.obj
 0002:0000ccb0       $unwind$?lobPrefetchSize@ConnImpl@@UEBAIXZ 000000018004bcb0     dpiConnImpl.obj
 0002:0000ccb0       $unwind$_fassign_l         000000018004bcb0     LIBCMT:cvt.obj
 0002:0000ccb0       $unwind$?do_truename@?$numpunct@D@std@@MEBA?AV?$basic_string@DU?$char_traits@D@std@@V?$allocator@D@2@@2@XZ 000000018004bcb0     njsOracle.obj
 0002:0000ccb0       $unwind$_vsprintf_s_l      000000018004bcb0     LIBCMT:vsnprnc.obj
 0002:0000ccb0       $unwind$?clientId@ConnImpl@@UEAAXAEBV?$basic_string@DU?$char_traits@D@std@@V?$allocator@D@2@@std@@@Z 000000018004bcb0     dpiConnImpl.obj
 0002:0000ccb0       $unwind$?module@ConnImpl@@UEAAXAEBV?$basic_string@DU?$char_traits@D@std@@V?$allocator@D@2@@std@@@Z 000000018004bcb0     dpiConnImpl.obj
 0002:0000ccb0       $unwind$?rowsFetched@StmtImpl@@UEBAIXZ 000000018004bcb0     dpiStmtImpl.obj
 0002:0000ccb0       $unwind$?getloc@ios_base@std@@QEBA?AVlocale@2@XZ 000000018004bcb0     njsOracle.obj
 0002:0000ccb0       $unwind$?action@ConnImpl@@UEAAXAEBV?$basic_string@DU?$char_traits@D@std@@V?$allocator@D@2@@std@@@Z 000000018004bcb0     dpiConnImpl.obj
 0002:0000ccb8       $unwind$??_GStmt@dpi@@UEAAPEAXI@Z 000000018004bcb8     dpiStmtImpl.obj
 0002:0000ccb8       $unwind$_amsg_exit         000000018004bcb8     LIBCMT:crt0dat.obj
 0002:0000ccb8       $unwind$_IsExceptionObjectToBeDestroyed 000000018004bcb8     LIBCMT:trnsctrl.obj
 0002:0000ccb8       $unwind$_CreateFrameInfo   000000018004bcb8     LIBCMT:trnsctrl.obj
 0002:0000ccb8       $unwind$??_Gfailure@ios_base@std@@UEAAPEAXI@Z 000000018004bcb8     njsOracle.obj
 0002:0000ccb8       $unwind$?commit@ConnImpl@@UEAAXXZ 000000018004bcb8     dpiConnImpl.obj
 0002:0000ccb8       $unwind$?uflow@?$basic_streambuf@DU?$char_traits@D@std@@@std@@MEAAHXZ 000000018004bcb8     njsOracle.obj
 0002:0000ccb8       $unwind$??_G?$num_put@DV?$ostreambuf_iterator@DU?$char_traits@D@std@@@std@@@std@@MEAAPEAXI@Z 000000018004bcb8     njsOracle.obj
 0002:0000ccb8       $unwind$?rollback@ConnImpl@@UEAAXXZ 000000018004bcb8     dpiConnImpl.obj
 0002:0000ccb8       $unwind$?_Setgloballocale@locale@std@@CAXPEAX@Z 000000018004bcb8     libcpmt:locale0.obj
 0002:0000ccb8       $unwind$__raise_securityfailure 000000018004bcb8     LIBCMT:gs_report.obj
 0002:0000ccb8       $unwind$??1?$basic_streambuf@DU?$char_traits@D@std@@@std@@UEAA@XZ 000000018004bcb8     njsOracle.obj
 0002:0000ccb8       $unwind$write_char         000000018004bcb8     LIBCMT:output.obj
 0002:0000ccb8       $unwind$??_Gexception@stdext@@UEAAPEAXI@Z 000000018004bcb8     njsOracle.obj
 0002:0000ccb8       $unwind$write_char         000000018004bcb8     LIBCMT:outputs.obj
 0002:0000ccb8       $unwind$??1?$_Yarn@_W@std@@QEAA@XZ 000000018004bcb8     njsOracle.obj
 0002:0000ccb8       $unwind$?release@ConnImpl@@UEAAXXZ 000000018004bcb8     dpiConnImpl.obj
 0002:0000ccb8       $unwind$??1?$_Yarn@D@std@@QEAA@XZ 000000018004bcb8     njsOracle.obj
 0002:0000ccb8       $unwind$_getptd            000000018004bcb8     LIBCMT:tidtable.obj
 0002:0000ccb8       $unwind$_getbuf            000000018004bcb8     LIBCMT:_getbuf.obj
 0002:0000ccb8       $unwind$write_char         000000018004bcb8     LIBCMT:woutput.obj
 0002:0000ccb8       $unwind$??_GConn@dpi@@MEAAPEAXI@Z 000000018004bcb8     dpiConnImpl.obj
 0002:0000ccb8       $unwind$GetLocaleNameFromLanguage 000000018004bcb8     LIBCMT:getqloc.obj
 0002:0000ccb8       $unwind$__crtExitProcess   000000018004bcb8     LIBCMT:crt0dat.obj
 0002:0000ccb8       $unwind$??0exception@std@@QEAA@AEBQEBD@Z 000000018004bcb8     LIBCMT:stdexcpt.obj
 0002:0000ccb8       $unwind$_init_pointers     000000018004bcb8     LIBCMT:crt0dat.obj
 0002:0000ccb8       $unwind$GetLocaleNameFromLangCountry 000000018004bcb8     LIBCMT:getqloc.obj
 0002:0000ccb8       $unwind$??_Gruntime_error@std@@UEAAPEAXI@Z 000000018004bcb8     njsOracle.obj
 0002:0000ccb8       $unwind$?Ref@ObjectWrap@Nan@@MEAAXXZ 000000018004bcb8     njsOracle.obj
 0002:0000ccb8       $unwind$??0exception@std@@QEAA@AEBV01@@Z 000000018004bcb8     LIBCMT:stdexcpt.obj
 0002:0000ccb8       $unwind$?Unref@ObjectWrap@Nan@@MEAAXXZ 000000018004bcb8     njsOracle.obj
 0002:0000ccb8       $unwind$??1?$basic_string@DU?$char_traits@D@std@@V?$allocator@D@2@@std@@QEAA@XZ 000000018004bcb8     njsOracle.obj
 0002:0000ccb8       $unwind$?_Tidy@exception@std@@AEAAXXZ 000000018004bcb8     LIBCMT:stdexcpt.obj
 0002:0000ccb8       $unwind$??__F_Fac_tidy_reg@std@@YAXXZ 000000018004bcb8     libcpmt:locale0.obj
 0002:0000ccb8       $unwind$?WeakCallback@ObjectWrap@Nan@@CAXAEBV?$WeakCallbackInfo@VObjectWrap@Nan@@@v8@@@Z 000000018004bcb8     njsOracle.obj
 0002:0000ccb8       $unwind$?_Facet_Register@std@@YAXPEAV_Facet_base@1@@Z 000000018004bcb8     libcpmt:locale0.obj
 0002:0000ccb8       $unwind$?release@DateTimeArrayImpl@dpi@@UEAAXXZ 000000018004bcb8     dpiDateTimeArrayImpl.obj
 0002:0000ccb8       $unwind$??1?$vector@PEAUBind@@V?$allocator@PEAUBind@@@std@@@std@@QEAA@XZ 000000018004bcb8     njsConnection.obj
 0002:0000ccb8       $unwind$_freeptd           000000018004bcb8     LIBCMT:tidtable.obj
 0002:0000ccb8       $unwind$?__GetUnwindTryBlock@@YAHPEA_KPEAU_xDISPATCHER_CONTEXT@@PEBU_s_FuncInfo@@@Z 000000018004bcb8     LIBCMT:ehstate.obj
 0002:0000ccb8       $unwind$??0_Lockit@std@@QEAA@H@Z 000000018004bcb8     libcpmt:xlock.obj
 0002:0000ccb8       $unwind$??0_LocaleUpdate@@QEAA@PEAUlocaleinfo_struct@@@Z 000000018004bcb8     LIBCMT:stricmp.obj
 0002:0000ccb8       $unwind$??1?$basic_stringbuf@DU?$char_traits@D@std@@V?$allocator@D@2@@std@@UEAA@XZ 000000018004bcb8     njsOracle.obj
 0002:0000ccb8       $unwind$??0bad_exception@std@@QEAA@AEBV01@@Z 000000018004bcb8     LIBCMT:frame.obj
 0002:0000ccb8       $unwind$__crtCorExitProcess 000000018004bcb8     LIBCMT:crt0dat.obj
 0002:0000ccb8       $unwind$?do_widen@?$ctype@D@std@@MEBAPEBDPEBD0PEAD@Z 000000018004bcb8     njsOracle.obj
 0002:0000ccb8       $unwind$??1ExceptionImpl@@UEAA@XZ 000000018004bcb8     dpiExceptionImpl.obj
 0002:0000ccb8       $unwind$_fflush_nolock     000000018004bcb8     LIBCMT:fflush.obj
 0002:0000ccb8       $unwind$?do_narrow@?$ctype@D@std@@MEBAPEBDPEBD0DPEAD@Z 000000018004bcb8     njsOracle.obj
 0002:0000ccb8       $unwind$?New@ILob@@CAXAEBV?$FunctionCallbackInfo@VValue@v8@@@Nan@@@Z 000000018004bcb8     njsIntLob.obj
 0002:0000ccb8       $unwind$__crtLoadWinApiPointers 000000018004bcb8     LIBCMT:winapisupp.obj
 0002:0000ccb8       $unwind$?cleanup@ILob@@AEAAXXZ 000000018004bcb8     njsIntLob.obj
 0002:0000ccb8       $unwind$??0length_error@std@@QEAA@AEBV01@@Z 000000018004bcb8     libcpmt:xthrow.obj
 0002:0000ccb8       $unwind$??_GDateTimeArray@dpi@@UEAAPEAXI@Z 000000018004bcb8     dpiDateTimeArrayImpl.obj
 0002:0000ccb8       $unwind$load_exe_hook      000000018004bcb8     win_delay_load_hook.obj
 0002:0000ccb8       $unwind$_freebuf           000000018004bcb8     LIBCMT:_freebuf.obj
 0002:0000ccb8       $unwind$__onexitinit       000000018004bcb8     LIBCMT:onexit.obj
 0002:0000ccb8       $unwind$??_GException@dpi@@UEAAPEAXI@Z 000000018004bcb8     dpiEnvImpl.obj
 0002:0000ccb8       $unwind$_SetImageBase      000000018004bcb8     LIBCMT:trnsctrl.obj
 0002:0000ccb8       $unwind$_callnewh          000000018004bcb8     LIBCMT:handler.obj
 0002:0000ccb8       $unwind$??0logic_error@std@@QEAA@AEBV01@@Z 000000018004bcb8     libcpmt:xthrow.obj
 0002:0000ccb8       $unwind$?_Ios_base_dtor@ios_base@std@@CAXPEAV12@@Z 000000018004bcb8     libcpmt:ios.obj
 0002:0000ccb8       $unwind$??0out_of_range@std@@QEAA@AEBV01@@Z 000000018004bcb8     libcpmt:xthrow.obj
 0002:0000ccb8       $unwind$__crtTerminateProcess 000000018004bcb8     LIBCMT:winapisupp.obj
 0002:0000ccb8       $unwind$?GetTargetType@Connection@@CAGPEAUeBaton@@AEAV?$basic_string@DU?$char_traits@D@std@@V?$allocator@D@2@@std@@G@Z 000000018004bcb8     njsConnection.obj
 0002:0000ccb8       $unwind$__crtUnhandledException 000000018004bcb8     LIBCMT:winapisupp.obj
 0002:0000ccb8       $unwind$_Getctype          000000018004bcb8     libcpmt:_tolower.obj
 0002:0000ccb8       $unwind$?New@Connection@@CAXAEBV?$FunctionCallbackInfo@VValue@v8@@@Nan@@@Z 000000018004bcb8     njsConnection.obj
 0002:0000ccb8       $unwind$__crtIsPackagedApp 000000018004bcb8     LIBCMT:winapisupp.obj
 0002:0000ccb8       $unwind$_SetThrowImageBase 000000018004bcb8     LIBCMT:trnsctrl.obj
 0002:0000ccb8       $unwind$_mtinit            000000018004bcb8     LIBCMT:tidtable.obj
 0002:0000ccb8       $unwind$?DoFetch@Connection@@SAXPEAUeBaton@@@Z 000000018004bcb8     njsConnection.obj
 0002:0000ccb8       $unwind$?terminate@EnvImpl@@UEAAXXZ 000000018004bcb8     dpiEnvImpl.obj
 0002:0000ccb8       $unwind$?New@ResultSet@@CAXAEBV?$FunctionCallbackInfo@VValue@v8@@@Nan@@@Z 000000018004bcb8     njsResultSet.obj
 0002:0000ccb8       $unwind$__GSHandlerCheckCommon 000000018004bcb8     LIBCMT:gshandler.obj
 0002:0000ccb8       $unwind$strcpy_s           000000018004bcb8     LIBCMT:strcpy_s.obj
 0002:0000ccb8       $unwind$??_G_Facet_base@std@@UEAAPEAXI@Z 000000018004bcb8     njsOracle.obj
 0002:0000ccb8       $unwind$?cleanup@ProtoILob@@AEAAXXZ 000000018004bcb8     njsIntLob.obj
 0002:0000ccb8       $unwind$?New@Pool@@CAXAEBV?$FunctionCallbackInfo@VValue@v8@@@Nan@@@Z 000000018004bcb8     njsPool.obj
 0002:0000ccb8       $unwind$_cinit             000000018004bcb8     LIBCMT:crt0dat.obj
 0002:0000ccb8       $unwind$calloc             000000018004bcb8     LIBCMT:calloc.obj
 0002:0000ccb8       $unwind$strncpy_s          000000018004bcb8     LIBCMT:strncpy_s.obj
 0002:0000ccb8       $unwind$??_GEnv@dpi@@MEAAPEAXI@Z 000000018004bcb8     dpiEnv.obj
 0002:0000ccb8       $unwind$??_GSPool@dpi@@MEAAPEAXI@Z 000000018004bcb8     dpiPoolImpl.obj
 0002:0000ccb8       $unwind$wcsncpy_s          000000018004bcb8     LIBCMT:wcsncpy_s.obj
 0002:0000ccb8       $unwind$??_Gsystem_error@std@@UEAAPEAXI@Z 000000018004bcb8     njsOracle.obj
 0002:0000ccb8       $unwind$wcscat_s           000000018004bcb8     LIBCMT:wcscat_s.obj
 0002:0000ccb8       $unwind$??0fetchInfo@@QEAA@XZ 000000018004bcb8     njsConnection.obj
 0002:0000ccb8       $unwind$??0bad_alloc@std@@QEAA@AEBV01@@Z 000000018004bcb8     libcpmt:xthrow.obj
 0002:0000ccb8       $unwind$wcsncat_s          000000018004bcb8     LIBCMT:wcsncat_s.obj
 0002:0000ccb8       $unwind$??1fetchInfo@@QEAA@XZ 000000018004bcb8     njsConnection.obj
 0002:0000ccb8       $unwind$_lock_file2        000000018004bcb8     LIBCMT:_file.obj
 0002:0000ccb8       $unwind$??_G_System_error@std@@UEAAPEAXI@Z 000000018004bcb8     njsOracle.obj
 0002:0000ccb8       $unwind$wcscpy_s           000000018004bcb8     LIBCMT:wcscpy_s.obj
 0002:0000ccb8       $unwind$??1?$basic_stringstream@DU?$char_traits@D@std@@V?$allocator@D@2@@std@@UEAA@XZ 000000018004bcb8     njsOracle.obj
 0002:0000ccb8       $unwind$??_D?$basic_stringstream@DU?$char_traits@D@std@@V?$allocator@D@2@@std@@QEAAXXZ 000000018004bcb8     njsOracle.obj
 0002:0000ccb8       $unwind$_lock_file         000000018004bcb8     LIBCMT:_file.obj
 0002:0000ccc0       $unwind$_invalid_parameter_noinfo 000000018004bcc0     LIBCMT:invarg.obj
 0002:0000ccc0       $unwind$?_Doraise@runtime_error@std@@MEBAXXZ 000000018004bcc0     njsOracle.obj
 0002:0000ccc0       $unwind$mbstowcs_s         000000018004bcc0     LIBCMT:mbstowcs.obj
 0002:0000ccc0       $unwind$_vsnprintf         000000018004bcc0     LIBCMT:vsnprint.obj
 0002:0000ccc0       $unwind$_itow_s            000000018004bcc0     LIBCMT:xtows.obj
 0002:0000ccc0       $unwind$wctomb_s           000000018004bcc0     LIBCMT:wctomb.obj
 0002:0000ccc0       $unwind$?_Doraise@system_error@std@@MEBAXXZ 000000018004bcc0     njsOracle.obj
 0002:0000ccc0       $unwind$_vswprintf_c_l     000000018004bcc0     LIBCMT:vswprnc.obj
 0002:0000ccc0       $unwind$?_Doraise@failure@ios_base@std@@MEBAXXZ 000000018004bcc0     njsOracle.obj
 0002:0000ccc0       $unwind$_cfltcvt_l         000000018004bcc0     LIBCMT:cvt.obj
 0002:0000ccc8       $unwind$??0_Locinfo@std@@QEAA@PEBD@Z 000000018004bcc8     njsOracle.obj
 0002:0000ccdc       $stateUnwindMap$??0_Locinfo@std@@QEAA@PEBD@Z 000000018004bcdc     njsOracle.obj
 0002:0000cd20       $ip2state$??0_Locinfo@std@@QEAA@PEBD@Z 000000018004bd20     njsOracle.obj
 0002:0000cd78       $unwind$_lock              000000018004bd78     LIBCMT:mlock.obj
 0002:0000cd78       $unwind$_initp_misc_cfltcvt_tab 000000018004bd78     LIBCMT:cmiscdat.obj
 0002:0000cd78       $unwind$_fptostr           000000018004bd78     LIBCMT:_fptostr.obj
 0002:0000cd78       $unwind$??_GOracledb@@EEAAPEAXI@Z 000000018004bd78     njsOracle.obj
 0002:0000cd78       $unwind$??_GExceptionImpl@@UEAAPEAXI@Z 000000018004bd78     dpiEnvImpl.obj
 0002:0000cd78       $unwind$??_GConnection@@EEAAPEAXI@Z 000000018004bd78     njsConnection.obj
 0002:0000cd78       $unwind$GetLcidFromLanguage 000000018004bd78     LIBCMT:getqloc_downlevel.obj
 0002:0000cd78       $unwind$_calloc_impl       000000018004bd78     LIBCMT:calloc_impl.obj
 0002:0000cd78       $unwind$??_GResultSet@@UEAAPEAXI@Z 000000018004bd78     njsResultSet.obj
 0002:0000cd78       $unwind$??_GPool@@EEAAPEAXI@Z 000000018004bd78     njsPool.obj
 0002:0000cd78       $unwind$??_G?$ctype@D@std@@MEAAPEAXI@Z 000000018004bd78     njsOracle.obj
 0002:0000cd78       $unwind$__freeCrtMemory    000000018004bd78     LIBCMT:crt0dat.obj
 0002:0000cd78       $unwind$?cleanup@PoolImpl@@AEAAXXZ 000000018004bd78     dpiPoolImpl.obj
 0002:0000cd78       $unwind$?_Tidy@ios_base@std@@AEAAXXZ 000000018004bd78     libcpmt:ios.obj
 0002:0000cd78       $unwind$??_Gout_of_range@std@@UEAAPEAXI@Z 000000018004bd78     libcpmt:xthrow.obj
 0002:0000cd78       $unwind$__crtGetUserDefaultLocaleName 000000018004bd78     LIBCMT:winapinls.obj
 0002:0000cd78       $unwind$??_Glength_error@std@@UEAAPEAXI@Z 000000018004bd78     libcpmt:xthrow.obj
 0002:0000cd78       $unwind$??1_Locinfo@std@@QEAA@XZ 000000018004bd78     njsOracle.obj
 0002:0000cd78       $unwind$__initstdio        000000018004bd78     LIBCMT:_file.obj
 0002:0000cd78       $unwind$??0?$basic_string@DU?$char_traits@D@std@@V?$allocator@D@2@@std@@QEAA@$$QEAV01@@Z 000000018004bd78     njsOracle.obj
 0002:0000cd78       $unwind$??_G?$basic_ios@DU?$char_traits@D@std@@@std@@UEAAPEAXI@Z 000000018004bd78     njsOracle.obj
 0002:0000cd78       $unwind$??_Gexception@std@@UEAAPEAXI@Z 000000018004bd78     LIBCMT:stdexcpt.obj
 0002:0000cd78       $unwind$?_Assign_rv@?$basic_string@DU?$char_traits@D@std@@V?$allocator@D@2@@std@@QEAAX$$QEAV12@@Z 000000018004bd78     njsOracle.obj
 0002:0000cd78       $unwind$GetLcidFromLangCountry 000000018004bd78     LIBCMT:getqloc_downlevel.obj
 0002:0000cd78       $unwind$??_Glogic_error@std@@UEAAPEAXI@Z 000000018004bd78     libcpmt:xthrow.obj
 0002:0000cd78       $unwind$?erase@?$basic_string@DU?$char_traits@D@std@@V?$allocator@D@2@@std@@QEAAAEAV12@_K0@Z 000000018004bd78     njsOracle.obj
 0002:0000cd78       $unwind$??_Gbad_alloc@std@@UEAAPEAXI@Z 000000018004bd78     libcpmt:xthrow.obj
 0002:0000cd78       $unwind$??_G?$basic_stringbuf@DU?$char_traits@D@std@@V?$allocator@D@2@@std@@UEAAPEAXI@Z 000000018004bd78     njsOracle.obj
 0002:0000cd78       $unwind$??4?$basic_string@DU?$char_traits@D@std@@V?$allocator@D@2@@std@@QEAAAEAV01@$$QEAV01@@Z 000000018004bd78     njsOracle.obj
 0002:0000cd78       $unwind$?push_back@?$vector@PEAUBind@@V?$allocator@PEAUBind@@@std@@@std@@QEAAXAEBQEAUBind@@@Z 000000018004bd78     njsConnection.obj
 0002:0000cd78       $unwind$_updatetlocinfoEx_nolock 000000018004bd78     LIBCMT:localref.obj
 0002:0000cd78       $unwind$??_GObjectWrap@Nan@@UEAAPEAXI@Z 000000018004bd78     njsOracle.obj
 0002:0000cd78       $unwind$??_Gbad_exception@std@@UEAAPEAXI@Z 000000018004bd78     LIBCMT:frame.obj
 0002:0000cd78       $unwind$??_GEnvImpl@@UEAAPEAXI@Z 000000018004bd78     dpiEnvImpl.obj
 0002:0000cd78       $unwind$?_Locinfo_ctor@_Locinfo@std@@SAXPEAV12@PEBD@Z 000000018004bd78     libcpmt:locale0.obj
 0002:0000cd78       $unwind$??4exception@std@@QEAAAEAV01@AEBV01@@Z 000000018004bd78     LIBCMT:stdexcpt.obj
 0002:0000cd78       $unwind$?cbDynBufferGet@Connection@@CAHPEAXHIKKPEAPEAX11PEAPEAGPEAE@Z 000000018004bd78     njsConnection.obj
 0002:0000cd78       $unwind$?__SetUnwindTryBlock@@YAXPEA_KPEAU_xDISPATCHER_CONTEXT@@PEBU_s_FuncInfo@@H@Z 000000018004bd78     LIBCMT:ehstate.obj
 0002:0000cd78       $unwind$??_G?$basic_iostream@DU?$char_traits@D@std@@@std@@UEAAPEAXI@Z 000000018004bd78     njsOracle.obj
 0002:0000cd78       $unwind$??_GPoolImpl@@UEAAPEAXI@Z 000000018004bd78     dpiPoolImpl.obj
 0002:0000cd78       $unwind$??1_Init_locks@std@@QEAA@XZ 000000018004bd78     libcpmt:xlock.obj
 0002:0000cd78       $unwind$_getptd_noexit     000000018004bd78     LIBCMT:tidtable.obj
 0002:0000cd78       $unwind$??_G_Locimp@locale@std@@MEAAPEAXI@Z 000000018004bd78     libcpmt:locale0.obj
 0002:0000cd78       $unwind$_FindAndUnlinkFrame 000000018004bd78     LIBCMT:trnsctrl.obj
 0002:0000cd78       $unwind$??_G?$basic_istream@DU?$char_traits@D@std@@@std@@UEAAPEAXI@Z 000000018004bd78     njsOracle.obj
 0002:0000cd78       $unwind$??_Gtype_info@@UEAAPEAXI@Z 000000018004bd78     LIBCMT:typinfo.obj
 0002:0000cd78       $unwind$_initterm_e        000000018004bd78     LIBCMT:crt0dat.obj
 0002:0000cd78       $unwind$??_G?$numpunct@D@std@@MEAAPEAXI@Z 000000018004bd78     njsOracle.obj
 0002:0000cd78       $unwind$_close_nolock      000000018004bd78     LIBCMT:close.obj
 0002:0000cd78       $unwind$??1sentry@?$basic_ostream@DU?$char_traits@D@std@@@std@@QEAA@XZ 000000018004bd78     njsOracle.obj
 0002:0000cd78       $unwind$??_G?$basic_ostream@DU?$char_traits@D@std@@@std@@UEAAPEAXI@Z 000000018004bd78     njsOracle.obj
 0002:0000cd78       $unwind$?_New_Locimp@_Locimp@locale@std@@CAPEAV123@_N@Z 000000018004bd78     libcpmt:locale0.obj
 0002:0000cd78       $unwind$_RTC_Initialize    000000018004bd78     LIBCMT:initsect.obj
 0002:0000cd78       $unwind$_fclose_nolock     000000018004bd78     LIBCMT:fclose.obj
 0002:0000cd78       $unwind$_RTC_Terminate     000000018004bd78     LIBCMT:initsect.obj
 0002:0000cd78       $unwind$_dosmaperr         000000018004bd78     LIBCMT:dosmap.obj
 0002:0000cd78       $unwind$??_Gios_base@std@@UEAAPEAXI@Z 000000018004bd78     njsOracle.obj
 0002:0000cd84       $unwind$___mb_cur_max_func 000000018004bd84     LIBCMT:initctyp.obj
 0002:0000cd84       $unwind$_FF_MSGBANNER      000000018004bd84     LIBCMT:crt0msg.obj
 0002:0000cd84       $unwind$_isatty            000000018004bd84     LIBCMT:isatty.obj
 0002:0000cd84       $unwind$_Deletegloballocale 000000018004bd84     libcpmt:locale0.obj
 0002:0000cd84       $unwind$_initp_eh_hooks    000000018004bd84     LIBCMT:hooks.obj
 0002:0000cd84       $unwind$_msize             000000018004bd84     LIBCMT:msize.obj
 0002:0000cd84       $unwind$?_Atexit@@YAXP6AXXZ@Z 000000018004bd84     libcpmt:iosptrs.obj
 0002:0000cd84       $unwind$?__GetCurrentState@@YAHPEA_KPEAU_xDISPATCHER_CONTEXT@@PEBU_s_FuncInfo@@@Z 000000018004bd84     LIBCMT:ehstate.obj
 0002:0000cd84       $unwind$_heap_init         000000018004bd84     LIBCMT:heapinit.obj
 0002:0000cd84       $unwind$??1_Lockit@std@@QEAA@XZ 000000018004bd84     libcpmt:xlock.obj
 0002:0000cd84       $unwind$__crtInitializeCriticalSectionEx 000000018004bd84     LIBCMT:winapisupp.obj
 0002:0000cd84       $unwind$_get_osfhandle     000000018004bd84     LIBCMT:osfinfo.obj
 0002:0000cd84       $unwind$__endstdio         000000018004bd84     LIBCMT:_file.obj
 0002:0000cd84       $unwind$_mtterm            000000018004bd84     LIBCMT:tidtable.obj
 0002:0000cd84       $unwind$__crtEnumSystemLocalesEx 000000018004bd84     LIBCMT:winapinls.obj
 0002:0000cd84       $unwind$??__Einitlocks@std@@YAXXZ 000000018004bd84     libcpmt:iosptrs.obj
 0002:0000cd84       $unwind$__doserrno         000000018004bd84     LIBCMT:dosmap.obj
 0002:0000cd84       $unwind$??__Einitlocks@std@@YAXXZ 000000018004bd84     libcpmt:xlock.obj
 0002:0000cd84       $unwind$tidy_global        000000018004bd84     libcpmt:locale0.obj
 0002:0000cd84       $unwind$_errno             000000018004bd84     LIBCMT:dosmap.obj
 0002:0000cd84       $unwind$__crtDownlevelLocaleNameToLCID 000000018004bd84     LIBCMT:winapinls.obj
 0002:0000cd84       $unwind$__GSHandlerCheck   000000018004bd84     LIBCMT:gshandler.obj
 0002:0000cd84       $unwind$_fileno            000000018004bd84     LIBCMT:fileno.obj
 0002:0000cd84       $unwind$__initmbctable     000000018004bd84     LIBCMT:mbctype.obj
 0002:0000cd84       $unwind$??1locale@std@@QEAA@XZ 000000018004bd84     njsOracle.obj
 0002:0000cd84       $unwind$_purecall          000000018004bd84     LIBCMT:purevirt.obj
 0002:0000cd84       $unwind$__termconout       000000018004bd84     LIBCMT:initcon.obj
 0002:0000cd84       $unwind$abort              000000018004bd84     LIBCMT:abort.obj
 0002:0000cd84       $unwind$_GetThrowImageBase 000000018004bd84     LIBCMT:trnsctrl.obj
 0002:0000cd84       $unwind$_wcsnicmp          000000018004bd84     LIBCMT:wcsnicmp.obj
 0002:0000cd84       $unwind$atexit             000000018004bd84     LIBCMT:onexit.obj
 0002:0000cd84       $unwind$__pctype_func      000000018004bd84     LIBCMT:ctype.obj
 0002:0000cd84       $unwind$_set_error_mode    000000018004bd84     LIBCMT:errmode.obj
 0002:0000cd84       $unwind$_wcsicmp           000000018004bd84     LIBCMT:wcsicmp.obj
 0002:0000cd84       $unwind$?_Reserve@?$vector@PEAUBind@@V?$allocator@PEAUBind@@@std@@@std@@IEAAX_K@Z 000000018004bd84     njsConnection.obj
 0002:0000cd84       $unwind$_copytlocinfo_nolock 000000018004bd84     LIBCMT:wsetloca.obj
 0002:0000cd84       $unwind$_GetImageBase      000000018004bd84     LIBCMT:trnsctrl.obj
 0002:0000cd84       $unwind$_invoke_watson     000000018004bd84     LIBCMT:invarg.obj
 0002:0000cd84       $unwind$??__Fclassic_locale@std@@YAXXZ 000000018004bd84     libcpmt:locale0.obj
 0002:0000cd84       $unwind$??__Finit_atexit@@YAXXZ 000000018004bd84     libcpmt:iosptrs.obj
 0002:0000cd84       $unwind$__FrameUnwindFilter 000000018004bd84     LIBCMT:frame.obj
 0002:0000cd84       $unwind$localeconv         000000018004bd84     LIBCMT:lconv.obj
 0002:0000cd84       $unwind$?_Locinfo_dtor@_Locinfo@std@@SAXPEAV12@@Z 000000018004bd84     libcpmt:locale0.obj
 0002:0000cd84       $unwind$?breakExecution@ConnImpl@@UEAAXXZ 000000018004bd84     dpiConnImpl.obj
 0002:0000cd84       $unwind$??8type_info@@QEBA_NAEBV0@@Z 000000018004bd84     LIBCMT:typinfo.obj
 0002:0000cd84       $unwind$_stricmp           000000018004bd84     LIBCMT:stricmp.obj
 0002:0000cd84       $unwind$___lc_codepage_func 000000018004bd84     LIBCMT:initctyp.obj
 0002:0000cd84       $unwind$___lc_locale_name_func 000000018004bd84     LIBCMT:initctyp.obj
 0002:0000cd84       $unwind$__crtIsValidLocaleName 000000018004bd84     LIBCMT:winapinls.obj
 0002:0000cd84       $unwind$__report_rangecheckfailure 000000018004bd84     LIBCMT:gs_report.obj
 0002:0000cd8c       $unwind$?_Getcat@?$ctype@D@std@@SA_KPEAPEBVfacet@locale@2@PEBV42@@Z 000000018004bd8c     njsOracle.obj
 0002:0000cdac       $stateUnwindMap$?_Getcat@?$ctype@D@std@@SA_KPEAPEBVfacet@locale@2@PEBV42@@Z 000000018004bdac     njsOracle.obj
 0002:0000cdb8       $ip2state$?_Getcat@?$ctype@D@std@@SA_KPEAPEBVfacet@locale@2@PEBV42@@Z 000000018004bdb8     njsOracle.obj
 0002:0000cdd0       $unwind$?do_toupper@?$ctype@D@std@@MEBAPEBDPEADPEBD@Z 000000018004bdd0     njsOracle.obj
 0002:0000cdd0       $unwind$ProcessCodePage    000000018004bdd0     LIBCMT:getqloc_downlevel.obj
 0002:0000cdd0       $unwind$ProcessCodePage    000000018004bdd0     LIBCMT:getqloc.obj
 0002:0000cdd0       $unwind$?do_tolower@?$ctype@D@std@@MEBAPEBDPEADPEBD@Z 000000018004bdd0     njsOracle.obj
 0002:0000cdd0       $unwind$?_Reallocate@?$vector@PEAUBind@@V?$allocator@PEAUBind@@@std@@@std@@IEAAX_K@Z 000000018004bdd0     njsConnection.obj
 0002:0000cde0       $chain$0$?do_tolower@?$ctype@D@std@@MEBAPEBDPEADPEBD@Z 000000018004bde0     njsOracle.obj
 0002:0000cdf4       $chain$1$?do_tolower@?$ctype@D@std@@MEBAPEBDPEADPEBD@Z 000000018004bdf4     njsOracle.obj
 0002:0000ce04       $chain$0$?do_toupper@?$ctype@D@std@@MEBAPEBDPEADPEBD@Z 000000018004be04     njsOracle.obj
 0002:0000ce18       $chain$1$?do_toupper@?$ctype@D@std@@MEBAPEBDPEADPEBD@Z 000000018004be18     njsOracle.obj
 0002:0000ce28       $unwind$?_Makestr@_System_error@std@@CA?AV?$basic_string@DU?$char_traits@D@std@@V?$allocator@D@2@@2@Verror_code@2@V32@@Z 000000018004be28     njsOracle.obj
 0002:0000ce40       $stateUnwindMap$?_Makestr@_System_error@std@@CA?AV?$basic_string@DU?$char_traits@D@std@@V?$allocator@D@2@@2@Verror_code@2@V32@@Z 000000018004be40     njsOracle.obj
 0002:0000ce50       $ip2state$?_Makestr@_System_error@std@@CA?AV?$basic_string@DU?$char_traits@D@std@@V?$allocator@D@2@@2@Verror_code@2@V32@@Z 000000018004be50     njsOracle.obj
 0002:0000ce78       $unwind$??0system_error@std@@QEAA@Verror_code@1@PEBD@Z 000000018004be78     njsOracle.obj
 0002:0000ce98       $stateUnwindMap$??0system_error@std@@QEAA@Verror_code@1@PEBD@Z 000000018004be98     njsOracle.obj
 0002:0000cea0       $ip2state$??0system_error@std@@QEAA@Verror_code@1@PEBD@Z 000000018004bea0     njsOracle.obj
 0002:0000ceb8       $unwind$?clear@ios_base@std@@QEAAXH_N@Z 000000018004beb8     njsOracle.obj
 0002:0000cec8       $stateUnwindMap$?clear@ios_base@std@@QEAAXH_N@Z 000000018004bec8     njsOracle.obj
 0002:0000cee0       $ip2state$?clear@ios_base@std@@QEAAXH_N@Z 000000018004bee0     njsOracle.obj
 0002:0000cf18       $unwind$?_Init@ios_base@std@@IEAAXXZ 000000018004bf18     njsOracle.obj
 0002:0000cf30       $stateUnwindMap$?_Init@ios_base@std@@IEAAXXZ 000000018004bf30     njsOracle.obj
 0002:0000cf30       $stateUnwindMap$?New@Oracledb@@CAXAEBV?$FunctionCallbackInfo@VValue@v8@@@Nan@@@Z 000000018004bf30     njsOracle.obj
 0002:0000cf30       $stateUnwindMap$??0?$basic_streambuf@DU?$char_traits@D@std@@@std@@IEAA@XZ 000000018004bf30     njsOracle.obj
 0002:0000cf38       $ip2state$?_Init@ios_base@std@@IEAAXXZ 000000018004bf38     njsOracle.obj
 0002:0000cf50       $unwind$_setargv           000000018004bf50     LIBCMT:stdargv.obj
 0002:0000cf50       $unwind$?FunctionCallbackWrapper@imp@Nan@@YAXAEBV?$FunctionCallbackInfo@VValue@v8@@@v8@@@Z 000000018004bf50     njsOracle.obj
 0002:0000cf60       $unwind$?GetterCallbackWrapper@imp@Nan@@YAXV?$Local@VName@v8@@@v8@@AEBV?$PropertyCallbackInfo@VValue@v8@@@4@@Z 000000018004bf60     njsOracle.obj
 0002:0000cf6c       $unwind$?SetterCallbackWrapper@imp@Nan@@YAXV?$Local@VName@v8@@@v8@@V?$Local@VValue@v8@@@4@AEBV?$PropertyCallbackInfo@X@4@@Z 000000018004bf6c     njsOracle.obj
 0002:0000cf78       $unwind$?New@?$Factory@VFunctionTemplate@v8@@@imp@Nan@@SA?AV?$Local@VFunctionTemplate@v8@@@v8@@P6AXAEBV?$FunctionCallbackInfo@VValue@v8@@@3@@ZV?$Local@VValue@v8@@@5@V?$Local@VSignature@v8@@@5@@Z 000000018004bf78     njsOracle.obj
 0002:0000cf90       $stateUnwindMap$?New@?$Factory@VFunctionTemplate@v8@@@imp@Nan@@SA?AV?$Local@VFunctionTemplate@v8@@@v8@@P6AXAEBV?$FunctionCallbackInfo@VValue@v8@@@3@@ZV?$Local@VValue@v8@@@5@V?$Local@VSignature@v8@@@5@@Z 000000018004bf90     njsOracle.obj
 0002:0000cf98       $ip2state$?New@?$Factory@VFunctionTemplate@v8@@@imp@Nan@@SA?AV?$Local@VFunctionTemplate@v8@@@v8@@P6AXAEBV?$FunctionCallbackInfo@VValue@v8@@@3@@ZV?$Local@VValue@v8@@@5@V?$Local@VSignature@v8@@@5@@Z 000000018004bf98     njsOracle.obj
 0002:0000cfb0       $unwind$?SetAccessor@Nan@@YAXV?$Local@VObjectTemplate@v8@@@v8@@V?$Local@VString@v8@@@3@P6AX1AEBV?$PropertyCallbackInfo@VValue@v8@@@1@@ZP6AX1V?$Local@VValue@v8@@@3@AEBV?$PropertyCallbackInfo@X@1@@Z4W4AccessControl@3@W4PropertyAttribute@3@V?$Local@VAccessorSignature@v8@@@3@@Z 000000018004bfb0     njsOracle.obj
 0002:0000cfc8       $stateUnwindMap$?GetMetaData@Connection@@SA?AV?$Local@VValue@v8@@@v8@@PEAV?$basic_string@DU?$char_traits@D@std@@V?$allocator@D@2@@std@@I@Z 000000018004bfc8     njsConnection.obj
 0002:0000cfc8       $stateUnwindMap$?SetAccessor@Nan@@YAXV?$Local@VObjectTemplate@v8@@@v8@@V?$Local@VString@v8@@@3@P6AX1AEBV?$PropertyCallbackInfo@VValue@v8@@@1@@ZP6AX1V?$Local@VValue@v8@@@3@AEBV?$PropertyCallbackInfo@X@1@@Z4W4AccessControl@3@W4PropertyAttribute@3@V?$Local@VAccessorSignature@v8@@@3@@Z 000000018004bfc8     njsOracle.obj
 0002:0000cfd0       $ip2state$?SetAccessor@Nan@@YAXV?$Local@VObjectTemplate@v8@@@v8@@V?$Local@VString@v8@@@3@P6AX1AEBV?$PropertyCallbackInfo@VValue@v8@@@1@@ZP6AX1V?$Local@VValue@v8@@@3@AEBV?$PropertyCallbackInfo@X@1@@Z4W4AccessControl@3@W4PropertyAttribute@3@V?$Local@VAccessorSignature@v8@@@3@@Z 000000018004bfd0     njsOracle.obj
 0002:0000cfe8       $unwind$??1ObjectWrap@Nan@@UEAA@XZ 000000018004bfe8     njsOracle.obj
 0002:0000cff8       $stateUnwindMap$??1ObjectWrap@Nan@@UEAA@XZ 000000018004bff8     njsOracle.obj
 0002:0000d000       $ip2state$??1ObjectWrap@Nan@@UEAA@XZ 000000018004c000     njsOracle.obj
 0002:0000d018       $unwind$?Wrap@ObjectWrap@Nan@@IEAAXV?$Local@VObject@v8@@@v8@@@Z 000000018004c018     njsOracle.obj
 0002:0000d024       $unwind$??0connectionBaton@@QEAA@V?$Local@VFunction@v8@@@v8@@@Z 000000018004c024     njsOracle.obj
 0002:0000d03c       $stateUnwindMap$??1connectionBaton@@QEAA@XZ 000000018004c03c     njsOracle.obj
 0002:0000d03c       $stateUnwindMap$??0connectionBaton@@QEAA@V?$Local@VFunction@v8@@@v8@@@Z 000000018004c03c     njsOracle.obj
 0002:0000d070       $ip2state$??0connectionBaton@@QEAA@V?$Local@VFunction@v8@@@v8@@@Z 000000018004c070     njsOracle.obj
 0002:0000d0b0       $unwind$??1connectionBaton@@QEAA@XZ 000000018004c0b0     njsOracle.obj
 0002:0000d0c8       $ip2state$??1connectionBaton@@QEAA@XZ 000000018004c0c8     njsOracle.obj
 0002:0000d100       $unwind$??0Oracledb@@AEAA@XZ 000000018004c100     njsOracle.obj
 0002:0000d120       $stateUnwindMap$??0Oracledb@@AEAA@XZ 000000018004c120     njsOracle.obj
 0002:0000d150       $ip2state$??0Oracledb@@AEAA@XZ 000000018004c150     njsOracle.obj
 0002:0000d198       $unwind$??1Oracledb@@EEAA@XZ 000000018004c198     njsOracle.obj
 0002:0000d1ac       $stateUnwindMap$??1Oracledb@@EEAA@XZ 000000018004c1ac     njsOracle.obj
 0002:0000d1d0       $ip2state$??1Oracledb@@EEAA@XZ 000000018004c1d0     njsOracle.obj
 0002:0000d200       $unwind$?driverName@Oracledb@@AEBA?BV?$basic_string@DU?$char_traits@D@std@@V?$allocator@D@2@@std@@XZ 000000018004c200     njsOracle.obj
 0002:0000d214       $stateUnwindMap$?driverName@Oracledb@@AEBA?BV?$basic_string@DU?$char_traits@D@std@@V?$allocator@D@2@@std@@XZ 000000018004c214     njsOracle.obj
 0002:0000d220       $ip2state$?driverName@Oracledb@@AEBA?BV?$basic_string@DU?$char_traits@D@std@@V?$allocator@D@2@@std@@XZ 000000018004c220     njsOracle.obj
 0002:0000d238       $unwind$?Init@Oracledb@@SAXV?$Local@VObject@v8@@@v8@@@Z 000000018004c238     njsOracle.obj
 0002:0000d254       $stateUnwindMap$?Init@Oracledb@@SAXV?$Local@VObject@v8@@@v8@@@Z 000000018004c254     njsOracle.obj
 0002:0000d254       $stateUnwindMap$?Init@Pool@@SAXV?$Local@VObject@v8@@@v8@@@Z 000000018004c254     njsPool.obj
 0002:0000d270       $ip2state$?Init@Oracledb@@SAXV?$Local@VObject@v8@@@v8@@@Z 000000018004c270     njsOracle.obj
 0002:0000d2a8       $unwind$?New@Oracledb@@CAXAEBV?$FunctionCallbackInfo@VValue@v8@@@Nan@@@Z 000000018004c2a8     njsOracle.obj
 0002:0000d2c0       $ip2state$?New@Oracledb@@CAXAEBV?$FunctionCallbackInfo@VValue@v8@@@Nan@@@Z 000000018004c2c0     njsOracle.obj
 0002:0000d2d8       $unwind$?GetPoolMin@Oracledb@@CAXV?$Local@VString@v8@@@v8@@AEBV?$PropertyCallbackInfo@VValue@v8@@@Nan@@@Z 000000018004c2d8     njsOracle.obj
 0002:0000d2f4       $stateUnwindMap$?GetPrefetchRows@Oracledb@@CAXV?$Local@VString@v8@@@v8@@AEBV?$PropertyCallbackInfo@VValue@v8@@@Nan@@@Z 000000018004c2f4     njsOracle.obj
 0002:0000d2f4       $stateUnwindMap$?SetChunkSize@ILob@@CAXV?$Local@VString@v8@@@v8@@V?$Local@VValue@v8@@@3@AEBV?$PropertyCallbackInfo@X@Nan@@@Z 000000018004c2f4     njsIntLob.obj
 0002:0000d2f4       $stateUnwindMap$?GetOracleClientVersion@Oracledb@@CAXV?$Local@VString@v8@@@v8@@AEBV?$PropertyCallbackInfo@VValue@v8@@@Nan@@@Z 000000018004c2f4     njsOracle.obj
 0002:0000d2f4       $stateUnwindMap$?GetPoolMin@Oracledb@@CAXV?$Local@VString@v8@@@v8@@AEBV?$PropertyCallbackInfo@VValue@v8@@@Nan@@@Z 000000018004c2f4     njsOracle.obj
 0002:0000d2f4       $stateUnwindMap$?GetAutoCommit@Oracledb@@CAXV?$Local@VString@v8@@@v8@@AEBV?$PropertyCallbackInfo@VValue@v8@@@Nan@@@Z 000000018004c2f4     njsOracle.obj
 0002:0000d2f4       $stateUnwindMap$?GetPoolMin@Pool@@CAXV?$Local@VString@v8@@@v8@@AEBV?$PropertyCallbackInfo@VValue@v8@@@Nan@@@Z 000000018004c2f4     njsPool.obj
 0002:0000d2f4       $stateUnwindMap$?GetOutFormat@Oracledb@@CAXV?$Local@VString@v8@@@v8@@AEBV?$PropertyCallbackInfo@VValue@v8@@@Nan@@@Z 000000018004c2f4     njsOracle.obj
 0002:0000d2f4       $stateUnwindMap$?SetStmtCacheSize@Connection@@CAXV?$Local@VString@v8@@@v8@@V?$Local@VValue@v8@@@3@AEBV?$PropertyCallbackInfo@X@Nan@@@Z 000000018004c2f4     njsConnection.obj
 0002:0000d2f4       $stateUnwindMap$?GetPoolTimeout@Oracledb@@CAXV?$Local@VString@v8@@@v8@@AEBV?$PropertyCallbackInfo@VValue@v8@@@Nan@@@Z 000000018004c2f4     njsOracle.obj
 0002:0000d2f4       $stateUnwindMap$?SetLength@ILob@@CAXV?$Local@VString@v8@@@v8@@V?$Local@VValue@v8@@@3@AEBV?$PropertyCallbackInfo@X@Nan@@@Z 000000018004c2f4     njsIntLob.obj
 0002:0000d2f4       $stateUnwindMap$?GetPoolMax@Oracledb@@CAXV?$Local@VString@v8@@@v8@@AEBV?$PropertyCallbackInfo@VValue@v8@@@Nan@@@Z 000000018004c2f4     njsOracle.obj
 0002:0000d2f4       $stateUnwindMap$?SetType@ILob@@CAXV?$Local@VString@v8@@@v8@@V?$Local@VValue@v8@@@3@AEBV?$PropertyCallbackInfo@X@Nan@@@Z 000000018004c2f4     njsIntLob.obj
 0002:0000d2f4       $stateUnwindMap$?GetPoolTimeout@Pool@@CAXV?$Local@VString@v8@@@v8@@AEBV?$PropertyCallbackInfo@VValue@v8@@@Nan@@@Z 000000018004c2f4     njsPool.obj
 0002:0000d2f4       $stateUnwindMap$?SetExternalAuth@Oracledb@@CAXV?$Local@VString@v8@@@v8@@V?$Local@VValue@v8@@@3@AEBV?$PropertyCallbackInfo@X@Nan@@@Z 000000018004c2f4     njsOracle.obj
 0002:0000d2f4       $stateUnwindMap$?GetMaxRows@Oracledb@@CAXV?$Local@VString@v8@@@v8@@AEBV?$PropertyCallbackInfo@VValue@v8@@@Nan@@@Z 000000018004c2f4     njsOracle.obj
 0002:0000d2f4       $stateUnwindMap$?SetAutoCommit@Oracledb@@CAXV?$Local@VString@v8@@@v8@@V?$Local@VValue@v8@@@3@AEBV?$PropertyCallbackInfo@X@Nan@@@Z 000000018004c2f4     njsOracle.obj
 0002:0000d2f4       $stateUnwindMap$?GetStmtCacheSize@Oracledb@@CAXV?$Local@VString@v8@@@v8@@AEBV?$PropertyCallbackInfo@VValue@v8@@@Nan@@@Z 000000018004c2f4     njsOracle.obj
 0002:0000d2f4       $stateUnwindMap$?GetExternalAuth@Oracledb@@CAXV?$Local@VString@v8@@@v8@@AEBV?$PropertyCallbackInfo@VValue@v8@@@Nan@@@Z 000000018004c2f4     njsOracle.obj
 0002:0000d2f4       $stateUnwindMap$?GetLobPrefetchSize@Oracledb@@CAXV?$Local@VString@v8@@@v8@@AEBV?$PropertyCallbackInfo@VValue@v8@@@Nan@@@Z 000000018004c2f4     njsOracle.obj
 0002:0000d2f4       $stateUnwindMap$?GetPoolMax@Pool@@CAXV?$Local@VString@v8@@@v8@@AEBV?$PropertyCallbackInfo@VValue@v8@@@Nan@@@Z 000000018004c2f4     njsPool.obj
 0002:0000d2f4       $stateUnwindMap$?GetPoolIncrement@Oracledb@@CAXV?$Local@VString@v8@@@v8@@AEBV?$PropertyCallbackInfo@VValue@v8@@@Nan@@@Z 000000018004c2f4     njsOracle.obj
 0002:0000d2f4       $stateUnwindMap$?SetOracleServerVersion@Connection@@CAXV?$Local@VString@v8@@@v8@@V?$Local@VValue@v8@@@3@AEBV?$PropertyCallbackInfo@X@Nan@@@Z 000000018004c2f4     njsConnection.obj
 0002:0000d2f4       $stateUnwindMap$?GetStmtCacheSize@Pool@@CAXV?$Local@VString@v8@@@v8@@AEBV?$PropertyCallbackInfo@VValue@v8@@@Nan@@@Z 000000018004c2f4     njsPool.obj
 0002:0000d2f4       $stateUnwindMap$?GetPoolIncrement@Pool@@CAXV?$Local@VString@v8@@@v8@@AEBV?$PropertyCallbackInfo@VValue@v8@@@Nan@@@Z 000000018004c2f4     njsPool.obj
 0002:0000d2f4       $stateUnwindMap$?GetConnectionClass@Oracledb@@CAXV?$Local@VString@v8@@@v8@@AEBV?$PropertyCallbackInfo@VValue@v8@@@Nan@@@Z 000000018004c2f4     njsOracle.obj
 0002:0000d308       $ip2state$?GetPoolMin@Oracledb@@CAXV?$Local@VString@v8@@@v8@@AEBV?$PropertyCallbackInfo@VValue@v8@@@Nan@@@Z 000000018004c308     njsOracle.obj
 0002:0000d330       $unwind$?SetPoolMin@Oracledb@@CAXV?$Local@VString@v8@@@v8@@V?$Local@VValue@v8@@@3@AEBV?$PropertyCallbackInfo@X@Nan@@@Z 000000018004c330     njsOracle.obj
 0002:0000d34c       $stateUnwindMap$?SetLobPrefetchSize@Oracledb@@CAXV?$Local@VString@v8@@@v8@@V?$Local@VValue@v8@@@3@AEBV?$PropertyCallbackInfo@X@Nan@@@Z 000000018004c34c     njsOracle.obj
 0002:0000d34c       $stateUnwindMap$?SetMaxRows@Oracledb@@CAXV?$Local@VString@v8@@@v8@@V?$Local@VValue@v8@@@3@AEBV?$PropertyCallbackInfo@X@Nan@@@Z 000000018004c34c     njsOracle.obj
 0002:0000d34c       $stateUnwindMap$?SetPoolIncrement@Oracledb@@CAXV?$Local@VString@v8@@@v8@@V?$Local@VValue@v8@@@3@AEBV?$PropertyCallbackInfo@X@Nan@@@Z 000000018004c34c     njsOracle.obj
 0002:0000d34c       $stateUnwindMap$?SetPoolMin@Oracledb@@CAXV?$Local@VString@v8@@@v8@@V?$Local@VValue@v8@@@3@AEBV?$PropertyCallbackInfo@X@Nan@@@Z 000000018004c34c     njsOracle.obj
 0002:0000d34c       $stateUnwindMap$?SetPrefetchRows@Oracledb@@CAXV?$Local@VString@v8@@@v8@@V?$Local@VValue@v8@@@3@AEBV?$PropertyCallbackInfo@X@Nan@@@Z 000000018004c34c     njsOracle.obj
 0002:0000d34c       $stateUnwindMap$?SetPoolMax@Oracledb@@CAXV?$Local@VString@v8@@@v8@@V?$Local@VValue@v8@@@3@AEBV?$PropertyCallbackInfo@X@Nan@@@Z 000000018004c34c     njsOracle.obj
 0002:0000d34c       $stateUnwindMap$?SetOutFormat@Oracledb@@CAXV?$Local@VString@v8@@@v8@@V?$Local@VValue@v8@@@3@AEBV?$PropertyCallbackInfo@X@Nan@@@Z 000000018004c34c     njsOracle.obj
 0002:0000d34c       $stateUnwindMap$?SetStmtCacheSize@Oracledb@@CAXV?$Local@VString@v8@@@v8@@V?$Local@VValue@v8@@@3@AEBV?$PropertyCallbackInfo@X@Nan@@@Z 000000018004c34c     njsOracle.obj
 0002:0000d34c       $stateUnwindMap$?SetPoolTimeout@Oracledb@@CAXV?$Local@VString@v8@@@v8@@V?$Local@VValue@v8@@@3@AEBV?$PropertyCallbackInfo@X@Nan@@@Z 000000018004c34c     njsOracle.obj
 0002:0000d370       $ip2state$?SetPoolMin@Oracledb@@CAXV?$Local@VString@v8@@@v8@@V?$Local@VValue@v8@@@3@AEBV?$PropertyCallbackInfo@X@Nan@@@Z 000000018004c370     njsOracle.obj
 0002:0000d3b8       $unwind$?GetPoolMax@Oracledb@@CAXV?$Local@VString@v8@@@v8@@AEBV?$PropertyCallbackInfo@VValue@v8@@@Nan@@@Z 000000018004c3b8     njsOracle.obj
 0002:0000d3d8       $ip2state$?GetPoolMax@Oracledb@@CAXV?$Local@VString@v8@@@v8@@AEBV?$PropertyCallbackInfo@VValue@v8@@@Nan@@@Z 000000018004c3d8     njsOracle.obj
 0002:0000d400       $unwind$?SetPoolMax@Oracledb@@CAXV?$Local@VString@v8@@@v8@@V?$Local@VValue@v8@@@3@AEBV?$PropertyCallbackInfo@X@Nan@@@Z 000000018004c400     njsOracle.obj
 0002:0000d420       $ip2state$?SetPoolMax@Oracledb@@CAXV?$Local@VString@v8@@@v8@@V?$Local@VValue@v8@@@3@AEBV?$PropertyCallbackInfo@X@Nan@@@Z 000000018004c420     njsOracle.obj
 0002:0000d468       $unwind$?GetPoolIncrement@Oracledb@@CAXV?$Local@VString@v8@@@v8@@AEBV?$PropertyCallbackInfo@VValue@v8@@@Nan@@@Z 000000018004c468     njsOracle.obj
 0002:0000d488       $ip2state$?GetPoolIncrement@Oracledb@@CAXV?$Local@VString@v8@@@v8@@AEBV?$PropertyCallbackInfo@VValue@v8@@@Nan@@@Z 000000018004c488     njsOracle.obj
 0002:0000d4b0       $unwind$?SetPoolIncrement@Oracledb@@CAXV?$Local@VString@v8@@@v8@@V?$Local@VValue@v8@@@3@AEBV?$PropertyCallbackInfo@X@Nan@@@Z 000000018004c4b0     njsOracle.obj
 0002:0000d4d0       $ip2state$?SetPoolIncrement@Oracledb@@CAXV?$Local@VString@v8@@@v8@@V?$Local@VValue@v8@@@3@AEBV?$PropertyCallbackInfo@X@Nan@@@Z 000000018004c4d0     njsOracle.obj
 0002:0000d518       $unwind$?GetPoolTimeout@Oracledb@@CAXV?$Local@VString@v8@@@v8@@AEBV?$PropertyCallbackInfo@VValue@v8@@@Nan@@@Z 000000018004c518     njsOracle.obj
 0002:0000d538       $ip2state$?GetPoolTimeout@Oracledb@@CAXV?$Local@VString@v8@@@v8@@AEBV?$PropertyCallbackInfo@VValue@v8@@@Nan@@@Z 000000018004c538     njsOracle.obj
 0002:0000d560       $unwind$?SetPoolTimeout@Oracledb@@CAXV?$Local@VString@v8@@@v8@@V?$Local@VValue@v8@@@3@AEBV?$PropertyCallbackInfo@X@Nan@@@Z 000000018004c560     njsOracle.obj
 0002:0000d580       $ip2state$?SetPoolTimeout@Oracledb@@CAXV?$Local@VString@v8@@@v8@@V?$Local@VValue@v8@@@3@AEBV?$PropertyCallbackInfo@X@Nan@@@Z 000000018004c580     njsOracle.obj
 0002:0000d5c8       $unwind$?GetMaxRows@Oracledb@@CAXV?$Local@VString@v8@@@v8@@AEBV?$PropertyCallbackInfo@VValue@v8@@@Nan@@@Z 000000018004c5c8     njsOracle.obj
 0002:0000d5e8       $ip2state$?GetMaxRows@Oracledb@@CAXV?$Local@VString@v8@@@v8@@AEBV?$PropertyCallbackInfo@VValue@v8@@@Nan@@@Z 000000018004c5e8     njsOracle.obj
 0002:0000d610       $unwind$?SetMaxRows@Oracledb@@CAXV?$Local@VString@v8@@@v8@@V?$Local@VValue@v8@@@3@AEBV?$PropertyCallbackInfo@X@Nan@@@Z 000000018004c610     njsOracle.obj
 0002:0000d630       $ip2state$?SetMaxRows@Oracledb@@CAXV?$Local@VString@v8@@@v8@@V?$Local@VValue@v8@@@3@AEBV?$PropertyCallbackInfo@X@Nan@@@Z 000000018004c630     njsOracle.obj
 0002:0000d678       $unwind$?GetOutFormat@Oracledb@@CAXV?$Local@VString@v8@@@v8@@AEBV?$PropertyCallbackInfo@VValue@v8@@@Nan@@@Z 000000018004c678     njsOracle.obj
 0002:0000d698       $ip2state$?GetOutFormat@Oracledb@@CAXV?$Local@VString@v8@@@v8@@AEBV?$PropertyCallbackInfo@VValue@v8@@@Nan@@@Z 000000018004c698     njsOracle.obj
 0002:0000d6c0       $unwind$?SetOutFormat@Oracledb@@CAXV?$Local@VString@v8@@@v8@@V?$Local@VValue@v8@@@3@AEBV?$PropertyCallbackInfo@X@Nan@@@Z 000000018004c6c0     njsOracle.obj
 0002:0000d6e0       $ip2state$?SetOutFormat@Oracledb@@CAXV?$Local@VString@v8@@@v8@@V?$Local@VValue@v8@@@3@AEBV?$PropertyCallbackInfo@X@Nan@@@Z 000000018004c6e0     njsOracle.obj
 0002:0000d728       $unwind$?GetStmtCacheSize@Oracledb@@CAXV?$Local@VString@v8@@@v8@@AEBV?$PropertyCallbackInfo@VValue@v8@@@Nan@@@Z 000000018004c728     njsOracle.obj
 0002:0000d748       $ip2state$?GetStmtCacheSize@Oracledb@@CAXV?$Local@VString@v8@@@v8@@AEBV?$PropertyCallbackInfo@VValue@v8@@@Nan@@@Z 000000018004c748     njsOracle.obj
 0002:0000d770       $unwind$?SetStmtCacheSize@Oracledb@@CAXV?$Local@VString@v8@@@v8@@V?$Local@VValue@v8@@@3@AEBV?$PropertyCallbackInfo@X@Nan@@@Z 000000018004c770     njsOracle.obj
 0002:0000d790       $ip2state$?SetStmtCacheSize@Oracledb@@CAXV?$Local@VString@v8@@@v8@@V?$Local@VValue@v8@@@3@AEBV?$PropertyCallbackInfo@X@Nan@@@Z 000000018004c790     njsOracle.obj
 0002:0000d7d8       $unwind$?GetPrefetchRows@Oracledb@@CAXV?$Local@VString@v8@@@v8@@AEBV?$PropertyCallbackInfo@VValue@v8@@@Nan@@@Z 000000018004c7d8     njsOracle.obj
 0002:0000d7f8       $ip2state$?GetPrefetchRows@Oracledb@@CAXV?$Local@VString@v8@@@v8@@AEBV?$PropertyCallbackInfo@VValue@v8@@@Nan@@@Z 000000018004c7f8     njsOracle.obj
 0002:0000d820       $unwind$?SetPrefetchRows@Oracledb@@CAXV?$Local@VString@v8@@@v8@@V?$Local@VValue@v8@@@3@AEBV?$PropertyCallbackInfo@X@Nan@@@Z 000000018004c820     njsOracle.obj
 0002:0000d840       $ip2state$?SetPrefetchRows@Oracledb@@CAXV?$Local@VString@v8@@@v8@@V?$Local@VValue@v8@@@3@AEBV?$PropertyCallbackInfo@X@Nan@@@Z 000000018004c840     njsOracle.obj
 0002:0000d888       $unwind$?GetAutoCommit@Oracledb@@CAXV?$Local@VString@v8@@@v8@@AEBV?$PropertyCallbackInfo@VValue@v8@@@Nan@@@Z 000000018004c888     njsOracle.obj
 0002:0000d8a8       $ip2state$?GetAutoCommit@Oracledb@@CAXV?$Local@VString@v8@@@v8@@AEBV?$PropertyCallbackInfo@VValue@v8@@@Nan@@@Z 000000018004c8a8     njsOracle.obj
 0002:0000d8d0       $unwind$?SetAutoCommit@Oracledb@@CAXV?$Local@VString@v8@@@v8@@V?$Local@VValue@v8@@@3@AEBV?$PropertyCallbackInfo@X@Nan@@@Z 000000018004c8d0     njsOracle.obj
 0002:0000d8e8       $ip2state$?SetAutoCommit@Oracledb@@CAXV?$Local@VString@v8@@@v8@@V?$Local@VValue@v8@@@3@AEBV?$PropertyCallbackInfo@X@Nan@@@Z 000000018004c8e8     njsOracle.obj
 0002:0000d910       $unwind$?SetVersion@Oracledb@@CAXV?$Local@VString@v8@@@v8@@V?$Local@VValue@v8@@@3@AEBV?$PropertyCallbackInfo@X@Nan@@@Z 000000018004c910     njsOracle.obj
 0002:0000d92c       $stateUnwindMap$?SetVersion@Oracledb@@CAXV?$Local@VString@v8@@@v8@@V?$Local@VValue@v8@@@3@AEBV?$PropertyCallbackInfo@X@Nan@@@Z 000000018004c92c     njsOracle.obj
 0002:0000d92c       $stateUnwindMap$?SetOracleClientVersion@Oracledb@@CAXV?$Local@VString@v8@@@v8@@V?$Local@VValue@v8@@@3@AEBV?$PropertyCallbackInfo@X@Nan@@@Z 000000018004c92c     njsOracle.obj
 0002:0000d940       $ip2state$?SetVersion@Oracledb@@CAXV?$Local@VString@v8@@@v8@@V?$Local@VValue@v8@@@3@AEBV?$PropertyCallbackInfo@X@Nan@@@Z 000000018004c940     njsOracle.obj
 0002:0000d968       $unwind$?GetConnectionClass@Oracledb@@CAXV?$Local@VString@v8@@@v8@@AEBV?$PropertyCallbackInfo@VValue@v8@@@Nan@@@Z 000000018004c968     njsOracle.obj
 0002:0000d988       $ip2state$?GetConnectionClass@Oracledb@@CAXV?$Local@VString@v8@@@v8@@AEBV?$PropertyCallbackInfo@VValue@v8@@@Nan@@@Z 000000018004c988     njsOracle.obj
 0002:0000d9b0       $unwind$?SetConnectionClass@Oracledb@@CAXV?$Local@VString@v8@@@v8@@V?$Local@VValue@v8@@@3@AEBV?$PropertyCallbackInfo@X@Nan@@@Z 000000018004c9b0     njsOracle.obj
 0002:0000d9cc       $stateUnwindMap$?SetConnectionClass@Oracledb@@CAXV?$Local@VString@v8@@@v8@@V?$Local@VValue@v8@@@3@AEBV?$PropertyCallbackInfo@X@Nan@@@Z 000000018004c9cc     njsOracle.obj
 0002:0000d9e8       $ip2state$?SetConnectionClass@Oracledb@@CAXV?$Local@VString@v8@@@v8@@V?$Local@VValue@v8@@@3@AEBV?$PropertyCallbackInfo@X@Nan@@@Z 000000018004c9e8     njsOracle.obj
 0002:0000da20       $unwind$?GetExternalAuth@Oracledb@@CAXV?$Local@VString@v8@@@v8@@AEBV?$PropertyCallbackInfo@VValue@v8@@@Nan@@@Z 000000018004ca20     njsOracle.obj
 0002:0000da40       $ip2state$?GetExternalAuth@Oracledb@@CAXV?$Local@VString@v8@@@v8@@AEBV?$PropertyCallbackInfo@VValue@v8@@@Nan@@@Z 000000018004ca40     njsOracle.obj
 0002:0000da68       $unwind$?SetExternalAuth@Oracledb@@CAXV?$Local@VString@v8@@@v8@@V?$Local@VValue@v8@@@3@AEBV?$PropertyCallbackInfo@X@Nan@@@Z 000000018004ca68     njsOracle.obj
 0002:0000da80       $ip2state$?SetExternalAuth@Oracledb@@CAXV?$Local@VString@v8@@@v8@@V?$Local@VValue@v8@@@3@AEBV?$PropertyCallbackInfo@X@Nan@@@Z 000000018004ca80     njsOracle.obj
 0002:0000daa8       $unwind$?GetLobPrefetchSize@Oracledb@@CAXV?$Local@VString@v8@@@v8@@AEBV?$PropertyCallbackInfo@VValue@v8@@@Nan@@@Z 000000018004caa8     njsOracle.obj
 0002:0000dac8       $ip2state$?GetLobPrefetchSize@Oracledb@@CAXV?$Local@VString@v8@@@v8@@AEBV?$PropertyCallbackInfo@VValue@v8@@@Nan@@@Z 000000018004cac8     njsOracle.obj
 0002:0000daf0       $unwind$?SetLobPrefetchSize@Oracledb@@CAXV?$Local@VString@v8@@@v8@@V?$Local@VValue@v8@@@3@AEBV?$PropertyCallbackInfo@X@Nan@@@Z 000000018004caf0     njsOracle.obj
 0002:0000db10       $ip2state$?SetLobPrefetchSize@Oracledb@@CAXV?$Local@VString@v8@@@v8@@V?$Local@VValue@v8@@@3@AEBV?$PropertyCallbackInfo@X@Nan@@@Z 000000018004cb10     njsOracle.obj
 0002:0000db58       $unwind$?GetFetchAsString@Oracledb@@CAXV?$Local@VString@v8@@@v8@@AEBV?$PropertyCallbackInfo@VValue@v8@@@Nan@@@Z 000000018004cb58     njsOracle.obj
 0002:0000db80       $stateUnwindMap$?GetFetchAsString@Oracledb@@CAXV?$Local@VString@v8@@@v8@@AEBV?$PropertyCallbackInfo@VValue@v8@@@Nan@@@Z 000000018004cb80     njsOracle.obj
 0002:0000db90       $ip2state$?GetFetchAsString@Oracledb@@CAXV?$Local@VString@v8@@@v8@@AEBV?$PropertyCallbackInfo@VValue@v8@@@Nan@@@Z 000000018004cb90     njsOracle.obj
 0002:0000dbb8       $unwind$?SetFetchAsString@Oracledb@@CAXV?$Local@VString@v8@@@v8@@V?$Local@VValue@v8@@@3@AEBV?$PropertyCallbackInfo@X@Nan@@@Z 000000018004cbb8     njsOracle.obj
 0002:0000dbe0       $stateUnwindMap$?SetFetchAsString@Oracledb@@CAXV?$Local@VString@v8@@@v8@@V?$Local@VValue@v8@@@3@AEBV?$PropertyCallbackInfo@X@Nan@@@Z 000000018004cbe0     njsOracle.obj
 0002:0000dc10       $ip2state$?SetFetchAsString@Oracledb@@CAXV?$Local@VString@v8@@@v8@@V?$Local@VValue@v8@@@3@AEBV?$PropertyCallbackInfo@X@Nan@@@Z 000000018004cc10     njsOracle.obj
 0002:0000dc68       $unwind$?GetOracleClientVersion@Oracledb@@CAXV?$Local@VString@v8@@@v8@@AEBV?$PropertyCallbackInfo@VValue@v8@@@Nan@@@Z 000000018004cc68     njsOracle.obj
 0002:0000dc88       $ip2state$?GetOracleClientVersion@Oracledb@@CAXV?$Local@VString@v8@@@v8@@AEBV?$PropertyCallbackInfo@VValue@v8@@@Nan@@@Z 000000018004cc88     njsOracle.obj
 0002:0000dcb0       $unwind$?SetOracleClientVersion@Oracledb@@CAXV?$Local@VString@v8@@@v8@@V?$Local@VValue@v8@@@3@AEBV?$PropertyCallbackInfo@X@Nan@@@Z 000000018004ccb0     njsOracle.obj
 0002:0000dcd0       $ip2state$?SetOracleClientVersion@Oracledb@@CAXV?$Local@VString@v8@@@v8@@V?$Local@VValue@v8@@@3@AEBV?$PropertyCallbackInfo@X@Nan@@@Z 000000018004ccd0     njsOracle.obj
 0002:0000dcf8       $unwind$?GetConnection@Oracledb@@CAXAEBV?$FunctionCallbackInfo@VValue@v8@@@Nan@@@Z 000000018004ccf8     njsOracle.obj
 0002:0000dd24       $stateUnwindMap$?GetConnection@Oracledb@@CAXAEBV?$FunctionCallbackInfo@VValue@v8@@@Nan@@@Z 000000018004cd24     njsOracle.obj
 0002:0000dd70       $ip2state$?GetConnection@Oracledb@@CAXAEBV?$FunctionCallbackInfo@VValue@v8@@@Nan@@@Z 000000018004cd70     njsOracle.obj
 0002:0000de08       $unwind$?Async_GetConnection@Oracledb@@CAXPEAUuv_work_s@@@Z 000000018004ce08     njsOracle.obj
 0002:0000de1c       $stateUnwindMap$?Async_GetConnection@Pool@@CAXPEAUuv_work_s@@@Z 000000018004ce1c     njsPool.obj
 0002:0000de1c       $stateUnwindMap$?Async_GetRows@ResultSet@@CAXPEAUuv_work_s@@@Z 000000018004ce1c     njsResultSet.obj
 0002:0000de1c       $stateUnwindMap$?Async_CreatePool@Oracledb@@CAXPEAUuv_work_s@@@Z 000000018004ce1c     njsOracle.obj
 0002:0000de1c       $stateUnwindMap$?Async_Write@ILob@@CAXPEAUuv_work_s@@@Z 000000018004ce1c     njsIntLob.obj
 0002:0000de1c       $stateUnwindMap$?Async_Terminate@Pool@@CAXPEAUuv_work_s@@@Z 000000018004ce1c     njsPool.obj
 0002:0000de1c       $stateUnwindMap$?Async_Read@ILob@@CAXPEAUuv_work_s@@@Z 000000018004ce1c     njsIntLob.obj
 0002:0000de1c       $stateUnwindMap$?Async_GetConnection@Oracledb@@CAXPEAUuv_work_s@@@Z 000000018004ce1c     njsOracle.obj
 0002:0000de1c       $stateUnwindMap$?setILob@ILob@@QEAAXPEAUeBaton@@PEAVProtoILob@@@Z 000000018004ce1c     njsIntLob.obj
 0002:0000de1c       $stateUnwindMap$?Async_Break@Connection@@CAXPEAUuv_work_s@@@Z 000000018004ce1c     njsConnection.obj
 0002:0000de1c       $stateUnwindMap$?Async_Commit@Connection@@CAXPEAUuv_work_s@@@Z 000000018004ce1c     njsConnection.obj
 0002:0000de1c       $stateUnwindMap$??0ProtoILob@@QEAA@PEAUeBaton@@PEAUDescriptor@dpi@@G@Z 000000018004ce1c     njsIntLob.obj
 0002:0000de1c       $stateUnwindMap$?Async_Close@ResultSet@@CAXPEAUuv_work_s@@@Z 000000018004ce1c     njsResultSet.obj
 0002:0000de1c       $stateUnwindMap$?Async_Rollback@Connection@@CAXPEAUuv_work_s@@@Z 000000018004ce1c     njsConnection.obj
 0002:0000de1c       $stateUnwindMap$?Async_Release@Connection@@CAXPEAUuv_work_s@@@Z 000000018004ce1c     njsConnection.obj
 0002:0000de2c       $tryMap$?Async_GetConnection@Oracledb@@CAXPEAUuv_work_s@@@Z 000000018004ce2c     njsOracle.obj
 0002:0000de40       $handlerMap$0$?Async_GetConnection@Oracledb@@CAXPEAUuv_work_s@@@Z 000000018004ce40     njsOracle.obj
 0002:0000de58       $ip2state$?Async_GetConnection@Oracledb@@CAXPEAUuv_work_s@@@Z 000000018004ce58     njsOracle.obj
 0002:0000de88       $unwind$?catch$0@?0??Async_GetConnection@Oracledb@@CAXPEAUuv_work_s@@@Z@4HA 000000018004ce88     njsOracle.obj
 0002:0000de98       $unwind$?Async_AfterGetConnection@Oracledb@@CAXPEAUuv_work_s@@@Z 000000018004ce98     njsOracle.obj
 0002:0000deb4       $stateUnwindMap$?Async_AfterRead@ILob@@CAXPEAUuv_work_s@@@Z 000000018004ceb4     njsIntLob.obj
 0002:0000deb4       $stateUnwindMap$?Async_AfterGetRows@ResultSet@@CAXPEAUuv_work_s@@@Z 000000018004ceb4     njsResultSet.obj
 0002:0000deb4       $stateUnwindMap$?Async_AfterGetConnection@Pool@@CAXPEAUuv_work_s@@@Z 000000018004ceb4     njsPool.obj
 0002:0000deb4       $stateUnwindMap$?Async_AfterGetConnection@Oracledb@@CAXPEAUuv_work_s@@@Z 000000018004ceb4     njsOracle.obj
 0002:0000deb4       $stateUnwindMap$?Async_AfterCreatePool@Oracledb@@CAXPEAUuv_work_s@@@Z 000000018004ceb4     njsOracle.obj
 0002:0000dec8       $ip2state$?Async_AfterGetConnection@Oracledb@@CAXPEAUuv_work_s@@@Z 000000018004cec8     njsOracle.obj
 0002:0000def0       $unwind$?CreatePool@Oracledb@@CAXAEBV?$FunctionCallbackInfo@VValue@v8@@@Nan@@@Z 000000018004cef0     njsOracle.obj
 0002:0000df1c       $stateUnwindMap$?CreatePool@Oracledb@@CAXAEBV?$FunctionCallbackInfo@VValue@v8@@@Nan@@@Z 000000018004cf1c     njsOracle.obj
 0002:0000df70       $ip2state$?CreatePool@Oracledb@@CAXAEBV?$FunctionCallbackInfo@VValue@v8@@@Nan@@@Z 000000018004cf70     njsOracle.obj
 0002:0000e018       $unwind$?Async_CreatePool@Oracledb@@CAXPEAUuv_work_s@@@Z 000000018004d018     njsOracle.obj
 0002:0000e030       $tryMap$?Async_CreatePool@Oracledb@@CAXPEAUuv_work_s@@@Z 000000018004d030     njsOracle.obj
 0002:0000e044       $handlerMap$0$?Async_CreatePool@Oracledb@@CAXPEAUuv_work_s@@@Z 000000018004d044     njsOracle.obj
 0002:0000e058       $ip2state$?Async_CreatePool@Oracledb@@CAXPEAUuv_work_s@@@Z 000000018004d058     njsOracle.obj
 0002:0000e088       $unwind$?catch$0@?0??Async_CreatePool@Oracledb@@CAXPEAUuv_work_s@@@Z@4HA 000000018004d088     njsOracle.obj
 0002:0000e098       $unwind$?Async_AfterCreatePool@Oracledb@@CAXPEAUuv_work_s@@@Z 000000018004d098     njsOracle.obj
 0002:0000e0b8       $ip2state$?Async_AfterCreatePool@Oracledb@@CAXPEAUuv_work_s@@@Z 000000018004d0b8     njsOracle.obj
 0002:0000e0e0       $unwind$??$Unwrap@VPool@@@ObjectWrap@Nan@@SAPEAVPool@@V?$Local@VObject@v8@@@v8@@@Z 000000018004d0e0     njsOracle.obj
 0002:0000e0e0       $unwind$??$Unwrap@VOracledb@@@ObjectWrap@Nan@@SAPEAVOracledb@@V?$Local@VObject@v8@@@v8@@@Z 000000018004d0e0     njsOracle.obj
 0002:0000e0e0       $unwind$??$Unwrap@VResultSet@@@ObjectWrap@Nan@@SAPEAVResultSet@@V?$Local@VObject@v8@@@v8@@@Z 000000018004d0e0     njsConnection.obj
 0002:0000e0e0       $unwind$init               000000018004d0e0     njsOracle.obj
 0002:0000e0e0       $unwind$??$Unwrap@VILob@@@ObjectWrap@Nan@@SAPEAVILob@@V?$Local@VObject@v8@@@v8@@@Z 000000018004d0e0     njsConnection.obj
 0002:0000e0e0       $unwind$?GetValueType@Connection@@CA?AW4ValueType@@V?$Local@VValue@v8@@@v8@@@Z 000000018004d0e0     njsConnection.obj
 0002:0000e0e0       $unwind$??$Unwrap@VConnection@@@ObjectWrap@Nan@@SAPEAVConnection@@V?$Local@VObject@v8@@@v8@@@Z 000000018004d0e0     njsOracle.obj
 0002:0000e0e8       $unwind$?xsgetn@?$basic_streambuf@DU?$char_traits@D@std@@@std@@MEAA_JPEAD_J@Z 000000018004d0e8     njsOracle.obj
 0002:0000e0e8       $unwind$?xsputn@?$basic_streambuf@DU?$char_traits@D@std@@@std@@MEAA_JPEBD_J@Z 000000018004d0e8     njsOracle.obj
 0002:0000e0fc       $chain$0$?xsgetn@?$basic_streambuf@DU?$char_traits@D@std@@@std@@MEAA_JPEAD_J@Z 000000018004d0fc     njsOracle.obj
 0002:0000e110       $chain$1$?xsgetn@?$basic_streambuf@DU?$char_traits@D@std@@@std@@MEAA_JPEAD_J@Z 000000018004d110     njsOracle.obj
 0002:0000e120       $chain$0$?xsputn@?$basic_streambuf@DU?$char_traits@D@std@@@std@@MEAA_JPEBD_J@Z 000000018004d120     njsOracle.obj
 0002:0000e134       $chain$1$?xsputn@?$basic_streambuf@DU?$char_traits@D@std@@@std@@MEAA_JPEBD_J@Z 000000018004d134     njsOracle.obj
 0002:0000e144       $unwind$??6?$basic_ostream@DU?$char_traits@D@std@@@std@@QEAAAEAV01@H@Z 000000018004d144     njsOracle.obj
 0002:0000e160       $stateUnwindMap$??6?$basic_ostream@DU?$char_traits@D@std@@@std@@QEAAAEAV01@H@Z 000000018004d160     njsOracle.obj
 0002:0000e178       $ip2state$??6?$basic_ostream@DU?$char_traits@D@std@@@std@@QEAAAEAV01@H@Z 000000018004d178     njsOracle.obj
 0002:0000e1a8       $unwind$??0?$basic_stringstream@DU?$char_traits@D@std@@V?$allocator@D@2@@std@@QEAA@H@Z 000000018004d1a8     njsOracle.obj
 0002:0000e1bc       $stateUnwindMap$??0?$basic_stringstream@DU?$char_traits@D@std@@V?$allocator@D@2@@std@@QEAA@H@Z 000000018004d1bc     njsOracle.obj
 0002:0000e1d8       $ip2state$??0?$basic_stringstream@DU?$char_traits@D@std@@V?$allocator@D@2@@std@@QEAA@H@Z 000000018004d1d8     njsOracle.obj
 0002:0000e200       $unwind$_freefls$fin$1     000000018004d200     LIBCMT:tidtable.obj
 0002:0000e200       $unwind$setvbuf$fin$0      000000018004d200     LIBCMT:setvbuf.obj
 0002:0000e200       $unwind$?dtor$0@?0??getErrorMsg@NJSMessages@@SA?AV?$basic_string@DU?$char_traits@D@std@@V?$allocator@D@2@@std@@W4NJSErrorType@@ZZ@4HA 000000018004d200     njsMessages.obj
 0002:0000e200       $unwind$_ioinit$fin$0      000000018004d200     LIBCMT:ioinit.obj
 0002:0000e200       $unwind$_locterm$fin$0     000000018004d200     LIBCMT:wsetloca.obj
 0002:0000e200       $unwind$flsall$fin$0       000000018004d200     LIBCMT:fflush.obj
 0002:0000e200       $unwind$?dtor$0@?0???0?$basic_stringstream@DU?$char_traits@D@std@@V?$allocator@D@2@@std@@QEAA@H@Z@4HA 000000018004d200     njsOracle.obj
 0002:0000e200       $unwind$__DestructExceptionObject$filt$0 000000018004d200     LIBCMT:frame.obj
 0002:0000e200       $unwind$doexit$fin$0       000000018004d200     LIBCMT:crt0dat.obj
 0002:0000e200       $unwind$fflush$fin$0       000000018004d200     LIBCMT:fflush.obj
 0002:0000e200       $unwind$_wsetlocale$fin$2  000000018004d200     LIBCMT:wsetloca.obj
 0002:0000e200       $unwind$?fin$0@?0???_M@YAXPEAX_KHP6AX0@Z@Z@4HA 000000018004d200     LIBCMT:ehvecdtr.obj
 0002:0000e200       $unwind$_commit$fin$0      000000018004d200     LIBCMT:commit.obj
 0002:0000e200       $unwind$__updatetlocinfo$fin$0 000000018004d200     LIBCMT:localref.obj
 0002:0000e200       $unwind$_fcloseall$fin$0   000000018004d200     LIBCMT:closeall.obj
 0002:0000e200       $unwind$?dtor$1@?0??_Getcat@?$numpunct@D@std@@SA_KPEAPEBVfacet@locale@2@PEBV42@@Z@4HA 000000018004d200     njsOracle.obj
 0002:0000e200       $unwind$__FrameUnwindToState$fin$1 000000018004d200     LIBCMT:frame.obj
 0002:0000e200       $unwind$?fin$0@?0??_Type_info_dtor@type_info@@CAXPEAV1@@Z@4HA 000000018004d200     LIBCMT:typname.obj
 0002:0000e200       $unwind$_wsetlocale$fin$0  000000018004d200     LIBCMT:wsetloca.obj
 0002:0000e200       $unwind$_CRT_INIT$fin$0    000000018004d200     LIBCMT:dllcrt0.obj
 0002:0000e200       $unwind$_close$fin$0       000000018004d200     LIBCMT:close.obj
 0002:0000e200       $unwind$?filt$0@?0??__ArrayUnwind@@YAXPEAX_KHP6AX0@Z@Z@4HA 000000018004d200     LIBCMT:ehvecdtr.obj
 0002:0000e200       $unwind$__DllMainCRTStartup$filt$0 000000018004d200     LIBCMT:dllcrt0.obj
 0002:0000e200       $unwind$_mtinitlocknum$fin$0 000000018004d200     LIBCMT:mlock.obj
 0002:0000e200       $unwind$__FrameUnwindToState$filt$0 000000018004d200     LIBCMT:frame.obj
 0002:0000e200       $unwind$raise$fin$0        000000018004d200     LIBCMT:winsig.obj
 0002:0000e200       $unwind$_lseeki64$fin$0    000000018004d200     LIBCMT:lseeki64.obj
 0002:0000e200       $unwind$__CxxCallCatchBlock$filt$0 000000018004d200     LIBCMT:frame.obj
 0002:0000e200       $unwind$_wsetlocale$fin$1  000000018004d200     LIBCMT:wsetloca.obj
 0002:0000e200       $unwind$_initptd$fin$0     000000018004d200     LIBCMT:tidtable.obj
 0002:0000e200       $unwind$flsall$fin$1       000000018004d200     LIBCMT:fflush.obj
 0002:0000e200       $unwind$_initptd$fin$1     000000018004d200     LIBCMT:tidtable.obj
 0002:0000e200       $unwind$_setmbcp$fin$0     000000018004d200     LIBCMT:mbctype.obj
 0002:0000e200       $unwind$fwprintf$fin$0     000000018004d200     LIBCMT:fwprintf.obj
 0002:0000e200       $unwind$_write$fin$0       000000018004d200     LIBCMT:write.obj
 0002:0000e200       $unwind$_freefls$fin$0     000000018004d200     LIBCMT:tidtable.obj
 0002:0000e200       $unwind$?fin$0@?0???_L@YAXPEAX_KHP6AX0@Z2@Z@4HA 000000018004d200     LIBCMT:ehvecctr.obj
 0002:0000e200       $unwind$fclose$fin$0       000000018004d200     LIBCMT:fclose.obj
 0002:0000e200       $unwind$_IsNonwritableInCurrentImage$filt$0 000000018004d200     LIBCMT:pesect.obj
 0002:0000e200       $unwind$_onexit$fin$0      000000018004d200     LIBCMT:onexit.obj
 0002:0000e200       $unwind$__updatetmbcinfo$fin$0 000000018004d200     LIBCMT:mbctype.obj
 0002:0000e200       $unwind$__lock_fhandle$fin$0 000000018004d200     LIBCMT:osfinfo.obj
 0002:0000e208       $unwind$?overflow@?$basic_stringbuf@DU?$char_traits@D@std@@V?$allocator@D@2@@std@@MEAAHH@Z 000000018004d208     njsOracle.obj
 0002:0000e214       $chain$0$?overflow@?$basic_stringbuf@DU?$char_traits@D@std@@V?$allocator@D@2@@std@@MEAAHH@Z 000000018004d214     njsOracle.obj
 0002:0000e228       $chain$5$?overflow@?$basic_stringbuf@DU?$char_traits@D@std@@V?$allocator@D@2@@std@@MEAAHH@Z 000000018004d228     njsOracle.obj
 0002:0000e248       $chain$7$?overflow@?$basic_stringbuf@DU?$char_traits@D@std@@V?$allocator@D@2@@std@@MEAAHH@Z 000000018004d248     njsOracle.obj
 0002:0000e264       $unwind$?seekoff@?$basic_stringbuf@DU?$char_traits@D@std@@V?$allocator@D@2@@std@@MEAA?AV?$fpos@H@2@_JHH@Z 000000018004d264     njsOracle.obj
 0002:0000e274       $unwind$?seekpos@?$basic_stringbuf@DU?$char_traits@D@std@@V?$allocator@D@2@@std@@MEAA?AV?$fpos@H@2@V32@H@Z 000000018004d274     njsOracle.obj
 0002:0000e280       $unwind$??0_Init_locks@std@@QEAA@XZ 000000018004d280     libcpmt:xlock.obj
 0002:0000e280       $unwind$realloc            000000018004d280     LIBCMT:realloc.obj
 0002:0000e280       $unwind$_lseeki64_nolock   000000018004d280     LIBCMT:lseeki64.obj
 0002:0000e280       $unwind$_flush             000000018004d280     LIBCMT:fflush.obj
 0002:0000e280       $unwind$__crtGetLocaleInfoEx 000000018004d280     LIBCMT:winapinls.obj
 0002:0000e280       $unwind$??_G?$basic_streambuf@DU?$char_traits@D@std@@@std@@UEAAPEAXI@Z 000000018004d280     njsOracle.obj
 0002:0000e280       $unwind$memcpy_s           000000018004d280     LIBCMT:memcpy_s.obj
 0002:0000e280       $unwind$??_G?$basic_stringstream@DU?$char_traits@D@std@@V?$allocator@D@2@@std@@UEAAPEAXI@Z 000000018004d280     njsOracle.obj
 0002:0000e280       $unwind$_DllMainCRTStartup 000000018004d280     LIBCMT:dllcrt0.obj
 0002:0000e280       $unwind$_Getcvt            000000018004d280     libcpmt:xwctomb.obj
 0002:0000e280       $unwind$?assign@?$basic_string@DU?$char_traits@D@std@@V?$allocator@D@2@@std@@QEAAAEAV12@_KD@Z 000000018004d280     njsOracle.obj
 0002:0000e280       $unwind$malloc             000000018004d280     LIBCMT:malloc.obj
 0002:0000e280       $unwind$?compare@?$basic_string@DU?$char_traits@D@std@@V?$allocator@D@2@@std@@QEBAHAEBV12@@Z 000000018004d280     njsConnection.obj
 0002:0000e280       $unwind$??0?$vector@PEAUBind@@V?$allocator@PEAUBind@@@std@@@std@@QEAA@AEBV01@@Z 000000018004d280     njsConnection.obj
 0002:0000e280       $unwind$_ioterm            000000018004d280     LIBCMT:ioinit.obj
 0002:0000e280       $unwind$??4?$_Yarn@D@std@@QEAAAEAV01@PEBD@Z 000000018004d280     libcpmt:locale0.obj
 0002:0000e280       $unwind$?assign@?$basic_string@DU?$char_traits@D@std@@V?$allocator@D@2@@std@@QEAAAEAV12@PEBD_K@Z 000000018004d280     njsOracle.obj
 0002:0000e280       $unwind$_mtinitlocks       000000018004d280     LIBCMT:mlock.obj
 0002:0000e290       $unwind$?insert@?$basic_string@DU?$char_traits@D@std@@V?$allocator@D@2@@std@@QEAAAEAV12@_K0D@Z 000000018004d290     njsOracle.obj
 0002:0000e290       $unwind$?append@?$basic_string@DU?$char_traits@D@std@@V?$allocator@D@2@@std@@QEAAAEAV12@AEBV12@_K1@Z 000000018004d290     njsOracle.obj
 0002:0000e2a4       $chain$0$?append@?$basic_string@DU?$char_traits@D@std@@V?$allocator@D@2@@std@@QEAAAEAV12@AEBV12@_K1@Z 000000018004d2a4     njsOracle.obj
 0002:0000e2b8       $chain$1$?append@?$basic_string@DU?$char_traits@D@std@@V?$allocator@D@2@@std@@QEAAAEAV12@AEBV12@_K1@Z 000000018004d2b8     njsOracle.obj
 0002:0000e2c8       $chain$2$?append@?$basic_string@DU?$char_traits@D@std@@V?$allocator@D@2@@std@@QEAAAEAV12@AEBV12@_K1@Z 000000018004d2c8     njsOracle.obj
 0002:0000e2dc       $unwind$?append@?$basic_string@DU?$char_traits@D@std@@V?$allocator@D@2@@std@@QEAAAEAV12@PEBD_K@Z 000000018004d2dc     njsOracle.obj
 0002:0000e2ec       $chain$0$?append@?$basic_string@DU?$char_traits@D@std@@V?$allocator@D@2@@std@@QEAAAEAV12@PEBD_K@Z 000000018004d2ec     njsOracle.obj
 0002:0000e300       $chain$1$?append@?$basic_string@DU?$char_traits@D@std@@V?$allocator@D@2@@std@@QEAAAEAV12@PEBD_K@Z 000000018004d300     njsOracle.obj
 0002:0000e310       $chain$2$?append@?$basic_string@DU?$char_traits@D@std@@V?$allocator@D@2@@std@@QEAAAEAV12@PEBD_K@Z 000000018004d310     njsOracle.obj
 0002:0000e324       $unwind$_initterm          000000018004d324     LIBCMT:crt0dat.obj
 0002:0000e324       $unwind$?_Copy@?$basic_string@DU?$char_traits@D@std@@V?$allocator@D@2@@std@@QEAAX_K0@Z 000000018004d324     njsOracle.obj
 0002:0000e324       $unwind$?assign@?$basic_string@DU?$char_traits@D@std@@V?$allocator@D@2@@std@@QEAAAEAV12@AEBV12@_K1@Z 000000018004d324     njsOracle.obj
 0002:0000e324       $unwind$?setSBCS@@YAXPEAUthreadmbcinfostruct@@@Z 000000018004d324     LIBCMT:mbctype.obj
 0002:0000e324       $unwind$_XcptFilter        000000018004d324     LIBCMT:winxfltr.obj
 0002:0000e324       $unwind$__freetlocinfo     000000018004d324     LIBCMT:localref.obj
 0002:0000e324       $unwind$xtow_s             000000018004d324     LIBCMT:xtows.obj
 0002:0000e324       $unwind$_mtdeletelocks     000000018004d324     LIBCMT:mlock.obj
 0002:0000e324       $unwind$?__StateFromIp@@YAHPEBU_s_FuncInfo@@PEAU_xDISPATCHER_CONTEXT@@_J@Z 000000018004d324     LIBCMT:ehstate.obj
 0002:0000e338       $unwind$?init@?$basic_ios@DU?$char_traits@D@std@@@std@@IEAAXPEAV?$basic_streambuf@DU?$char_traits@D@std@@@2@_N@Z 000000018004d338     njsOracle.obj
 0002:0000e34c       $stateUnwindMap$?init@?$basic_ios@DU?$char_traits@D@std@@@std@@IEAAXPEAV?$basic_streambuf@DU?$char_traits@D@std@@@2@_N@Z 000000018004d34c     njsOracle.obj
 0002:0000e358       $ip2state$?init@?$basic_ios@DU?$char_traits@D@std@@@std@@IEAAXPEAV?$basic_streambuf@DU?$char_traits@D@std@@@2@_N@Z 000000018004d358     njsOracle.obj
 0002:0000e370       $unwind$??0?$basic_iostream@DU?$char_traits@D@std@@@std@@QEAA@PEAV?$basic_streambuf@DU?$char_traits@D@std@@@1@@Z 000000018004d370     njsOracle.obj
 0002:0000e380       $stateUnwindMap$??0?$basic_iostream@DU?$char_traits@D@std@@@std@@QEAA@PEAV?$basic_streambuf@DU?$char_traits@D@std@@@1@@Z 000000018004d380     njsOracle.obj
 0002:0000e3a0       $ip2state$??0?$basic_iostream@DU?$char_traits@D@std@@@std@@QEAA@PEAV?$basic_streambuf@DU?$char_traits@D@std@@@1@@Z 000000018004d3a0     njsOracle.obj
 0002:0000e3b8       $unwind$?str@?$basic_stringbuf@DU?$char_traits@D@std@@V?$allocator@D@2@@std@@QEBA?AV?$basic_string@DU?$char_traits@D@std@@V?$allocator@D@2@@2@XZ 000000018004d3b8     njsOracle.obj
 0002:0000e3d0       $unwind$??0sentry@?$basic_ostream@DU?$char_traits@D@std@@@std@@QEAA@AEAV12@@Z 000000018004d3d0     njsOracle.obj
 0002:0000e3e4       $stateUnwindMap$??0sentry@?$basic_ostream@DU?$char_traits@D@std@@@std@@QEAA@AEAV12@@Z 000000018004d3e4     njsOracle.obj
 0002:0000e3f0       $ip2state$??0sentry@?$basic_ostream@DU?$char_traits@D@std@@@std@@QEAA@AEAV12@@Z 000000018004d3f0     njsOracle.obj
 0002:0000e408       $unwind$?do_put@?$num_put@DV?$ostreambuf_iterator@DU?$char_traits@D@std@@@std@@@std@@MEBA?AV?$ostreambuf_iterator@DU?$char_traits@D@std@@@2@V32@AEAVios_base@2@D_N@Z 000000018004d408     njsOracle.obj
 0002:0000e42c       $stateUnwindMap$?do_put@?$num_put@DV?$ostreambuf_iterator@DU?$char_traits@D@std@@@std@@@std@@MEBA?AV?$ostreambuf_iterator@DU?$char_traits@D@std@@@2@V32@AEAVios_base@2@D_N@Z 000000018004d42c     njsOracle.obj
 0002:0000e440       $ip2state$?do_put@?$num_put@DV?$ostreambuf_iterator@DU?$char_traits@D@std@@@std@@@std@@MEBA?AV?$ostreambuf_iterator@DU?$char_traits@D@std@@@2@V32@AEAVios_base@2@D_N@Z 000000018004d440     njsOracle.obj
 0002:0000e468       $unwind$?do_put@?$num_put@DV?$ostreambuf_iterator@DU?$char_traits@D@std@@@std@@@std@@MEBA?AV?$ostreambuf_iterator@DU?$char_traits@D@std@@@2@V32@AEAVios_base@2@DK@Z 000000018004d468     njsOracle.obj
 0002:0000e468       $unwind$?do_put@?$num_put@DV?$ostreambuf_iterator@DU?$char_traits@D@std@@@std@@@std@@MEBA?AV?$ostreambuf_iterator@DU?$char_traits@D@std@@@2@V32@AEAVios_base@2@DJ@Z 000000018004d468     njsOracle.obj
 0002:0000e468       $unwind$?do_put@?$num_put@DV?$ostreambuf_iterator@DU?$char_traits@D@std@@@std@@@std@@MEBA?AV?$ostreambuf_iterator@DU?$char_traits@D@std@@@2@V32@AEAVios_base@2@D_K@Z 000000018004d468     njsOracle.obj
 0002:0000e468       $unwind$?do_put@?$num_put@DV?$ostreambuf_iterator@DU?$char_traits@D@std@@@std@@@std@@MEBA?AV?$ostreambuf_iterator@DU?$char_traits@D@std@@@2@V32@AEAVios_base@2@D_J@Z 000000018004d468     njsOracle.obj
 0002:0000e480       $unwind$?do_put@?$num_put@DV?$ostreambuf_iterator@DU?$char_traits@D@std@@@std@@@std@@MEBA?AV?$ostreambuf_iterator@DU?$char_traits@D@std@@@2@V32@AEAVios_base@2@DO@Z 000000018004d480     njsOracle.obj
 0002:0000e480       $unwind$?do_put@?$num_put@DV?$ostreambuf_iterator@DU?$char_traits@D@std@@@std@@@std@@MEBA?AV?$ostreambuf_iterator@DU?$char_traits@D@std@@@2@V32@AEAVios_base@2@DN@Z 000000018004d480     njsOracle.obj
 0002:0000e4a0       $unwind$?do_put@?$num_put@DV?$ostreambuf_iterator@DU?$char_traits@D@std@@@std@@@std@@MEBA?AV?$ostreambuf_iterator@DU?$char_traits@D@std@@@2@V32@AEAVios_base@2@DPEBX@Z 000000018004d4a0     njsOracle.obj
 0002:0000e4b8       $chain$0$?insert@?$basic_string@DU?$char_traits@D@std@@V?$allocator@D@2@@std@@QEAAAEAV12@_K0D@Z 000000018004d4b8     njsOracle.obj
 0002:0000e4cc       $chain$1$?insert@?$basic_string@DU?$char_traits@D@std@@V?$allocator@D@2@@std@@QEAAAEAV12@_K0D@Z 000000018004d4cc     njsOracle.obj
 0002:0000e4dc       $chain$2$?insert@?$basic_string@DU?$char_traits@D@std@@V?$allocator@D@2@@std@@QEAAAEAV12@_K0D@Z 000000018004d4dc     njsOracle.obj
 0002:0000e4f0       $unwind$?_Grow@?$basic_string@DU?$char_traits@D@std@@V?$allocator@D@2@@std@@QEAA_N_K_N@Z 000000018004d4f0     njsOracle.obj
 0002:0000e4fc       $chain$0$?_Grow@?$basic_string@DU?$char_traits@D@std@@V?$allocator@D@2@@std@@QEAA_N_K_N@Z 000000018004d4fc     njsOracle.obj
 0002:0000e510       $chain$1$?_Grow@?$basic_string@DU?$char_traits@D@std@@V?$allocator@D@2@@std@@QEAA_N_K_N@Z 000000018004d510     njsOracle.obj
 0002:0000e524       $chain$2$?_Grow@?$basic_string@DU?$char_traits@D@std@@V?$allocator@D@2@@std@@QEAA_N_K_N@Z 000000018004d524     njsOracle.obj
 0002:0000e538       $chain$3$?_Grow@?$basic_string@DU?$char_traits@D@std@@V?$allocator@D@2@@std@@QEAA_N_K_N@Z 000000018004d538     njsOracle.obj
 0002:0000e548       $chain$4$?_Grow@?$basic_string@DU?$char_traits@D@std@@V?$allocator@D@2@@std@@QEAA_N_K_N@Z 000000018004d548     njsOracle.obj
 0002:0000e558       $chain$5$?_Grow@?$basic_string@DU?$char_traits@D@std@@V?$allocator@D@2@@std@@QEAA_N_K_N@Z 000000018004d558     njsOracle.obj
 0002:0000e568       $unwind$??0?$basic_streambuf@DU?$char_traits@D@std@@@std@@IEAA@XZ 000000018004d568     njsOracle.obj
 0002:0000e580       $ip2state$??0?$basic_streambuf@DU?$char_traits@D@std@@@std@@IEAA@XZ 000000018004d580     njsOracle.obj
 0002:0000e598       $unwind$?flush@?$basic_ostream@DU?$char_traits@D@std@@@std@@QEAAAEAV12@XZ 000000018004d598     njsOracle.obj
 0002:0000e5ac       $stateUnwindMap$?flush@?$basic_ostream@DU?$char_traits@D@std@@@std@@QEAAAEAV12@XZ 000000018004d5ac     njsOracle.obj
 0002:0000e5b8       $ip2state$?flush@?$basic_ostream@DU?$char_traits@D@std@@@std@@QEAAAEAV12@XZ 000000018004d5b8     njsOracle.obj
 0002:0000e5d0       $unwind$?_Fput@?$num_put@DV?$ostreambuf_iterator@DU?$char_traits@D@std@@@std@@@std@@AEBA?AV?$ostreambuf_iterator@DU?$char_traits@D@std@@@2@V32@AEAVios_base@2@DPEBD_K333@Z 000000018004d5d0     njsOracle.obj
 0002:0000e5f8       $stateUnwindMap$?_Fput@?$num_put@DV?$ostreambuf_iterator@DU?$char_traits@D@std@@@std@@@std@@AEBA?AV?$ostreambuf_iterator@DU?$char_traits@D@std@@@2@V32@AEAVios_base@2@DPEBD_K333@Z 000000018004d5f8     njsOracle.obj
 0002:0000e620       $ip2state$?_Fput@?$num_put@DV?$ostreambuf_iterator@DU?$char_traits@D@std@@@std@@@std@@AEBA?AV?$ostreambuf_iterator@DU?$char_traits@D@std@@@2@V32@AEAVios_base@2@DPEBD_K333@Z 000000018004d620     njsOracle.obj
 0002:0000e668       $unwind$?_Iput@?$num_put@DV?$ostreambuf_iterator@DU?$char_traits@D@std@@@std@@@std@@AEBA?AV?$ostreambuf_iterator@DU?$char_traits@D@std@@@2@V32@AEAVios_base@2@DPEAD_K@Z 000000018004d668     njsOracle.obj
 0002:0000e690       $stateUnwindMap$?_Iput@?$num_put@DV?$ostreambuf_iterator@DU?$char_traits@D@std@@@std@@@std@@AEBA?AV?$ostreambuf_iterator@DU?$char_traits@D@std@@@2@V32@AEAVios_base@2@DPEAD_K@Z 000000018004d690     njsOracle.obj
 0002:0000e6b0       $ip2state$?_Iput@?$num_put@DV?$ostreambuf_iterator@DU?$char_traits@D@std@@@std@@@std@@AEBA?AV?$ostreambuf_iterator@DU?$char_traits@D@std@@@2@V32@AEAVios_base@2@DPEAD_K@Z 000000018004d6b0     njsOracle.obj
 0002:0000e6f8       $unwind$??$use_facet@V?$ctype@D@std@@@std@@YAAEBV?$ctype@D@0@AEBVlocale@0@@Z 000000018004d6f8     njsOracle.obj
 0002:0000e710       $stateUnwindMap$??$use_facet@V?$num_put@DV?$ostreambuf_iterator@DU?$char_traits@D@std@@@std@@@std@@@std@@YAAEBV?$num_put@DV?$ostreambuf_iterator@DU?$char_traits@D@std@@@std@@@0@AEBVlocale@0@@Z 000000018004d710     njsOracle.obj
 0002:0000e710       $stateUnwindMap$??$use_facet@V?$ctype@D@std@@@std@@YAAEBV?$ctype@D@0@AEBVlocale@0@@Z 000000018004d710     njsOracle.obj
 0002:0000e710       $stateUnwindMap$??$use_facet@V?$numpunct@D@std@@@std@@YAAEBV?$numpunct@D@0@AEBVlocale@0@@Z 000000018004d710     njsOracle.obj
 0002:0000e718       $ip2state$??$use_facet@V?$ctype@D@std@@@std@@YAAEBV?$ctype@D@0@AEBVlocale@0@@Z 000000018004d718     njsOracle.obj
 0002:0000e730       $unwind$??$?6U?$char_traits@D@std@@@std@@YAAEAV?$basic_ostream@DU?$char_traits@D@std@@@0@AEAV10@PEBD@Z 000000018004d730     njsOracle.obj
 0002:0000e750       $stateUnwindMap$??$?6U?$char_traits@D@std@@@std@@YAAEAV?$basic_ostream@DU?$char_traits@D@std@@@0@AEAV10@PEBD@Z 000000018004d750     njsOracle.obj
 0002:0000e750       $stateUnwindMap$??$?6DU?$char_traits@D@std@@V?$allocator@D@1@@std@@YAAEAV?$basic_ostream@DU?$char_traits@D@std@@@0@AEAV10@AEBV?$basic_string@DU?$char_traits@D@std@@V?$allocator@D@2@@0@@Z 000000018004d750     dpiExceptionImpl.obj
 0002:0000e760       $ip2state$??$?6U?$char_traits@D@std@@@std@@YAAEAV?$basic_ostream@DU?$char_traits@D@std@@@0@AEAV10@PEBD@Z 000000018004d760     njsOracle.obj
 0002:0000e780       $unwind$??$use_facet@V?$num_put@DV?$ostreambuf_iterator@DU?$char_traits@D@std@@@std@@@std@@@std@@YAAEBV?$num_put@DV?$ostreambuf_iterator@DU?$char_traits@D@std@@@std@@@0@AEBVlocale@0@@Z 000000018004d780     njsOracle.obj
 0002:0000e798       $ip2state$??$use_facet@V?$num_put@DV?$ostreambuf_iterator@DU?$char_traits@D@std@@@std@@@std@@@std@@YAAEBV?$num_put@DV?$ostreambuf_iterator@DU?$char_traits@D@std@@@std@@@0@AEBVlocale@0@@Z 000000018004d798     njsOracle.obj
 0002:0000e7b0       $unwind$??$use_facet@V?$numpunct@D@std@@@std@@YAAEBV?$numpunct@D@0@AEBVlocale@0@@Z 000000018004d7b0     njsOracle.obj
 0002:0000e7c8       $ip2state$??$use_facet@V?$numpunct@D@std@@@std@@YAAEBV?$numpunct@D@0@AEBVlocale@0@@Z 000000018004d7c8     njsOracle.obj
 0002:0000e7e0       $unwind$?_Getcat@?$num_put@DV?$ostreambuf_iterator@DU?$char_traits@D@std@@@std@@@std@@SA_KPEAPEBVfacet@locale@2@PEBV42@@Z 000000018004d7e0     njsOracle.obj
 0002:0000e800       $stateUnwindMap$?_Getcat@?$num_put@DV?$ostreambuf_iterator@DU?$char_traits@D@std@@@std@@@std@@SA_KPEAPEBVfacet@locale@2@PEBV42@@Z 000000018004d800     njsOracle.obj
 0002:0000e808       $ip2state$?_Getcat@?$num_put@DV?$ostreambuf_iterator@DU?$char_traits@D@std@@@std@@@std@@SA_KPEAPEBVfacet@locale@2@PEBV42@@Z 000000018004d808     njsOracle.obj
 0002:0000e820       $unwind$?_Getcat@?$numpunct@D@std@@SA_KPEAPEBVfacet@locale@2@PEBV42@@Z 000000018004d820     njsOracle.obj
 0002:0000e83c       $stateUnwindMap$?_Getcat@?$numpunct@D@std@@SA_KPEAPEBVfacet@locale@2@PEBV42@@Z 000000018004d83c     njsOracle.obj
 0002:0000e860       $ip2state$?_Getcat@?$numpunct@D@std@@SA_KPEAPEBVfacet@locale@2@PEBV42@@Z 000000018004d860     njsOracle.obj
 0002:0000e8a0       $unwind$?_Init@?$numpunct@D@std@@IEAAXAEBV_Locinfo@2@_N@Z 000000018004d8a0     njsOracle.obj
 0002:0000e8b8       $unwind$??0poolBaton@@QEAA@V?$Local@VFunction@v8@@@v8@@@Z 000000018004d8b8     njsPool.obj
 0002:0000e8d0       $stateUnwindMap$??1poolBaton@@QEAA@XZ 000000018004d8d0     njsPool.obj
 0002:0000e8d0       $stateUnwindMap$??0poolBaton@@QEAA@V?$Local@VFunction@v8@@@v8@@@Z 000000018004d8d0     njsPool.obj
 0002:0000e8e8       $ip2state$??0poolBaton@@QEAA@V?$Local@VFunction@v8@@@v8@@@Z 000000018004d8e8     njsPool.obj
 0002:0000e910       $unwind$??1poolBaton@@QEAA@XZ 000000018004d910     njsPool.obj
 0002:0000e920       $ip2state$??1poolBaton@@QEAA@XZ 000000018004d920     njsPool.obj
 0002:0000e940       $unwind$?Init@Pool@@SAXV?$Local@VObject@v8@@@v8@@@Z 000000018004d940     njsPool.obj
 0002:0000e960       $ip2state$?Init@Pool@@SAXV?$Local@VObject@v8@@@v8@@@Z 000000018004d960     njsPool.obj
 0002:0000e998       $unwind$?getPoolProperty@Pool@@CA?AV?$Local@VPrimitive@v8@@@v8@@PEAV1@I@Z 000000018004d998     njsPool.obj
 0002:0000e9b8       $stateUnwindMap$?getPoolProperty@Pool@@CA?AV?$Local@VPrimitive@v8@@@v8@@PEAV1@I@Z 000000018004d9b8     njsPool.obj
 0002:0000e9d0       $ip2state$?getPoolProperty@Pool@@CA?AV?$Local@VPrimitive@v8@@@v8@@PEAV1@I@Z 000000018004d9d0     njsPool.obj
 0002:0000ea08       $unwind$?GetPoolMin@Pool@@CAXV?$Local@VString@v8@@@v8@@AEBV?$PropertyCallbackInfo@VValue@v8@@@Nan@@@Z 000000018004da08     njsPool.obj
 0002:0000ea28       $ip2state$?GetPoolMin@Pool@@CAXV?$Local@VString@v8@@@v8@@AEBV?$PropertyCallbackInfo@VValue@v8@@@Nan@@@Z 000000018004da28     njsPool.obj
 0002:0000ea50       $unwind$?GetPoolMax@Pool@@CAXV?$Local@VString@v8@@@v8@@AEBV?$PropertyCallbackInfo@VValue@v8@@@Nan@@@Z 000000018004da50     njsPool.obj
 0002:0000ea70       $ip2state$?GetPoolMax@Pool@@CAXV?$Local@VString@v8@@@v8@@AEBV?$PropertyCallbackInfo@VValue@v8@@@Nan@@@Z 000000018004da70     njsPool.obj
 0002:0000ea98       $unwind$?GetPoolIncrement@Pool@@CAXV?$Local@VString@v8@@@v8@@AEBV?$PropertyCallbackInfo@VValue@v8@@@Nan@@@Z 000000018004da98     njsPool.obj
 0002:0000eab8       $ip2state$?GetPoolIncrement@Pool@@CAXV?$Local@VString@v8@@@v8@@AEBV?$PropertyCallbackInfo@VValue@v8@@@Nan@@@Z 000000018004dab8     njsPool.obj
 0002:0000eae0       $unwind$?GetPoolTimeout@Pool@@CAXV?$Local@VString@v8@@@v8@@AEBV?$PropertyCallbackInfo@VValue@v8@@@Nan@@@Z 000000018004dae0     njsPool.obj
 0002:0000eb00       $ip2state$?GetPoolTimeout@Pool@@CAXV?$Local@VString@v8@@@v8@@AEBV?$PropertyCallbackInfo@VValue@v8@@@Nan@@@Z 000000018004db00     njsPool.obj
 0002:0000eb28       $unwind$?GetConnectionsOpen@Pool@@CAXV?$Local@VString@v8@@@v8@@AEBV?$PropertyCallbackInfo@VValue@v8@@@Nan@@@Z 000000018004db28     njsPool.obj
 0002:0000eb44       $stateUnwindMap$?GetConnectionsOpen@Pool@@CAXV?$Local@VString@v8@@@v8@@AEBV?$PropertyCallbackInfo@VValue@v8@@@Nan@@@Z 000000018004db44     njsPool.obj
 0002:0000eb7c       $tryMap$?GetConnectionsOpen@Pool@@CAXV?$Local@VString@v8@@@v8@@AEBV?$PropertyCallbackInfo@VValue@v8@@@Nan@@@Z 000000018004db7c     njsPool.obj
 0002:0000eb90       $handlerMap$0$?GetConnectionsOpen@Pool@@CAXV?$Local@VString@v8@@@v8@@AEBV?$PropertyCallbackInfo@VValue@v8@@@Nan@@@Z 000000018004db90     njsPool.obj
 0002:0000ebb0       $ip2state$?GetConnectionsOpen@Pool@@CAXV?$Local@VString@v8@@@v8@@AEBV?$PropertyCallbackInfo@VValue@v8@@@Nan@@@Z 000000018004dbb0     njsPool.obj
 0002:0000ec38       $unwind$?catch$0@?0??GetConnectionsOpen@Pool@@CAXV?$Local@VString@v8@@@v8@@AEBV?$PropertyCallbackInfo@VValue@v8@@@Nan@@@Z@4HA 000000018004dc38     njsPool.obj
 0002:0000ec4c       $unwind$?GetConnectionsInUse@Pool@@CAXV?$Local@VString@v8@@@v8@@AEBV?$PropertyCallbackInfo@VValue@v8@@@Nan@@@Z 000000018004dc4c     njsPool.obj
 0002:0000ec68       $stateUnwindMap$?GetConnectionsInUse@Pool@@CAXV?$Local@VString@v8@@@v8@@AEBV?$PropertyCallbackInfo@VValue@v8@@@Nan@@@Z 000000018004dc68     njsPool.obj
 0002:0000eca0       $tryMap$?GetConnectionsInUse@Pool@@CAXV?$Local@VString@v8@@@v8@@AEBV?$PropertyCallbackInfo@VValue@v8@@@Nan@@@Z 000000018004dca0     njsPool.obj
 0002:0000ecb4       $handlerMap$0$?GetConnectionsInUse@Pool@@CAXV?$Local@VString@v8@@@v8@@AEBV?$PropertyCallbackInfo@VValue@v8@@@Nan@@@Z 000000018004dcb4     njsPool.obj
 0002:0000ecd0       $ip2state$?GetConnectionsInUse@Pool@@CAXV?$Local@VString@v8@@@v8@@AEBV?$PropertyCallbackInfo@VValue@v8@@@Nan@@@Z 000000018004dcd0     njsPool.obj
 0002:0000ed58       $unwind$?catch$0@?0??GetConnectionsInUse@Pool@@CAXV?$Local@VString@v8@@@v8@@AEBV?$PropertyCallbackInfo@VValue@v8@@@Nan@@@Z@4HA 000000018004dd58     njsPool.obj
 0002:0000ed6c       $unwind$?GetStmtCacheSize@Pool@@CAXV?$Local@VString@v8@@@v8@@AEBV?$PropertyCallbackInfo@VValue@v8@@@Nan@@@Z 000000018004dd6c     njsPool.obj
 0002:0000ed88       $ip2state$?GetStmtCacheSize@Pool@@CAXV?$Local@VString@v8@@@v8@@AEBV?$PropertyCallbackInfo@VValue@v8@@@Nan@@@Z 000000018004dd88     njsPool.obj
 0002:0000edb0       $unwind$?setPoolProperty@Pool@@CAXPEAV1@V?$basic_string@DU?$char_traits@D@std@@V?$allocator@D@2@@std@@@Z 000000018004ddb0     njsPool.obj
 0002:0000edd4       $stateUnwindMap$?setPoolProperty@Pool@@CAXPEAV1@V?$basic_string@DU?$char_traits@D@std@@V?$allocator@D@2@@std@@@Z 000000018004ddd4     njsPool.obj
 0002:0000ee10       $ip2state$?setPoolProperty@Pool@@CAXPEAV1@V?$basic_string@DU?$char_traits@D@std@@V?$allocator@D@2@@std@@@Z 000000018004de10     njsPool.obj
 0002:0000ee78       $unwind$?SetPoolMin@Pool@@CAXV?$Local@VString@v8@@@v8@@V?$Local@VValue@v8@@@3@AEBV?$PropertyCallbackInfo@X@Nan@@@Z 000000018004de78     njsPool.obj
 0002:0000ee88       $stateUnwindMap$?SetPoolTimeout@Pool@@CAXV?$Local@VString@v8@@@v8@@V?$Local@VValue@v8@@@3@AEBV?$PropertyCallbackInfo@X@Nan@@@Z 000000018004de88     njsPool.obj
 0002:0000ee88       $stateUnwindMap$?SetPoolMax@Pool@@CAXV?$Local@VString@v8@@@v8@@V?$Local@VValue@v8@@@3@AEBV?$PropertyCallbackInfo@X@Nan@@@Z 000000018004de88     njsPool.obj
 0002:0000ee88       $stateUnwindMap$?SetStmtCacheSize@Pool@@CAXV?$Local@VString@v8@@@v8@@V?$Local@VValue@v8@@@3@AEBV?$PropertyCallbackInfo@X@Nan@@@Z 000000018004de88     njsPool.obj
 0002:0000ee88       $stateUnwindMap$?SetPoolIncrement@Pool@@CAXV?$Local@VString@v8@@@v8@@V?$Local@VValue@v8@@@3@AEBV?$PropertyCallbackInfo@X@Nan@@@Z 000000018004de88     njsPool.obj
 0002:0000ee88       $stateUnwindMap$?SetConnectionsOpen@Pool@@CAXV?$Local@VString@v8@@@v8@@V?$Local@VValue@v8@@@3@AEBV?$PropertyCallbackInfo@X@Nan@@@Z 000000018004de88     njsPool.obj
 0002:0000ee88       $stateUnwindMap$?SetConnectionsInUse@Pool@@CAXV?$Local@VString@v8@@@v8@@V?$Local@VValue@v8@@@3@AEBV?$PropertyCallbackInfo@X@Nan@@@Z 000000018004de88     njsPool.obj
 0002:0000ee88       $stateUnwindMap$?SetPoolMin@Pool@@CAXV?$Local@VString@v8@@@v8@@V?$Local@VValue@v8@@@3@AEBV?$PropertyCallbackInfo@X@Nan@@@Z 000000018004de88     njsPool.obj
 0002:0000ee90       $ip2state$?SetPoolMin@Pool@@CAXV?$Local@VString@v8@@@v8@@V?$Local@VValue@v8@@@3@AEBV?$PropertyCallbackInfo@X@Nan@@@Z 000000018004de90     njsPool.obj
 0002:0000eea8       $unwind$?SetPoolMax@Pool@@CAXV?$Local@VString@v8@@@v8@@V?$Local@VValue@v8@@@3@AEBV?$PropertyCallbackInfo@X@Nan@@@Z 000000018004dea8     njsPool.obj
 0002:0000eeb8       $ip2state$?SetPoolMax@Pool@@CAXV?$Local@VString@v8@@@v8@@V?$Local@VValue@v8@@@3@AEBV?$PropertyCallbackInfo@X@Nan@@@Z 000000018004deb8     njsPool.obj
 0002:0000eed0       $unwind$?SetPoolIncrement@Pool@@CAXV?$Local@VString@v8@@@v8@@V?$Local@VValue@v8@@@3@AEBV?$PropertyCallbackInfo@X@Nan@@@Z 000000018004ded0     njsPool.obj
 0002:0000eee0       $ip2state$?SetPoolIncrement@Pool@@CAXV?$Local@VString@v8@@@v8@@V?$Local@VValue@v8@@@3@AEBV?$PropertyCallbackInfo@X@Nan@@@Z 000000018004dee0     njsPool.obj
 0002:0000eef8       $unwind$?SetPoolTimeout@Pool@@CAXV?$Local@VString@v8@@@v8@@V?$Local@VValue@v8@@@3@AEBV?$PropertyCallbackInfo@X@Nan@@@Z 000000018004def8     njsPool.obj
 0002:0000ef08       $ip2state$?SetPoolTimeout@Pool@@CAXV?$Local@VString@v8@@@v8@@V?$Local@VValue@v8@@@3@AEBV?$PropertyCallbackInfo@X@Nan@@@Z 000000018004df08     njsPool.obj
 0002:0000ef20       $unwind$?SetConnectionsOpen@Pool@@CAXV?$Local@VString@v8@@@v8@@V?$Local@VValue@v8@@@3@AEBV?$PropertyCallbackInfo@X@Nan@@@Z 000000018004df20     njsPool.obj
 0002:0000ef30       $ip2state$?SetConnectionsOpen@Pool@@CAXV?$Local@VString@v8@@@v8@@V?$Local@VValue@v8@@@3@AEBV?$PropertyCallbackInfo@X@Nan@@@Z 000000018004df30     njsPool.obj
 0002:0000ef48       $unwind$?SetConnectionsInUse@Pool@@CAXV?$Local@VString@v8@@@v8@@V?$Local@VValue@v8@@@3@AEBV?$PropertyCallbackInfo@X@Nan@@@Z 000000018004df48     njsPool.obj
 0002:0000ef58       $ip2state$?SetConnectionsInUse@Pool@@CAXV?$Local@VString@v8@@@v8@@V?$Local@VValue@v8@@@3@AEBV?$PropertyCallbackInfo@X@Nan@@@Z 000000018004df58     njsPool.obj
 0002:0000ef70       $unwind$?SetStmtCacheSize@Pool@@CAXV?$Local@VString@v8@@@v8@@V?$Local@VValue@v8@@@3@AEBV?$PropertyCallbackInfo@X@Nan@@@Z 000000018004df70     njsPool.obj
 0002:0000ef80       $ip2state$?SetStmtCacheSize@Pool@@CAXV?$Local@VString@v8@@@v8@@V?$Local@VValue@v8@@@3@AEBV?$PropertyCallbackInfo@X@Nan@@@Z 000000018004df80     njsPool.obj
 0002:0000ef98       $unwind$?GetConnection@Pool@@CAXAEBV?$FunctionCallbackInfo@VValue@v8@@@Nan@@@Z 000000018004df98     njsPool.obj
 0002:0000efc0       $stateUnwindMap$?Terminate@Pool@@CAXAEBV?$FunctionCallbackInfo@VValue@v8@@@Nan@@@Z 000000018004dfc0     njsPool.obj
 0002:0000efc0       $stateUnwindMap$?GetConnection@Pool@@CAXAEBV?$FunctionCallbackInfo@VValue@v8@@@Nan@@@Z 000000018004dfc0     njsPool.obj
 0002:0000eff0       $ip2state$?GetConnection@Pool@@CAXAEBV?$FunctionCallbackInfo@VValue@v8@@@Nan@@@Z 000000018004dff0     njsPool.obj
 0002:0000f058       $unwind$?Async_GetConnection@Pool@@CAXPEAUuv_work_s@@@Z 000000018004e058     njsPool.obj
 0002:0000f06c       $tryMap$?Async_GetConnection@Pool@@CAXPEAUuv_work_s@@@Z 000000018004e06c     njsPool.obj
 0002:0000f080       $handlerMap$0$?Async_GetConnection@Pool@@CAXPEAUuv_work_s@@@Z 000000018004e080     njsPool.obj
 0002:0000f098       $ip2state$?Async_GetConnection@Pool@@CAXPEAUuv_work_s@@@Z 000000018004e098     njsPool.obj
 0002:0000f0c8       $unwind$?catch$0@?0??Async_GetConnection@Pool@@CAXPEAUuv_work_s@@@Z@4HA 000000018004e0c8     njsPool.obj
 0002:0000f0d8       $unwind$?Async_AfterGetConnection@Pool@@CAXPEAUuv_work_s@@@Z 000000018004e0d8     njsPool.obj
 0002:0000f0f8       $ip2state$?Async_AfterGetConnection@Pool@@CAXPEAUuv_work_s@@@Z 000000018004e0f8     njsPool.obj
 0002:0000f120       $unwind$?Terminate@Pool@@CAXAEBV?$FunctionCallbackInfo@VValue@v8@@@Nan@@@Z 000000018004e120     njsPool.obj
 0002:0000f150       $ip2state$?Terminate@Pool@@CAXAEBV?$FunctionCallbackInfo@VValue@v8@@@Nan@@@Z 000000018004e150     njsPool.obj
 0002:0000f1b8       $unwind$?Async_Terminate@Pool@@CAXPEAUuv_work_s@@@Z 000000018004e1b8     njsPool.obj
 0002:0000f1cc       $tryMap$?Async_Terminate@Pool@@CAXPEAUuv_work_s@@@Z 000000018004e1cc     njsPool.obj
 0002:0000f1e0       $handlerMap$0$?Async_Terminate@Pool@@CAXPEAUuv_work_s@@@Z 000000018004e1e0     njsPool.obj
 0002:0000f1f8       $ip2state$?Async_Terminate@Pool@@CAXPEAUuv_work_s@@@Z 000000018004e1f8     njsPool.obj
 0002:0000f228       $unwind$?catch$0@?0??Async_Terminate@Pool@@CAXPEAUuv_work_s@@@Z@4HA 000000018004e228     njsPool.obj
 0002:0000f238       $unwind$?Async_AfterTerminate@Pool@@CAXPEAUuv_work_s@@@Z 000000018004e238     njsPool.obj
 0002:0000f24c       $stateUnwindMap$?Async_AfterBreak@Connection@@CAXPEAUuv_work_s@@@Z 000000018004e24c     njsConnection.obj
 0002:0000f24c       $stateUnwindMap$?Async_AfterRelease@Connection@@CAXPEAUuv_work_s@@@Z 000000018004e24c     njsConnection.obj
 0002:0000f24c       $stateUnwindMap$?Async_AfterRollback@Connection@@CAXPEAUuv_work_s@@@Z 000000018004e24c     njsConnection.obj
 0002:0000f24c       $stateUnwindMap$?Async_AfterCommit@Connection@@CAXPEAUuv_work_s@@@Z 000000018004e24c     njsConnection.obj
 0002:0000f24c       $stateUnwindMap$?Async_AfterTerminate@Pool@@CAXPEAUuv_work_s@@@Z 000000018004e24c     njsPool.obj
 0002:0000f24c       $stateUnwindMap$?Async_AfterWrite@ILob@@CAXPEAUuv_work_s@@@Z 000000018004e24c     njsIntLob.obj
 0002:0000f24c       $stateUnwindMap$?Async_AfterClose@ResultSet@@CAXPEAUuv_work_s@@@Z 000000018004e24c     njsResultSet.obj
 0002:0000f260       $ip2state$?Async_AfterTerminate@Pool@@CAXPEAUuv_work_s@@@Z 000000018004e260     njsPool.obj
 0002:0000f288       $unwind$??0eBaton@@QEAA@AEAIV?$Local@VFunction@v8@@@v8@@@Z 000000018004e288     njsConnection.obj
 0002:0000f2a0       $stateUnwindMap$??0eBaton@@QEAA@AEAIV?$Local@VFunction@v8@@@v8@@@Z 000000018004e2a0     njsConnection.obj
 0002:0000f2c8       $ip2state$??0eBaton@@QEAA@AEAIV?$Local@VFunction@v8@@@v8@@@Z 000000018004e2c8     njsConnection.obj
 0002:0000f300       $unwind$??1eBaton@@QEAA@XZ 000000018004e300     njsConnection.obj
 0002:0000f31c       $stateUnwindMap$??1eBaton@@QEAA@XZ 000000018004e31c     njsConnection.obj
 0002:0000f348       $ip2state$??1eBaton@@QEAA@XZ 000000018004e348     njsConnection.obj
 0002:0000f378       $unwind$?Init@Connection@@SAXV?$Local@VObject@v8@@@v8@@@Z 000000018004e378     njsConnection.obj
 0002:0000f394       $stateUnwindMap$?Init@Connection@@SAXV?$Local@VObject@v8@@@v8@@@Z 000000018004e394     njsConnection.obj
 0002:0000f3d0       $ip2state$?Init@Connection@@SAXV?$Local@VObject@v8@@@v8@@@Z 000000018004e3d0     njsConnection.obj
 0002:0000f438       $unwind$?connectionPropertyException@Connection@@CAXPEAV1@W4NJSErrorType@@V?$basic_string@DU?$char_traits@D@std@@V?$allocator@D@2@@std@@@Z 000000018004e438     njsConnection.obj
 0002:0000f45c       $stateUnwindMap$?lobPropertyException@ILob@@CAXPEAV1@W4NJSErrorType@@V?$basic_string@DU?$char_traits@D@std@@V?$allocator@D@2@@std@@@Z 000000018004e45c     njsIntLob.obj
 0002:0000f45c       $stateUnwindMap$?connectionPropertyException@Connection@@CAXPEAV1@W4NJSErrorType@@V?$basic_string@DU?$char_traits@D@std@@V?$allocator@D@2@@std@@@Z 000000018004e45c     njsConnection.obj
 0002:0000f480       $ip2state$?connectionPropertyException@Connection@@CAXPEAV1@W4NJSErrorType@@V?$basic_string@DU?$char_traits@D@std@@V?$allocator@D@2@@std@@@Z 000000018004e480     njsConnection.obj
 0002:0000f4c8       $unwind$?GetStmtCacheSize@Connection@@CAXV?$Local@VString@v8@@@v8@@AEBV?$PropertyCallbackInfo@VValue@v8@@@Nan@@@Z 000000018004e4c8     njsConnection.obj
 0002:0000f4e4       $stateUnwindMap$?GetStmtCacheSize@Connection@@CAXV?$Local@VString@v8@@@v8@@AEBV?$PropertyCallbackInfo@VValue@v8@@@Nan@@@Z 000000018004e4e4     njsConnection.obj
 0002:0000f51c       $tryMap$?GetStmtCacheSize@Connection@@CAXV?$Local@VString@v8@@@v8@@AEBV?$PropertyCallbackInfo@VValue@v8@@@Nan@@@Z 000000018004e51c     njsConnection.obj
 0002:0000f530       $handlerMap$0$?GetStmtCacheSize@Connection@@CAXV?$Local@VString@v8@@@v8@@AEBV?$PropertyCallbackInfo@VValue@v8@@@Nan@@@Z 000000018004e530     njsConnection.obj
 0002:0000f550       $ip2state$?GetStmtCacheSize@Connection@@CAXV?$Local@VString@v8@@@v8@@AEBV?$PropertyCallbackInfo@VValue@v8@@@Nan@@@Z 000000018004e550     njsConnection.obj
 0002:0000f5d8       $unwind$?catch$0@?0??GetStmtCacheSize@Connection@@CAXV?$Local@VString@v8@@@v8@@AEBV?$PropertyCallbackInfo@VValue@v8@@@Nan@@@Z@4HA 000000018004e5d8     njsConnection.obj
 0002:0000f5f0       $unwind$?SetStmtCacheSize@Connection@@CAXV?$Local@VString@v8@@@v8@@V?$Local@VValue@v8@@@3@AEBV?$PropertyCallbackInfo@X@Nan@@@Z 000000018004e5f0     njsConnection.obj
 0002:0000f608       $ip2state$?SetStmtCacheSize@Connection@@CAXV?$Local@VString@v8@@@v8@@V?$Local@VValue@v8@@@3@AEBV?$PropertyCallbackInfo@X@Nan@@@Z 000000018004e608     njsConnection.obj
 0002:0000f630       $unwind$?SetClientId@Connection@@CAXV?$Local@VString@v8@@@v8@@V?$Local@VValue@v8@@@3@AEBV?$PropertyCallbackInfo@X@Nan@@@Z 000000018004e630     njsConnection.obj
 0002:0000f650       $stateUnwindMap$?SetClientId@Connection@@CAXV?$Local@VString@v8@@@v8@@V?$Local@VValue@v8@@@3@AEBV?$PropertyCallbackInfo@X@Nan@@@Z 000000018004e650     njsConnection.obj
 0002:0000f6a8       $tryMap$?SetClientId@Connection@@CAXV?$Local@VString@v8@@@v8@@V?$Local@VValue@v8@@@3@AEBV?$PropertyCallbackInfo@X@Nan@@@Z 000000018004e6a8     njsConnection.obj
 0002:0000f6bc       $handlerMap$0$?SetClientId@Connection@@CAXV?$Local@VString@v8@@@v8@@V?$Local@VValue@v8@@@3@AEBV?$PropertyCallbackInfo@X@Nan@@@Z 000000018004e6bc     njsConnection.obj
 0002:0000f6d0       $ip2state$?SetClientId@Connection@@CAXV?$Local@VString@v8@@@v8@@V?$Local@VValue@v8@@@3@AEBV?$PropertyCallbackInfo@X@Nan@@@Z 000000018004e6d0     njsConnection.obj
 0002:0000f788       $unwind$?catch$0@?0??SetClientId@Connection@@CAXV?$Local@VString@v8@@@v8@@V?$Local@VValue@v8@@@3@AEBV?$PropertyCallbackInfo@X@Nan@@@Z@4HA 000000018004e788     njsConnection.obj
 0002:0000f7a0       $unwind$?SetModule@Connection@@CAXV?$Local@VString@v8@@@v8@@V?$Local@VValue@v8@@@3@AEBV?$PropertyCallbackInfo@X@Nan@@@Z 000000018004e7a0     njsConnection.obj
 0002:0000f7c0       $stateUnwindMap$?SetModule@Connection@@CAXV?$Local@VString@v8@@@v8@@V?$Local@VValue@v8@@@3@AEBV?$PropertyCallbackInfo@X@Nan@@@Z 000000018004e7c0     njsConnection.obj
 0002:0000f818       $tryMap$?SetModule@Connection@@CAXV?$Local@VString@v8@@@v8@@V?$Local@VValue@v8@@@3@AEBV?$PropertyCallbackInfo@X@Nan@@@Z 000000018004e818     njsConnection.obj
 0002:0000f82c       $handlerMap$0$?SetModule@Connection@@CAXV?$Local@VString@v8@@@v8@@V?$Local@VValue@v8@@@3@AEBV?$PropertyCallbackInfo@X@Nan@@@Z 000000018004e82c     njsConnection.obj
 0002:0000f840       $ip2state$?SetModule@Connection@@CAXV?$Local@VString@v8@@@v8@@V?$Local@VValue@v8@@@3@AEBV?$PropertyCallbackInfo@X@Nan@@@Z 000000018004e840     njsConnection.obj
 0002:0000f8f8       $unwind$?catch$0@?0??SetModule@Connection@@CAXV?$Local@VString@v8@@@v8@@V?$Local@VValue@v8@@@3@AEBV?$PropertyCallbackInfo@X@Nan@@@Z@4HA 000000018004e8f8     njsConnection.obj
 0002:0000f910       $unwind$?SetAction@Connection@@CAXV?$Local@VString@v8@@@v8@@V?$Local@VValue@v8@@@3@AEBV?$PropertyCallbackInfo@X@Nan@@@Z 000000018004e910     njsConnection.obj
 0002:0000f930       $stateUnwindMap$?SetAction@Connection@@CAXV?$Local@VString@v8@@@v8@@V?$Local@VValue@v8@@@3@AEBV?$PropertyCallbackInfo@X@Nan@@@Z 000000018004e930     njsConnection.obj
 0002:0000f988       $tryMap$?SetAction@Connection@@CAXV?$Local@VString@v8@@@v8@@V?$Local@VValue@v8@@@3@AEBV?$PropertyCallbackInfo@X@Nan@@@Z 000000018004e988     njsConnection.obj
 0002:0000f99c       $handlerMap$0$?SetAction@Connection@@CAXV?$Local@VString@v8@@@v8@@V?$Local@VValue@v8@@@3@AEBV?$PropertyCallbackInfo@X@Nan@@@Z 000000018004e99c     njsConnection.obj
 0002:0000f9b0       $ip2state$?SetAction@Connection@@CAXV?$Local@VString@v8@@@v8@@V?$Local@VValue@v8@@@3@AEBV?$PropertyCallbackInfo@X@Nan@@@Z 000000018004e9b0     njsConnection.obj
 0002:0000fa68       $unwind$?catch$0@?0??SetAction@Connection@@CAXV?$Local@VString@v8@@@v8@@V?$Local@VValue@v8@@@3@AEBV?$PropertyCallbackInfo@X@Nan@@@Z@4HA 000000018004ea68     njsConnection.obj
 0002:0000fa80       $unwind$?GetOracleServerVersion@Connection@@CAXV?$Local@VString@v8@@@v8@@AEBV?$PropertyCallbackInfo@VValue@v8@@@Nan@@@Z 000000018004ea80     njsConnection.obj
 0002:0000faa0       $stateUnwindMap$?GetOracleServerVersion@Connection@@CAXV?$Local@VString@v8@@@v8@@AEBV?$PropertyCallbackInfo@VValue@v8@@@Nan@@@Z 000000018004eaa0     njsConnection.obj
 0002:0000fad8       $tryMap$?GetOracleServerVersion@Connection@@CAXV?$Local@VString@v8@@@v8@@AEBV?$PropertyCallbackInfo@VValue@v8@@@Nan@@@Z 000000018004ead8     njsConnection.obj
 0002:0000faec       $handlerMap$0$?GetOracleServerVersion@Connection@@CAXV?$Local@VString@v8@@@v8@@AEBV?$PropertyCallbackInfo@VValue@v8@@@Nan@@@Z 000000018004eaec     njsConnection.obj
 0002:0000fb00       $ip2state$?GetOracleServerVersion@Connection@@CAXV?$Local@VString@v8@@@v8@@AEBV?$PropertyCallbackInfo@VValue@v8@@@Nan@@@Z 000000018004eb00     njsConnection.obj
 0002:0000fb80       $unwind$?catch$0@?0??GetOracleServerVersion@Connection@@CAXV?$Local@VString@v8@@@v8@@AEBV?$PropertyCallbackInfo@VValue@v8@@@Nan@@@Z@4HA 000000018004eb80     njsConnection.obj
 0002:0000fb98       $unwind$?SetOracleServerVersion@Connection@@CAXV?$Local@VString@v8@@@v8@@V?$Local@VValue@v8@@@3@AEBV?$PropertyCallbackInfo@X@Nan@@@Z 000000018004eb98     njsConnection.obj
 0002:0000fbb0       $ip2state$?SetOracleServerVersion@Connection@@CAXV?$Local@VString@v8@@@v8@@V?$Local@VValue@v8@@@3@AEBV?$PropertyCallbackInfo@X@Nan@@@Z 000000018004ebb0     njsConnection.obj
 0002:0000fbd8       $unwind$?Execute@Connection@@CAXAEBV?$FunctionCallbackInfo@VValue@v8@@@Nan@@@Z 000000018004ebd8     njsConnection.obj
 0002:0000fc04       $stateUnwindMap$?Execute@Connection@@CAXAEBV?$FunctionCallbackInfo@VValue@v8@@@Nan@@@Z 000000018004ec04     njsConnection.obj
 0002:0000fc50       $ip2state$?Execute@Connection@@CAXAEBV?$FunctionCallbackInfo@VValue@v8@@@Nan@@@Z 000000018004ec50     njsConnection.obj
 0002:0000fce8       $unwind$?ProcessBinds@Connection@@CAXAEBV?$FunctionCallbackInfo@VValue@v8@@@Nan@@IPEAUeBaton@@@Z 000000018004ece8     njsConnection.obj
 0002:0000fd04       $stateUnwindMap$?ProcessBinds@Connection@@CAXAEBV?$FunctionCallbackInfo@VValue@v8@@@Nan@@IPEAUeBaton@@@Z 000000018004ed04     njsConnection.obj
 0002:0000fd04       $stateUnwindMap$?GetOutBindParams@Connection@@CAXGPEAUBind@@PEAUeBaton@@@Z 000000018004ed04     njsConnection.obj
 0002:0000fd10       $ip2state$?ProcessBinds@Connection@@CAXAEBV?$FunctionCallbackInfo@VValue@v8@@@Nan@@IPEAUeBaton@@@Z 000000018004ed10     njsConnection.obj
 0002:0000fd28       $unwind$?ProcessOptions@Connection@@CAXAEBV?$FunctionCallbackInfo@VValue@v8@@@Nan@@IPEAUeBaton@@@Z 000000018004ed28     njsConnection.obj
 0002:0000fd54       $stateUnwindMap$?ProcessOptions@Connection@@CAXAEBV?$FunctionCallbackInfo@VValue@v8@@@Nan@@IPEAUeBaton@@@Z 000000018004ed54     njsConnection.obj
 0002:0000fd70       $ip2state$?ProcessOptions@Connection@@CAXAEBV?$FunctionCallbackInfo@VValue@v8@@@Nan@@IPEAUeBaton@@@Z 000000018004ed70     njsConnection.obj
 0002:0000fda8       $unwind$?GetBinds@Connection@@CAXV?$Local@VObject@v8@@@v8@@PEAUeBaton@@@Z 000000018004eda8     njsConnection.obj
 0002:0000fdd0       $stateUnwindMap$?GetBinds@Connection@@CAXV?$Local@VObject@v8@@@v8@@PEAUeBaton@@@Z 000000018004edd0     njsConnection.obj
 0002:0000fe00       $ip2state$?GetBinds@Connection@@CAXV?$Local@VObject@v8@@@v8@@PEAUeBaton@@@Z 000000018004ee00     njsConnection.obj
 0002:0000fe58       $unwind$?GetBinds@Connection@@CAXV?$Local@VArray@v8@@@v8@@PEAUeBaton@@@Z 000000018004ee58     njsConnection.obj
 0002:0000fe70       $stateUnwindMap$?GetBinds@Connection@@CAXV?$Local@VArray@v8@@@v8@@PEAUeBaton@@@Z 000000018004ee70     njsConnection.obj
 0002:0000fe80       $ip2state$?GetBinds@Connection@@CAXV?$Local@VArray@v8@@@v8@@PEAUeBaton@@@Z 000000018004ee80     njsConnection.obj
 0002:0000fea8       $unwind$?GetBindUnit@Connection@@CAXV?$Local@VValue@v8@@@v8@@PEAUBind@@PEAUeBaton@@@Z 000000018004eea8     njsConnection.obj
 0002:0000fecc       $stateUnwindMap$?GetBindUnit@Connection@@CAXV?$Local@VValue@v8@@@v8@@PEAUBind@@PEAUeBaton@@@Z 000000018004eecc     njsConnection.obj
 0002:0000fee0       $ip2state$?GetBindUnit@Connection@@CAXV?$Local@VValue@v8@@@v8@@PEAUBind@@PEAUeBaton@@@Z 000000018004eee0     njsConnection.obj
 0002:0000ff08       $unwind$?GetOutBindParams@Connection@@CAXGPEAUBind@@PEAUeBaton@@@Z 000000018004ef08     njsConnection.obj
 0002:0000ff28       $ip2state$?GetOutBindParams@Connection@@CAXGPEAUBind@@PEAUeBaton@@@Z 000000018004ef28     njsConnection.obj
 0002:0000ff48       $unwind$?GetInBindParams@Connection@@CAXV?$Local@VValue@v8@@@v8@@PEAUBind@@PEAUeBaton@@W4BindType@@@Z 000000018004ef48     njsConnection.obj
 0002:0000ff60       $stateUnwindMap$?GetOutBinds@Connection@@CA?AV?$Local@VValue@v8@@@v8@@PEAUeBaton@@@Z 000000018004ef60     njsConnection.obj
 0002:0000ff60       $stateUnwindMap$?GetValueLob@Connection@@CA?AV?$Local@VValue@v8@@@v8@@PEAUeBaton@@PEAUBind@@@Z 000000018004ef60     njsConnection.obj
 0002:0000ff60       $stateUnwindMap$?GetValueRefCursor@Connection@@CA?AV?$Local@VValue@v8@@@v8@@PEAUeBaton@@PEAUBind@@@Z 000000018004ef60     njsConnection.obj
 0002:0000ff60       $stateUnwindMap$?GetInBindParams@Connection@@CAXV?$Local@VValue@v8@@@v8@@PEAUBind@@PEAUeBaton@@W4BindType@@@Z 000000018004ef60     njsConnection.obj
 0002:0000ff68       $ip2state$?GetInBindParams@Connection@@CAXV?$Local@VValue@v8@@@v8@@PEAUBind@@PEAUeBaton@@W4BindType@@@Z 000000018004ef68     njsConnection.obj
 0002:0000ff80       $unwind$?GetInBindParamsScalar@Connection@@CAXV?$Local@VValue@v8@@@v8@@PEAUBind@@PEAUeBaton@@W4BindType@@@Z 000000018004ef80     njsConnection.obj
 0002:0000ffa4       $stateUnwindMap$?GetInBindParamsScalar@Connection@@CAXV?$Local@VValue@v8@@@v8@@PEAUBind@@PEAUeBaton@@W4BindType@@@Z 000000018004efa4     njsConnection.obj
 0002:0000ffc0       $ip2state$?GetInBindParamsScalar@Connection@@CAXV?$Local@VValue@v8@@@v8@@PEAUBind@@PEAUeBaton@@W4BindType@@@Z 000000018004efc0     njsConnection.obj
 0002:00010010       $unwind$?GetInBindParamsArray@Connection@@CAXV?$Local@VArray@v8@@@v8@@PEAUBind@@PEAUeBaton@@W4BindType@@@Z 000000018004f010     njsConnection.obj
 0002:00010038       $stateUnwindMap$?GetInBindParamsArray@Connection@@CAXV?$Local@VArray@v8@@@v8@@PEAUBind@@PEAUeBaton@@W4BindType@@@Z 000000018004f038     njsConnection.obj
 0002:00010048       $ip2state$?GetInBindParamsArray@Connection@@CAXV?$Local@VArray@v8@@@v8@@PEAUBind@@PEAUeBaton@@W4BindType@@@Z 000000018004f048     njsConnection.obj
 0002:00010070       $unwind$?AllocateBindArray@Connection@@CA_NGPEAUBind@@PEAUeBaton@@PEA_K@Z 000000018004f070     njsConnection.obj
 0002:0001008c       $unwind$?Async_Execute@Connection@@CAXPEAUuv_work_s@@@Z 000000018004f08c     njsConnection.obj
 0002:000100b0       $stateUnwindMap$?Async_Execute@Connection@@CAXPEAUuv_work_s@@@Z 000000018004f0b0     njsConnection.obj
 0002:000100c8       $tryMap$?Async_Execute@Connection@@CAXPEAUuv_work_s@@@Z 000000018004f0c8     njsConnection.obj
 0002:000100dc       $handlerMap$0$?Async_Execute@Connection@@CAXPEAUuv_work_s@@@Z 000000018004f0dc     njsConnection.obj
 0002:000100f0       $ip2state$?Async_Execute@Connection@@CAXPEAUuv_work_s@@@Z 000000018004f0f0     njsConnection.obj
 0002:00010190       $unwind$?catch$0@?0??Async_Execute@Connection@@CAXPEAUuv_work_s@@@Z@4HA 000000018004f190     njsConnection.obj
 0002:000101a8       $unwind$?PrepareAndBind@Connection@@CAXPEAUeBaton@@@Z 000000018004f1a8     njsConnection.obj
 0002:000101bc       $chain$4$?PrepareAndBind@Connection@@CAXPEAUeBaton@@@Z 000000018004f1bc     njsConnection.obj
 0002:000101e0       $chain$5$?PrepareAndBind@Connection@@CAXPEAUeBaton@@@Z 000000018004f1e0     njsConnection.obj
 0002:000101f0       $unwind$?CopyMetaData@Connection@@SAXPEAV?$basic_string@DU?$char_traits@D@std@@V?$allocator@D@2@@std@@PEBUMetaData@dpi@@I@Z 000000018004f1f0     njsConnection.obj
 0002:00010204       $chain$1$?CopyMetaData@Connection@@SAXPEAV?$basic_string@DU?$char_traits@D@std@@V?$allocator@D@2@@std@@PEBUMetaData@dpi@@I@Z 000000018004f204     njsConnection.obj
 0002:0001021c       $chain$2$?CopyMetaData@Connection@@SAXPEAV?$basic_string@DU?$char_traits@D@std@@V?$allocator@D@2@@std@@PEBUMetaData@dpi@@I@Z 000000018004f21c     njsConnection.obj
 0002:0001022c       $unwind$?MapByName@Connection@@CAHPEAUeBaton@@AEAV?$basic_string@DU?$char_traits@D@std@@V?$allocator@D@2@@std@@AEAG@Z 000000018004f22c     njsConnection.obj
 0002:0001023c       $chain$2$?MapByName@Connection@@CAHPEAUeBaton@@AEAV?$basic_string@DU?$char_traits@D@std@@V?$allocator@D@2@@std@@AEAG@Z 000000018004f23c     njsConnection.obj
 0002:00010258       $chain$3$?MapByName@Connection@@CAHPEAUeBaton@@AEAV?$basic_string@DU?$char_traits@D@std@@V?$allocator@D@2@@std@@AEAG@Z 000000018004f258     njsConnection.obj
 0002:00010268       $unwind$?DoDefines@Connection@@SAXPEAUeBaton@@PEBUMetaData@dpi@@I@Z 000000018004f268     njsConnection.obj
 0002:00010288       $chain$0$?DoDefines@Connection@@SAXPEAUeBaton@@PEBUMetaData@dpi@@I@Z 000000018004f288     njsConnection.obj
 0002:0001029c       $chain$1$?DoDefines@Connection@@SAXPEAUeBaton@@PEBUMetaData@dpi@@I@Z 000000018004f29c     njsConnection.obj
 0002:000102ac       $chain$2$?DoDefines@Connection@@SAXPEAUeBaton@@PEBUMetaData@dpi@@I@Z 000000018004f2ac     njsConnection.obj
 0002:000102c0       $unwind$?Descr2Double@Connection@@CAXPEAUDefine@@II_N@Z 000000018004f2c0     njsConnection.obj
 0002:000102cc       $chain$5$?Descr2Double@Connection@@CAXPEAUDefine@@II_N@Z 000000018004f2cc     njsConnection.obj
 0002:000102f4       $chain$6$?Descr2Double@Connection@@CAXPEAUDefine@@II_N@Z 000000018004f2f4     njsConnection.obj
 0002:00010304       $unwind$?Descr2protoILob@Connection@@CAXPEAUeBaton@@II@Z 000000018004f304     njsConnection.obj
 0002:00010324       $stateUnwindMap$?Descr2protoILob@Connection@@CAXPEAUeBaton@@II@Z 000000018004f324     njsConnection.obj
 0002:00010338       $ip2state$?Descr2protoILob@Connection@@CAXPEAUeBaton@@II@Z 000000018004f338     njsConnection.obj
 0002:00010360       $unwind$?Async_AfterExecute@Connection@@CAXPEAUuv_work_s@@@Z 000000018004f360     njsConnection.obj
 0002:0001037c       $stateUnwindMap$?Async_AfterExecute@Connection@@CAXPEAUuv_work_s@@@Z 000000018004f37c     njsConnection.obj
 0002:00010390       $ip2state$?Async_AfterExecute@Connection@@CAXPEAUuv_work_s@@@Z 000000018004f390     njsConnection.obj
 0002:000103b8       $unwind$?GetMetaData@Connection@@SA?AV?$Local@VValue@v8@@@v8@@PEAV?$basic_string@DU?$char_traits@D@std@@V?$allocator@D@2@@std@@I@Z 000000018004f3b8     njsConnection.obj
 0002:000103d8       $ip2state$?GetMetaData@Connection@@SA?AV?$Local@VValue@v8@@@v8@@PEAV?$basic_string@DU?$char_traits@D@std@@V?$allocator@D@2@@std@@I@Z 000000018004f3d8     njsConnection.obj
 0002:000103f0       $unwind$?GetRows@Connection@@SA?AV?$Local@VValue@v8@@@v8@@PEAUeBaton@@@Z 000000018004f3f0     njsConnection.obj
 0002:00010418       $stateUnwindMap$?GetRows@Connection@@SA?AV?$Local@VValue@v8@@@v8@@PEAUeBaton@@@Z 000000018004f418     njsConnection.obj
 0002:00010420       $ip2state$?GetRows@Connection@@SA?AV?$Local@VValue@v8@@@v8@@PEAUeBaton@@@Z 000000018004f420     njsConnection.obj
 0002:00010438       $unwind$?GetValue@Connection@@CA?AV?$Local@VValue@v8@@@v8@@PEAUeBaton@@_NII@Z 000000018004f438     njsConnection.obj
 0002:00010454       $stateUnwindMap$?GetValue@Connection@@CA?AV?$Local@VValue@v8@@@v8@@PEAUeBaton@@_NII@Z 000000018004f454     njsConnection.obj
 0002:00010460       $ip2state$?GetValue@Connection@@CA?AV?$Local@VValue@v8@@@v8@@PEAUeBaton@@_NII@Z 000000018004f460     njsConnection.obj
 0002:00010478       $unwind$?GetValueRefCursor@Connection@@CA?AV?$Local@VValue@v8@@@v8@@PEAUeBaton@@PEAUBind@@@Z 000000018004f478     njsConnection.obj
 0002:00010490       $ip2state$?GetValueRefCursor@Connection@@CA?AV?$Local@VValue@v8@@@v8@@PEAUeBaton@@PEAUBind@@@Z 000000018004f490     njsConnection.obj
 0002:000104a8       $unwind$?GetValueLob@Connection@@CA?AV?$Local@VValue@v8@@@v8@@PEAUeBaton@@PEAUBind@@@Z 000000018004f4a8     njsConnection.obj
 0002:000104c8       $ip2state$?GetValueLob@Connection@@CA?AV?$Local@VValue@v8@@@v8@@PEAUeBaton@@PEAUBind@@@Z 000000018004f4c8     njsConnection.obj
 0002:000104e0       $unwind$?GetValueCommon@Connection@@CA?AV?$Local@VValue@v8@@@v8@@PEAUeBaton@@FGPEAXG@Z 000000018004f4e0     njsConnection.obj
 0002:00010504       $stateUnwindMap$?GetValueCommon@Connection@@CA?AV?$Local@VValue@v8@@@v8@@PEAUeBaton@@FGPEAXG@Z 000000018004f504     njsConnection.obj
 0002:00010510       $ip2state$?GetValueCommon@Connection@@CA?AV?$Local@VValue@v8@@@v8@@PEAUeBaton@@FGPEAXG@Z 000000018004f510     njsConnection.obj
 0002:00010530       $unwind$?GetArrayValue@Connection@@CA?AV?$Local@VValue@v8@@@v8@@PEAUeBaton@@PEAUBind@@K@Z 000000018004f530     njsConnection.obj
 0002:00010558       $stateUnwindMap$?GetArrayValue@Connection@@CA?AV?$Local@VValue@v8@@@v8@@PEAUeBaton@@PEAUBind@@K@Z 000000018004f558     njsConnection.obj
 0002:00010560       $ip2state$?GetArrayValue@Connection@@CA?AV?$Local@VValue@v8@@@v8@@PEAUeBaton@@PEAUBind@@K@Z 000000018004f560     njsConnection.obj
 0002:00010580       $unwind$?GetOutBinds@Connection@@CA?AV?$Local@VValue@v8@@@v8@@PEAUeBaton@@@Z 000000018004f580     njsConnection.obj
 0002:00010598       $ip2state$?GetOutBinds@Connection@@CA?AV?$Local@VValue@v8@@@v8@@PEAUeBaton@@@Z 000000018004f598     njsConnection.obj
 0002:000105b0       $unwind$?GetOutBindArray@Connection@@CA?AV?$Local@VValue@v8@@@v8@@PEAUeBaton@@@Z 000000018004f5b0     njsConnection.obj
 0002:000105d0       $stateUnwindMap$?GetOutBindArray@Connection@@CA?AV?$Local@VValue@v8@@@v8@@PEAUeBaton@@@Z 000000018004f5d0     njsConnection.obj
 0002:000105e0       $ip2state$?GetOutBindArray@Connection@@CA?AV?$Local@VValue@v8@@@v8@@PEAUeBaton@@@Z 000000018004f5e0     njsConnection.obj
 0002:00010608       $unwind$?GetOutBindObject@Connection@@CA?AV?$Local@VValue@v8@@@v8@@PEAUeBaton@@@Z 000000018004f608     njsConnection.obj
 0002:00010628       $stateUnwindMap$?GetOutBindObject@Connection@@CA?AV?$Local@VValue@v8@@@v8@@PEAUeBaton@@@Z 000000018004f628     njsConnection.obj
 0002:00010638       $ip2state$?GetOutBindObject@Connection@@CA?AV?$Local@VValue@v8@@@v8@@PEAUeBaton@@@Z 000000018004f638     njsConnection.obj
 0002:00010660       $unwind$?Release@Connection@@CAXAEBV?$FunctionCallbackInfo@VValue@v8@@@Nan@@@Z 000000018004f660     njsConnection.obj
 0002:00010688       $stateUnwindMap$?Release@Connection@@CAXAEBV?$FunctionCallbackInfo@VValue@v8@@@Nan@@@Z 000000018004f688     njsConnection.obj
 0002:000106d0       $ip2state$?Release@Connection@@CAXAEBV?$FunctionCallbackInfo@VValue@v8@@@Nan@@@Z 000000018004f6d0     njsConnection.obj
 0002:00010768       $unwind$?Async_Release@Connection@@CAXPEAUuv_work_s@@@Z 000000018004f768     njsConnection.obj
 0002:0001077c       $tryMap$?Async_Release@Connection@@CAXPEAUuv_work_s@@@Z 000000018004f77c     njsConnection.obj
 0002:00010790       $handlerMap$0$?Async_Release@Connection@@CAXPEAUuv_work_s@@@Z 000000018004f790     njsConnection.obj
 0002:000107a8       $ip2state$?Async_Release@Connection@@CAXPEAUuv_work_s@@@Z 000000018004f7a8     njsConnection.obj
 0002:000107d8       $unwind$?catch$0@?0??Async_Release@Connection@@CAXPEAUuv_work_s@@@Z@4HA 000000018004f7d8     njsConnection.obj
 0002:000107f0       $unwind$?Async_AfterBreak@Connection@@CAXPEAUuv_work_s@@@Z 000000018004f7f0     njsConnection.obj
 0002:000107f0       $unwind$?Async_AfterCommit@Connection@@CAXPEAUuv_work_s@@@Z 000000018004f7f0     njsConnection.obj
 0002:000107f0       $unwind$?Async_AfterRelease@Connection@@CAXPEAUuv_work_s@@@Z 000000018004f7f0     njsConnection.obj
 0002:000107f0       $unwind$?Async_AfterRollback@Connection@@CAXPEAUuv_work_s@@@Z 000000018004f7f0     njsConnection.obj
 0002:00010808       $ip2state$?Async_AfterRollback@Connection@@CAXPEAUuv_work_s@@@Z 000000018004f808     njsConnection.obj
 0002:00010808       $ip2state$?Async_AfterRelease@Connection@@CAXPEAUuv_work_s@@@Z 000000018004f808     njsConnection.obj
 0002:00010808       $ip2state$?Async_AfterCommit@Connection@@CAXPEAUuv_work_s@@@Z 000000018004f808     njsConnection.obj
 0002:00010808       $ip2state$?Async_AfterBreak@Connection@@CAXPEAUuv_work_s@@@Z 000000018004f808     njsConnection.obj
 0002:00010830       $unwind$?Commit@Connection@@CAXAEBV?$FunctionCallbackInfo@VValue@v8@@@Nan@@@Z 000000018004f830     njsConnection.obj
 0002:00010858       $stateUnwindMap$?Rollback@Connection@@CAXAEBV?$FunctionCallbackInfo@VValue@v8@@@Nan@@@Z 000000018004f858     njsConnection.obj
 0002:00010858       $stateUnwindMap$?Close@ResultSet@@CAXAEBV?$FunctionCallbackInfo@VValue@v8@@@Nan@@@Z 000000018004f858     njsResultSet.obj
 0002:00010858       $stateUnwindMap$?Write@ILob@@CAXAEBV?$FunctionCallbackInfo@VValue@v8@@@Nan@@@Z 000000018004f858     njsIntLob.obj
 0002:00010858       $stateUnwindMap$?Commit@Connection@@CAXAEBV?$FunctionCallbackInfo@VValue@v8@@@Nan@@@Z 000000018004f858     njsConnection.obj
 0002:00010858       $stateUnwindMap$?Read@ILob@@CAXAEBV?$FunctionCallbackInfo@VValue@v8@@@Nan@@@Z 000000018004f858     njsIntLob.obj
 0002:00010858       $stateUnwindMap$?Break@Connection@@CAXAEBV?$FunctionCallbackInfo@VValue@v8@@@Nan@@@Z 000000018004f858     njsConnection.obj
 0002:00010890       $ip2state$?Commit@Connection@@CAXAEBV?$FunctionCallbackInfo@VValue@v8@@@Nan@@@Z 000000018004f890     njsConnection.obj
 0002:00010918       $unwind$?Async_Commit@Connection@@CAXPEAUuv_work_s@@@Z 000000018004f918     njsConnection.obj
 0002:0001092c       $tryMap$?Async_Commit@Connection@@CAXPEAUuv_work_s@@@Z 000000018004f92c     njsConnection.obj
 0002:00010940       $handlerMap$0$?Async_Commit@Connection@@CAXPEAUuv_work_s@@@Z 000000018004f940     njsConnection.obj
 0002:00010958       $ip2state$?Async_Commit@Connection@@CAXPEAUuv_work_s@@@Z 000000018004f958     njsConnection.obj
 0002:00010988       $unwind$?catch$0@?0??Async_Commit@Connection@@CAXPEAUuv_work_s@@@Z@4HA 000000018004f988     njsConnection.obj
 0002:000109a0       $unwind$?Rollback@Connection@@CAXAEBV?$FunctionCallbackInfo@VValue@v8@@@Nan@@@Z 000000018004f9a0     njsConnection.obj
 0002:000109d0       $ip2state$?Rollback@Connection@@CAXAEBV?$FunctionCallbackInfo@VValue@v8@@@Nan@@@Z 000000018004f9d0     njsConnection.obj
 0002:00010a58       $unwind$?Async_Rollback@Connection@@CAXPEAUuv_work_s@@@Z 000000018004fa58     njsConnection.obj
 0002:00010a6c       $tryMap$?Async_Rollback@Connection@@CAXPEAUuv_work_s@@@Z 000000018004fa6c     njsConnection.obj
 0002:00010a80       $handlerMap$0$?Async_Rollback@Connection@@CAXPEAUuv_work_s@@@Z 000000018004fa80     njsConnection.obj
 0002:00010a98       $ip2state$?Async_Rollback@Connection@@CAXPEAUuv_work_s@@@Z 000000018004fa98     njsConnection.obj
 0002:00010ac8       $unwind$?catch$0@?0??Async_Rollback@Connection@@CAXPEAUuv_work_s@@@Z@4HA 000000018004fac8     njsConnection.obj
 0002:00010ae0       $unwind$?Break@Connection@@CAXAEBV?$FunctionCallbackInfo@VValue@v8@@@Nan@@@Z 000000018004fae0     njsConnection.obj
 0002:00010b10       $ip2state$?Break@Connection@@CAXAEBV?$FunctionCallbackInfo@VValue@v8@@@Nan@@@Z 000000018004fb10     njsConnection.obj
 0002:00010b98       $unwind$?Async_Break@Connection@@CAXPEAUuv_work_s@@@Z 000000018004fb98     njsConnection.obj
 0002:00010bac       $tryMap$?Async_Break@Connection@@CAXPEAUuv_work_s@@@Z 000000018004fbac     njsConnection.obj
 0002:00010bc0       $handlerMap$0$?Async_Break@Connection@@CAXPEAUuv_work_s@@@Z 000000018004fbc0     njsConnection.obj
 0002:00010bd8       $ip2state$?Async_Break@Connection@@CAXPEAUuv_work_s@@@Z 000000018004fbd8     njsConnection.obj
 0002:00010c08       $unwind$?catch$0@?0??Async_Break@Connection@@CAXPEAUuv_work_s@@@Z@4HA 000000018004fc08     njsConnection.obj
 0002:00010c20       $unwind$?cbDynBufferAllocate@Connection@@CAXPEAX_NII@Z 000000018004fc20     njsConnection.obj
 0002:00010c48       $stateUnwindMap$?cbDynBufferAllocate@Connection@@CAXPEAX_NII@Z 000000018004fc48     njsConnection.obj
 0002:00010c50       $ip2state$?cbDynBufferAllocate@Connection@@CAXPEAX_NII@Z 000000018004fc50     njsConnection.obj
 0002:00010c80       $unwind$?NewLob@Connection@@CA?AV?$Local@VValue@v8@@@v8@@PEAUeBaton@@PEAVProtoILob@@@Z 000000018004fc80     njsConnection.obj
 0002:00010c9c       $stateUnwindMap$?NewLob@Connection@@CA?AV?$Local@VValue@v8@@@v8@@PEAUeBaton@@PEAVProtoILob@@@Z 000000018004fc9c     njsConnection.obj
 0002:00010ca8       $ip2state$?NewLob@Connection@@CA?AV?$Local@VValue@v8@@@v8@@PEAUeBaton@@PEAVProtoILob@@@Z 000000018004fca8     njsConnection.obj
 0002:00010cc0       $chain$0$?_Reallocate@?$vector@PEAUBind@@V?$allocator@PEAUBind@@@std@@@std@@IEAAX_K@Z 000000018004fcc0     njsConnection.obj
 0002:00010cd4       $chain$1$?_Reallocate@?$vector@PEAUBind@@V?$allocator@PEAUBind@@@std@@@std@@IEAAX_K@Z 000000018004fcd4     njsConnection.obj
 0002:00010ce4       $unwind$??$New@VString@v8@@V?$basic_string@DU?$char_traits@D@std@@V?$allocator@D@2@@std@@@Nan@@YA?AV?$MaybeLocal@VString@v8@@@v8@@V?$basic_string@DU?$char_traits@D@std@@V?$allocator@D@2@@std@@@Z 000000018004fce4     njsConnection.obj
 0002:00010d00       $stateUnwindMap$??$New@VString@v8@@V?$basic_string@DU?$char_traits@D@std@@V?$allocator@D@2@@std@@@Nan@@YA?AV?$MaybeLocal@VString@v8@@@v8@@V?$basic_string@DU?$char_traits@D@std@@V?$allocator@D@2@@std@@@Z 000000018004fd00     njsConnection.obj
 0002:00010d08       $ip2state$??$New@VString@v8@@V?$basic_string@DU?$char_traits@D@std@@V?$allocator@D@2@@std@@@Nan@@YA?AV?$MaybeLocal@VString@v8@@@v8@@V?$basic_string@DU?$char_traits@D@std@@V?$allocator@D@2@@std@@@Z 000000018004fd08     njsConnection.obj
 0002:00010d20       $unwind$?insert@?$basic_string@DU?$char_traits@D@std@@V?$allocator@D@2@@std@@QEAAAEAV12@_KPEBD0@Z 000000018004fd20     njsConnection.obj
 0002:00010d30       $chain$0$?insert@?$basic_string@DU?$char_traits@D@std@@V?$allocator@D@2@@std@@QEAAAEAV12@_KPEBD0@Z 000000018004fd30     njsConnection.obj
 0002:00010d44       $chain$1$?insert@?$basic_string@DU?$char_traits@D@std@@V?$allocator@D@2@@std@@QEAAAEAV12@_KPEBD0@Z 000000018004fd44     njsConnection.obj
 0002:00010d54       $unwind$?insert@?$basic_string@DU?$char_traits@D@std@@V?$allocator@D@2@@std@@QEAAAEAV12@_KAEBV12@00@Z 000000018004fd54     njsConnection.obj
 0002:00010d64       $chain$0$?insert@?$basic_string@DU?$char_traits@D@std@@V?$allocator@D@2@@std@@QEAAAEAV12@_KAEBV12@00@Z 000000018004fd64     njsConnection.obj
 0002:00010d78       $chain$1$?insert@?$basic_string@DU?$char_traits@D@std@@V?$allocator@D@2@@std@@QEAAAEAV12@_KAEBV12@00@Z 000000018004fd78     njsConnection.obj
 0002:00010d8c       $chain$2$?insert@?$basic_string@DU?$char_traits@D@std@@V?$allocator@D@2@@std@@QEAAAEAV12@_KAEBV12@00@Z 000000018004fd8c     njsConnection.obj
 0002:00010d9c       $chain$4$?insert@?$basic_string@DU?$char_traits@D@std@@V?$allocator@D@2@@std@@QEAAAEAV12@_KAEBV12@00@Z 000000018004fd9c     njsConnection.obj
 0002:00010db0       $chain$5$?insert@?$basic_string@DU?$char_traits@D@std@@V?$allocator@D@2@@std@@QEAAAEAV12@_KAEBV12@00@Z 000000018004fdb0     njsConnection.obj
 0002:00010dc0       $unwind$??0rsBaton@@QEAA@AEAIV?$Local@VFunction@v8@@@v8@@@Z 000000018004fdc0     njsResultSet.obj
 0002:00010dd4       $stateUnwindMap$??0rsBaton@@QEAA@AEAIV?$Local@VFunction@v8@@@v8@@@Z 000000018004fdd4     njsResultSet.obj
 0002:00010de8       $ip2state$??0rsBaton@@QEAA@AEAIV?$Local@VFunction@v8@@@v8@@@Z 000000018004fde8     njsResultSet.obj
 0002:00010e10       $unwind$??1rsBaton@@QEAA@XZ 000000018004fe10     njsResultSet.obj
 0002:00010e24       $stateUnwindMap$??1rsBaton@@QEAA@XZ 000000018004fe24     njsResultSet.obj
 0002:00010e30       $ip2state$??1rsBaton@@QEAA@XZ 000000018004fe30     njsResultSet.obj
 0002:00010e48       $unwind$?setResultSet@ResultSet@@QEAAXPEAVStmt@dpi@@PEAUeBaton@@@Z 000000018004fe48     njsResultSet.obj
 0002:00010e68       $stateUnwindMap$?setResultSet@ResultSet@@QEAAXPEAVStmt@dpi@@PEAUeBaton@@@Z 000000018004fe68     njsResultSet.obj
 0002:00010e70       $ip2state$?setResultSet@ResultSet@@QEAAXPEAVStmt@dpi@@PEAUeBaton@@@Z 000000018004fe70     njsResultSet.obj
 0002:00010e88       $unwind$?Init@ResultSet@@SAXV?$Local@VObject@v8@@@v8@@@Z 000000018004fe88     njsResultSet.obj
 0002:00010ea4       $stateUnwindMap$?Init@ILob@@SAXV?$Local@VObject@v8@@@v8@@@Z 000000018004fea4     njsIntLob.obj
 0002:00010ea4       $stateUnwindMap$?Init@ResultSet@@SAXV?$Local@VObject@v8@@@v8@@@Z 000000018004fea4     njsResultSet.obj
 0002:00010ed0       $ip2state$?Init@ResultSet@@SAXV?$Local@VObject@v8@@@v8@@@Z 000000018004fed0     njsResultSet.obj
 0002:00010f18       $unwind$?GetMetaData@ResultSet@@CAXV?$Local@VString@v8@@@v8@@AEBV?$PropertyCallbackInfo@VValue@v8@@@Nan@@@Z 000000018004ff18     njsResultSet.obj
 0002:00010f40       $stateUnwindMap$?GetMetaData@ResultSet@@CAXV?$Local@VString@v8@@@v8@@AEBV?$PropertyCallbackInfo@VValue@v8@@@Nan@@@Z 000000018004ff40     njsResultSet.obj
 0002:00010f70       $ip2state$?GetMetaData@ResultSet@@CAXV?$Local@VString@v8@@@v8@@AEBV?$PropertyCallbackInfo@VValue@v8@@@Nan@@@Z 000000018004ff70     njsResultSet.obj
 0002:00010fd8       $unwind$?SetMetaData@ResultSet@@CAXV?$Local@VString@v8@@@v8@@V?$Local@VValue@v8@@@3@AEBV?$PropertyCallbackInfo@X@Nan@@@Z 000000018004ffd8     njsResultSet.obj
 0002:00010ff8       $stateUnwindMap$?Release@ILob@@CAXAEBV?$FunctionCallbackInfo@VValue@v8@@@Nan@@@Z 000000018004fff8     njsIntLob.obj
 0002:00010ff8       $stateUnwindMap$?SetMetaData@ResultSet@@CAXV?$Local@VString@v8@@@v8@@V?$Local@VValue@v8@@@3@AEBV?$PropertyCallbackInfo@X@Nan@@@Z 000000018004fff8     njsResultSet.obj
 0002:00011020       $ip2state$?SetMetaData@ResultSet@@CAXV?$Local@VString@v8@@@v8@@V?$Local@VValue@v8@@@3@AEBV?$PropertyCallbackInfo@X@Nan@@@Z 0000000180050020     njsResultSet.obj
 0002:00011068       $unwind$?GetRow@ResultSet@@CAXAEBV?$FunctionCallbackInfo@VValue@v8@@@Nan@@@Z 0000000180050068     njsResultSet.obj
 0002:00011090       $stateUnwindMap$?GetRows@ResultSet@@CAXAEBV?$FunctionCallbackInfo@VValue@v8@@@Nan@@@Z 0000000180050090     njsResultSet.obj
 0002:00011090       $stateUnwindMap$?GetRow@ResultSet@@CAXAEBV?$FunctionCallbackInfo@VValue@v8@@@Nan@@@Z 0000000180050090     njsResultSet.obj
 0002:000110c0       $ip2state$?GetRow@ResultSet@@CAXAEBV?$FunctionCallbackInfo@VValue@v8@@@Nan@@@Z 00000001800500c0     njsResultSet.obj
 0002:00011128       $unwind$?GetRows@ResultSet@@CAXAEBV?$FunctionCallbackInfo@VValue@v8@@@Nan@@@Z 0000000180050128     njsResultSet.obj
 0002:00011150       $ip2state$?GetRows@ResultSet@@CAXAEBV?$FunctionCallbackInfo@VValue@v8@@@Nan@@@Z 0000000180050150     njsResultSet.obj
 0002:000111b8       $unwind$?GetRowsCommon@ResultSet@@CAXPEAUrsBaton@@@Z 00000001800501b8     njsResultSet.obj
 0002:000111e0       $stateUnwindMap$?GetRowsCommon@ResultSet@@CAXPEAUrsBaton@@@Z 00000001800501e0     njsResultSet.obj
 0002:000111f8       $ip2state$?GetRowsCommon@ResultSet@@CAXPEAUrsBaton@@@Z 00000001800501f8     njsResultSet.obj
 0002:00011230       $unwind$?Async_GetRows@ResultSet@@CAXPEAUuv_work_s@@@Z 0000000180050230     njsResultSet.obj
 0002:00011254       $tryMap$?Async_GetRows@ResultSet@@CAXPEAUuv_work_s@@@Z 0000000180050254     njsResultSet.obj
 0002:00011268       $handlerMap$0$?Async_GetRows@ResultSet@@CAXPEAUuv_work_s@@@Z 0000000180050268     njsResultSet.obj
 0002:00011280       $ip2state$?Async_GetRows@ResultSet@@CAXPEAUuv_work_s@@@Z 0000000180050280     njsResultSet.obj
 0002:000112c0       $unwind$?catch$0@?0??Async_GetRows@ResultSet@@CAXPEAUuv_work_s@@@Z@4HA 00000001800502c0     njsResultSet.obj
 0002:000112d8       $unwind$?Async_AfterGetRows@ResultSet@@CAXPEAUuv_work_s@@@Z 00000001800502d8     njsResultSet.obj
 0002:000112f8       $ip2state$?Async_AfterGetRows@ResultSet@@CAXPEAUuv_work_s@@@Z 00000001800502f8     njsResultSet.obj
 0002:00011320       $unwind$?Close@ResultSet@@CAXAEBV?$FunctionCallbackInfo@VValue@v8@@@Nan@@@Z 0000000180050320     njsResultSet.obj
 0002:00011350       $ip2state$?Close@ResultSet@@CAXAEBV?$FunctionCallbackInfo@VValue@v8@@@Nan@@@Z 0000000180050350     njsResultSet.obj
 0002:000113d8       $unwind$?Async_Close@ResultSet@@CAXPEAUuv_work_s@@@Z 00000001800503d8     njsResultSet.obj
 0002:000113f4       $tryMap$?Async_Close@ResultSet@@CAXPEAUuv_work_s@@@Z 00000001800503f4     njsResultSet.obj
 0002:00011408       $handlerMap$0$?Async_Close@ResultSet@@CAXPEAUuv_work_s@@@Z 0000000180050408     njsResultSet.obj
 0002:00011420       $ip2state$?Async_Close@ResultSet@@CAXPEAUuv_work_s@@@Z 0000000180050420     njsResultSet.obj
 0002:00011450       $unwind$?catch$0@?0??Async_Close@ResultSet@@CAXPEAUuv_work_s@@@Z@4HA 0000000180050450     njsResultSet.obj
 0002:00011468       $unwind$?Async_AfterClose@ResultSet@@CAXPEAUuv_work_s@@@Z 0000000180050468     njsResultSet.obj
 0002:00011480       $ip2state$?Async_AfterClose@ResultSet@@CAXPEAUuv_work_s@@@Z 0000000180050480     njsResultSet.obj
 0002:000114a8       $unwind$?clearFetchBuffer@ResultSet@@CAXPEAUDefine@@I@Z 00000001800504a8     njsResultSet.obj
 0002:000114b0       $chain$2$?clearFetchBuffer@ResultSet@@CAXPEAUDefine@@I@Z 00000001800504b0     njsResultSet.obj
 0002:000114cc       $chain$3$?clearFetchBuffer@ResultSet@@CAXPEAUDefine@@I@Z 00000001800504cc     njsResultSet.obj
 0002:000114dc       $unwind$?getErrorMsg@NJSMessages@@SA?AV?$basic_string@DU?$char_traits@D@std@@V?$allocator@D@2@@std@@W4NJSErrorType@@ZZ 00000001800504dc     njsMessages.obj
 0002:000114f4       $stateUnwindMap$?getErrorMsg@NJSMessages@@SA?AV?$basic_string@DU?$char_traits@D@std@@V?$allocator@D@2@@std@@W4NJSErrorType@@ZZ 00000001800504f4     njsMessages.obj
 0002:00011500       $ip2state$?getErrorMsg@NJSMessages@@SA?AV?$basic_string@DU?$char_traits@D@std@@V?$allocator@D@2@@std@@W4NJSErrorType@@ZZ 0000000180050500     njsMessages.obj
 0002:00011510       $unwind$??0LobBaton@@QEAA@AEAIV?$Local@VFunction@v8@@@v8@@@Z 0000000180050510     njsIntLob.obj
 0002:00011528       $stateUnwindMap$??0LobBaton@@QEAA@AEAIV?$Local@VFunction@v8@@@v8@@@Z 0000000180050528     njsIntLob.obj
 0002:00011528       $stateUnwindMap$??1LobBaton@@QEAA@XZ 0000000180050528     njsIntLob.obj
 0002:00011540       $ip2state$??0LobBaton@@QEAA@AEAIV?$Local@VFunction@v8@@@v8@@@Z 0000000180050540     njsIntLob.obj
 0002:00011568       $unwind$??1LobBaton@@QEAA@XZ 0000000180050568     njsIntLob.obj
 0002:00011578       $ip2state$??1LobBaton@@QEAA@XZ 0000000180050578     njsIntLob.obj
 0002:00011598       $unwind$??_GILob@@EEAAPEAXI@Z 0000000180050598     njsIntLob.obj
 0002:000115ac       $stateUnwindMap$??_GILob@@EEAAPEAXI@Z 00000001800505ac     njsIntLob.obj
 0002:000115b8       $ip2state$??_GILob@@EEAAPEAXI@Z 00000001800505b8     njsIntLob.obj
 0002:000115d0       $unwind$?setILob@ILob@@QEAAXPEAUeBaton@@PEAVProtoILob@@@Z 00000001800505d0     njsIntLob.obj
 0002:000115e8       $tryMap$?setILob@ILob@@QEAAXPEAUeBaton@@PEAVProtoILob@@@Z 00000001800505e8     njsIntLob.obj
 0002:000115fc       $handlerMap$0$?setILob@ILob@@QEAAXPEAUeBaton@@PEAVProtoILob@@@Z 00000001800505fc     njsIntLob.obj
 0002:00011610       $ip2state$?setILob@ILob@@QEAAXPEAUeBaton@@PEAVProtoILob@@@Z 0000000180050610     njsIntLob.obj
 0002:00011640       $unwind$?catch$0@?0??setILob@ILob@@QEAAXPEAUeBaton@@PEAVProtoILob@@@Z@4HA 0000000180050640     njsIntLob.obj
 0002:00011658       $unwind$?Init@ILob@@SAXV?$Local@VObject@v8@@@v8@@@Z 0000000180050658     njsIntLob.obj
 0002:00011680       $ip2state$?Init@ILob@@SAXV?$Local@VObject@v8@@@v8@@@Z 0000000180050680     njsIntLob.obj
 0002:000116c8       $unwind$?Release@ILob@@CAXAEBV?$FunctionCallbackInfo@VValue@v8@@@Nan@@@Z 00000001800506c8     njsIntLob.obj
 0002:000116f0       $ip2state$?Release@ILob@@CAXAEBV?$FunctionCallbackInfo@VValue@v8@@@Nan@@@Z 00000001800506f0     njsIntLob.obj
 0002:00011738       $unwind$?lobPropertyException@ILob@@CAXPEAV1@W4NJSErrorType@@V?$basic_string@DU?$char_traits@D@std@@V?$allocator@D@2@@std@@@Z 0000000180050738     njsIntLob.obj
 0002:00011760       $ip2state$?lobPropertyException@ILob@@CAXPEAV1@W4NJSErrorType@@V?$basic_string@DU?$char_traits@D@std@@V?$allocator@D@2@@std@@@Z 0000000180050760     njsIntLob.obj
 0002:000117a8       $unwind$?GetChunkSize@ILob@@CAXV?$Local@VString@v8@@@v8@@AEBV?$PropertyCallbackInfo@VValue@v8@@@Nan@@@Z 00000001800507a8     njsIntLob.obj
 0002:000117c8       $stateUnwindMap$?GetChunkSize@ILob@@CAXV?$Local@VString@v8@@@v8@@AEBV?$PropertyCallbackInfo@VValue@v8@@@Nan@@@Z 00000001800507c8     njsIntLob.obj
 0002:00011800       $tryMap$?GetChunkSize@ILob@@CAXV?$Local@VString@v8@@@v8@@AEBV?$PropertyCallbackInfo@VValue@v8@@@Nan@@@Z 0000000180050800     njsIntLob.obj
 0002:00011814       $handlerMap$0$?GetChunkSize@ILob@@CAXV?$Local@VString@v8@@@v8@@AEBV?$PropertyCallbackInfo@VValue@v8@@@Nan@@@Z 0000000180050814     njsIntLob.obj
 0002:00011830       $ip2state$?GetChunkSize@ILob@@CAXV?$Local@VString@v8@@@v8@@AEBV?$PropertyCallbackInfo@VValue@v8@@@Nan@@@Z 0000000180050830     njsIntLob.obj
 0002:000118b8       $unwind$?catch$0@?0??GetChunkSize@ILob@@CAXV?$Local@VString@v8@@@v8@@AEBV?$PropertyCallbackInfo@VValue@v8@@@Nan@@@Z@4HA 00000001800508b8     njsIntLob.obj
 0002:000118d0       $unwind$?SetChunkSize@ILob@@CAXV?$Local@VString@v8@@@v8@@V?$Local@VValue@v8@@@3@AEBV?$PropertyCallbackInfo@X@Nan@@@Z 00000001800508d0     njsIntLob.obj
 0002:000118e8       $ip2state$?SetChunkSize@ILob@@CAXV?$Local@VString@v8@@@v8@@V?$Local@VValue@v8@@@3@AEBV?$PropertyCallbackInfo@X@Nan@@@Z 00000001800508e8     njsIntLob.obj
 0002:00011910       $unwind$?GetLength@ILob@@CAXV?$Local@VString@v8@@@v8@@AEBV?$PropertyCallbackInfo@VValue@v8@@@Nan@@@Z 0000000180050910     njsIntLob.obj
 0002:00011930       $stateUnwindMap$?GetLength@ILob@@CAXV?$Local@VString@v8@@@v8@@AEBV?$PropertyCallbackInfo@VValue@v8@@@Nan@@@Z 0000000180050930     njsIntLob.obj
 0002:00011968       $tryMap$?GetLength@ILob@@CAXV?$Local@VString@v8@@@v8@@AEBV?$PropertyCallbackInfo@VValue@v8@@@Nan@@@Z 0000000180050968     njsIntLob.obj
 0002:0001197c       $handlerMap$0$?GetLength@ILob@@CAXV?$Local@VString@v8@@@v8@@AEBV?$PropertyCallbackInfo@VValue@v8@@@Nan@@@Z 000000018005097c     njsIntLob.obj
 0002:00011990       $ip2state$?GetLength@ILob@@CAXV?$Local@VString@v8@@@v8@@AEBV?$PropertyCallbackInfo@VValue@v8@@@Nan@@@Z 0000000180050990     njsIntLob.obj
 0002:00011a18       $unwind$?catch$0@?0??GetLength@ILob@@CAXV?$Local@VString@v8@@@v8@@AEBV?$PropertyCallbackInfo@VValue@v8@@@Nan@@@Z@4HA 0000000180050a18     njsIntLob.obj
 0002:00011a30       $unwind$?SetLength@ILob@@CAXV?$Local@VString@v8@@@v8@@V?$Local@VValue@v8@@@3@AEBV?$PropertyCallbackInfo@X@Nan@@@Z 0000000180050a30     njsIntLob.obj
 0002:00011a48       $ip2state$?SetLength@ILob@@CAXV?$Local@VString@v8@@@v8@@V?$Local@VValue@v8@@@3@AEBV?$PropertyCallbackInfo@X@Nan@@@Z 0000000180050a48     njsIntLob.obj
 0002:00011a70       $unwind$?GetPieceSize@ILob@@CAXV?$Local@VString@v8@@@v8@@AEBV?$PropertyCallbackInfo@VValue@v8@@@Nan@@@Z 0000000180050a70     njsIntLob.obj
 0002:00011a90       $stateUnwindMap$?GetPieceSize@ILob@@CAXV?$Local@VString@v8@@@v8@@AEBV?$PropertyCallbackInfo@VValue@v8@@@Nan@@@Z 0000000180050a90     njsIntLob.obj
 0002:00011ac8       $tryMap$?GetPieceSize@ILob@@CAXV?$Local@VString@v8@@@v8@@AEBV?$PropertyCallbackInfo@VValue@v8@@@Nan@@@Z 0000000180050ac8     njsIntLob.obj
 0002:00011adc       $handlerMap$0$?GetPieceSize@ILob@@CAXV?$Local@VString@v8@@@v8@@AEBV?$PropertyCallbackInfo@VValue@v8@@@Nan@@@Z 0000000180050adc     njsIntLob.obj
 0002:00011af0       $ip2state$?GetPieceSize@ILob@@CAXV?$Local@VString@v8@@@v8@@AEBV?$PropertyCallbackInfo@VValue@v8@@@Nan@@@Z 0000000180050af0     njsIntLob.obj
 0002:00011b78       $unwind$?catch$0@?0??GetPieceSize@ILob@@CAXV?$Local@VString@v8@@@v8@@AEBV?$PropertyCallbackInfo@VValue@v8@@@Nan@@@Z@4HA 0000000180050b78     njsIntLob.obj
 0002:00011b90       $unwind$?SetPieceSize@ILob@@CAXV?$Local@VString@v8@@@v8@@V?$Local@VValue@v8@@@3@AEBV?$PropertyCallbackInfo@X@Nan@@@Z 0000000180050b90     njsIntLob.obj
 0002:00011bb0       $stateUnwindMap$?SetPieceSize@ILob@@CAXV?$Local@VString@v8@@@v8@@V?$Local@VValue@v8@@@3@AEBV?$PropertyCallbackInfo@X@Nan@@@Z 0000000180050bb0     njsIntLob.obj
 0002:00011c00       $tryMap$?SetPieceSize@ILob@@CAXV?$Local@VString@v8@@@v8@@V?$Local@VValue@v8@@@3@AEBV?$PropertyCallbackInfo@X@Nan@@@Z 0000000180050c00     njsIntLob.obj
 0002:00011c14       $handlerMap$0$?SetPieceSize@ILob@@CAXV?$Local@VString@v8@@@v8@@V?$Local@VValue@v8@@@3@AEBV?$PropertyCallbackInfo@X@Nan@@@Z 0000000180050c14     njsIntLob.obj
 0002:00011c30       $ip2state$?SetPieceSize@ILob@@CAXV?$Local@VString@v8@@@v8@@V?$Local@VValue@v8@@@3@AEBV?$PropertyCallbackInfo@X@Nan@@@Z 0000000180050c30     njsIntLob.obj
 0002:00011ce0       $unwind$?catch$0@?0??SetPieceSize@ILob@@CAXV?$Local@VString@v8@@@v8@@V?$Local@VValue@v8@@@3@AEBV?$PropertyCallbackInfo@X@Nan@@@Z@4HA 0000000180050ce0     njsIntLob.obj
 0002:00011cf8       $unwind$?GetOffset@ILob@@CAXV?$Local@VString@v8@@@v8@@AEBV?$PropertyCallbackInfo@VValue@v8@@@Nan@@@Z 0000000180050cf8     njsIntLob.obj
 0002:00011d18       $stateUnwindMap$?GetOffset@ILob@@CAXV?$Local@VString@v8@@@v8@@AEBV?$PropertyCallbackInfo@VValue@v8@@@Nan@@@Z 0000000180050d18     njsIntLob.obj
 0002:00011d50       $tryMap$?GetOffset@ILob@@CAXV?$Local@VString@v8@@@v8@@AEBV?$PropertyCallbackInfo@VValue@v8@@@Nan@@@Z 0000000180050d50     njsIntLob.obj
 0002:00011d64       $handlerMap$0$?GetOffset@ILob@@CAXV?$Local@VString@v8@@@v8@@AEBV?$PropertyCallbackInfo@VValue@v8@@@Nan@@@Z 0000000180050d64     njsIntLob.obj
 0002:00011d80       $ip2state$?GetOffset@ILob@@CAXV?$Local@VString@v8@@@v8@@AEBV?$PropertyCallbackInfo@VValue@v8@@@Nan@@@Z 0000000180050d80     njsIntLob.obj
 0002:00011e08       $unwind$?catch$0@?0??GetOffset@ILob@@CAXV?$Local@VString@v8@@@v8@@AEBV?$PropertyCallbackInfo@VValue@v8@@@Nan@@@Z@4HA 0000000180050e08     njsIntLob.obj
 0002:00011e20       $unwind$?SetOffset@ILob@@CAXV?$Local@VString@v8@@@v8@@V?$Local@VValue@v8@@@3@AEBV?$PropertyCallbackInfo@X@Nan@@@Z 0000000180050e20     njsIntLob.obj
 0002:00011e48       $stateUnwindMap$?SetOffset@ILob@@CAXV?$Local@VString@v8@@@v8@@V?$Local@VValue@v8@@@3@AEBV?$PropertyCallbackInfo@X@Nan@@@Z 0000000180050e48     njsIntLob.obj
 0002:00011e90       $ip2state$?SetOffset@ILob@@CAXV?$Local@VString@v8@@@v8@@V?$Local@VValue@v8@@@3@AEBV?$PropertyCallbackInfo@X@Nan@@@Z 0000000180050e90     njsIntLob.obj
 0002:00011f28       $unwind$?GetType@ILob@@CAXV?$Local@VString@v8@@@v8@@AEBV?$PropertyCallbackInfo@VValue@v8@@@Nan@@@Z 0000000180050f28     njsIntLob.obj
 0002:00011f44       $stateUnwindMap$?GetType@ILob@@CAXV?$Local@VString@v8@@@v8@@AEBV?$PropertyCallbackInfo@VValue@v8@@@Nan@@@Z 0000000180050f44     njsIntLob.obj
 0002:00011f6c       $tryMap$?GetType@ILob@@CAXV?$Local@VString@v8@@@v8@@AEBV?$PropertyCallbackInfo@VValue@v8@@@Nan@@@Z 0000000180050f6c     njsIntLob.obj
 0002:00011f80       $handlerMap$0$?GetType@ILob@@CAXV?$Local@VString@v8@@@v8@@AEBV?$PropertyCallbackInfo@VValue@v8@@@Nan@@@Z 0000000180050f80     njsIntLob.obj
 0002:00011fa0       $ip2state$?GetType@ILob@@CAXV?$Local@VString@v8@@@v8@@AEBV?$PropertyCallbackInfo@VValue@v8@@@Nan@@@Z 0000000180050fa0     njsIntLob.obj
 0002:00012008       $unwind$?catch$0@?0??GetType@ILob@@CAXV?$Local@VString@v8@@@v8@@AEBV?$PropertyCallbackInfo@VValue@v8@@@Nan@@@Z@4HA 0000000180051008     njsIntLob.obj
 0002:0001201c       $unwind$?SetType@ILob@@CAXV?$Local@VString@v8@@@v8@@V?$Local@VValue@v8@@@3@AEBV?$PropertyCallbackInfo@X@Nan@@@Z 000000018005101c     njsIntLob.obj
 0002:00012038       $ip2state$?SetType@ILob@@CAXV?$Local@VString@v8@@@v8@@V?$Local@VValue@v8@@@3@AEBV?$PropertyCallbackInfo@X@Nan@@@Z 0000000180051038     njsIntLob.obj
 0002:00012060       $unwind$?Read@ILob@@CAXAEBV?$FunctionCallbackInfo@VValue@v8@@@Nan@@@Z 0000000180051060     njsIntLob.obj
 0002:00012090       $ip2state$?Read@ILob@@CAXAEBV?$FunctionCallbackInfo@VValue@v8@@@Nan@@@Z 0000000180051090     njsIntLob.obj
 0002:00012118       $unwind$?Async_Read@ILob@@CAXPEAUuv_work_s@@@Z 0000000180051118     njsIntLob.obj
 0002:00012138       $tryMap$?Async_Read@ILob@@CAXPEAUuv_work_s@@@Z 0000000180051138     njsIntLob.obj
 0002:0001214c       $handlerMap$0$?Async_Read@ILob@@CAXPEAUuv_work_s@@@Z 000000018005114c     njsIntLob.obj
 0002:00012160       $ip2state$?Async_Read@ILob@@CAXPEAUuv_work_s@@@Z 0000000180051160     njsIntLob.obj
 0002:00012190       $unwind$?catch$0@?0??Async_Read@ILob@@CAXPEAUuv_work_s@@@Z@4HA 0000000180051190     njsIntLob.obj
 0002:000121a8       $unwind$?Async_AfterRead@ILob@@CAXPEAUuv_work_s@@@Z 00000001800511a8     njsIntLob.obj
 0002:000121c8       $ip2state$?Async_AfterRead@ILob@@CAXPEAUuv_work_s@@@Z 00000001800511c8     njsIntLob.obj
 0002:000121f0       $unwind$?Write@ILob@@CAXAEBV?$FunctionCallbackInfo@VValue@v8@@@Nan@@@Z 00000001800511f0     njsIntLob.obj
 0002:00012220       $ip2state$?Write@ILob@@CAXAEBV?$FunctionCallbackInfo@VValue@v8@@@Nan@@@Z 0000000180051220     njsIntLob.obj
 0002:000122a8       $unwind$?Async_Write@ILob@@CAXPEAUuv_work_s@@@Z 00000001800512a8     njsIntLob.obj
 0002:000122c8       $tryMap$?Async_Write@ILob@@CAXPEAUuv_work_s@@@Z 00000001800512c8     njsIntLob.obj
 0002:000122dc       $handlerMap$0$?Async_Write@ILob@@CAXPEAUuv_work_s@@@Z 00000001800512dc     njsIntLob.obj
 0002:000122f0       $ip2state$?Async_Write@ILob@@CAXPEAUuv_work_s@@@Z 00000001800512f0     njsIntLob.obj
 0002:00012320       $unwind$?catch$0@?0??Async_Write@ILob@@CAXPEAUuv_work_s@@@Z@4HA 0000000180051320     njsIntLob.obj
 0002:00012338       $unwind$?Async_AfterWrite@ILob@@CAXPEAUuv_work_s@@@Z 0000000180051338     njsIntLob.obj
 0002:00012350       $ip2state$?Async_AfterWrite@ILob@@CAXPEAUuv_work_s@@@Z 0000000180051350     njsIntLob.obj
 0002:00012378       $unwind$??0ProtoILob@@QEAA@PEAUeBaton@@PEAUDescriptor@dpi@@G@Z 0000000180051378     njsIntLob.obj
 0002:00012398       $tryMap$??0ProtoILob@@QEAA@PEAUeBaton@@PEAUDescriptor@dpi@@G@Z 0000000180051398     njsIntLob.obj
 0002:000123ac       $handlerMap$0$??0ProtoILob@@QEAA@PEAUeBaton@@PEAUDescriptor@dpi@@G@Z 00000001800513ac     njsIntLob.obj
 0002:000123c0       $ip2state$??0ProtoILob@@QEAA@PEAUeBaton@@PEAUDescriptor@dpi@@G@Z 00000001800513c0     njsIntLob.obj
 0002:000123e8       $unwind$?catch$0@?0???0ProtoILob@@QEAA@PEAUeBaton@@PEAUDescriptor@dpi@@G@Z@4HA 00000001800513e8     njsIntLob.obj
 0002:00012400       $unwind$??0EnvImpl@@QEAA@AEBV?$basic_string@DU?$char_traits@D@std@@V?$allocator@D@2@@std@@@Z 0000000180051400     dpiEnvImpl.obj
 0002:00012420       $stateUnwindMap$??0EnvImpl@@QEAA@AEBV?$basic_string@DU?$char_traits@D@std@@V?$allocator@D@2@@std@@@Z 0000000180051420     dpiEnvImpl.obj
 0002:00012440       $tryMap$??0EnvImpl@@QEAA@AEBV?$basic_string@DU?$char_traits@D@std@@V?$allocator@D@2@@std@@@Z 0000000180051440     dpiEnvImpl.obj
 0002:00012454       $handlerMap$0$??0EnvImpl@@QEAA@AEBV?$basic_string@DU?$char_traits@D@std@@V?$allocator@D@2@@std@@@Z 0000000180051454     dpiEnvImpl.obj
 0002:00012468       $ip2state$??0EnvImpl@@QEAA@AEBV?$basic_string@DU?$char_traits@D@std@@V?$allocator@D@2@@std@@@Z 0000000180051468     dpiEnvImpl.obj
 0002:00012498       $unwind$?catch$0@?0???0EnvImpl@@QEAA@AEBV?$basic_string@DU?$char_traits@D@std@@V?$allocator@D@2@@std@@@Z@4HA 0000000180051498     dpiEnvImpl.obj
 0002:000124ac       $unwind$??0ExceptionImpl@@QEAA@AEBV0@@Z 00000001800514ac     dpiEnvImpl.obj
 0002:000124c0       $stateUnwindMap$??0ExceptionImpl@@QEAA@AEBV0@@Z 00000001800514c0     dpiEnvImpl.obj
 0002:000124d0       $ip2state$??0ExceptionImpl@@QEAA@AEBV0@@Z 00000001800514d0     dpiEnvImpl.obj
 0002:000124f0       $unwind$?createPool@EnvImpl@@UEAAPEAVSPool@dpi@@AEBV?$basic_string@DU?$char_traits@D@std@@V?$allocator@D@2@@std@@00HHHHH_N@Z 00000001800514f0     dpiEnvImpl.obj
 0002:0001250c       $stateUnwindMap$?createPool@EnvImpl@@UEAAPEAVSPool@dpi@@AEBV?$basic_string@DU?$char_traits@D@std@@V?$allocator@D@2@@std@@00HHHHH_N@Z 000000018005150c     dpiEnvImpl.obj
 0002:00012518       $ip2state$?createPool@EnvImpl@@UEAAPEAVSPool@dpi@@AEBV?$basic_string@DU?$char_traits@D@std@@V?$allocator@D@2@@std@@00HHHHH_N@Z 0000000180051518     dpiEnvImpl.obj
 0002:00012530       $unwind$?getConnection@EnvImpl@@UEAAPEAVConn@dpi@@AEBV?$basic_string@DU?$char_traits@D@std@@V?$allocator@D@2@@std@@00H0_N@Z 0000000180051530     dpiEnvImpl.obj
 0002:0001254c       $stateUnwindMap$?getConnection@EnvImpl@@UEAAPEAVConn@dpi@@AEBV?$basic_string@DU?$char_traits@D@std@@V?$allocator@D@2@@std@@00H0_N@Z 000000018005154c     dpiEnvImpl.obj
 0002:00012558       $ip2state$?getConnection@EnvImpl@@UEAAPEAVConn@dpi@@AEBV?$basic_string@DU?$char_traits@D@std@@V?$allocator@D@2@@std@@00H0_N@Z 0000000180051558     dpiEnvImpl.obj
 0002:00012570       $unwind$?getDateTimeArray@EnvImpl@@UEBAPEAVDateTimeArray@dpi@@PEAUOCIError@@@Z 0000000180051570     dpiEnvImpl.obj
 0002:00012588       $unwind$??0ExceptionImpl@@QEAA@W4DpiError@dpi@@@Z 0000000180051588     dpiExceptionImpl.obj
 0002:000125a8       $stateUnwindMap$??0ExceptionImpl@@QEAA@W4DpiError@dpi@@@Z 00000001800515a8     dpiExceptionImpl.obj
 0002:000125c8       $ip2state$??0ExceptionImpl@@QEAA@W4DpiError@dpi@@@Z 00000001800515c8     dpiExceptionImpl.obj
 0002:00012600       $unwind$??$?6DU?$char_traits@D@std@@V?$allocator@D@1@@std@@YAAEAV?$basic_ostream@DU?$char_traits@D@std@@@0@AEAV10@AEBV?$basic_string@DU?$char_traits@D@std@@V?$allocator@D@2@@0@@Z 0000000180051600     dpiExceptionImpl.obj
 0002:00012620       $ip2state$??$?6DU?$char_traits@D@std@@V?$allocator@D@1@@std@@YAAEAV?$basic_ostream@DU?$char_traits@D@std@@@0@AEAV10@AEBV?$basic_string@DU?$char_traits@D@std@@V?$allocator@D@2@@0@@Z 0000000180051620     dpiExceptionImpl.obj
 0002:00012640       $unwind$??0ConnImpl@@QEAA@PEAVEnvImpl@@PEAUOCIEnv@@_NIAEBV?$basic_string@DU?$char_traits@D@std@@V?$allocator@D@2@@std@@333@Z 0000000180051640     dpiConnImpl.obj
 0002:00012654       $stateUnwindMap$??0ConnImpl@@QEAA@PEAVEnvImpl@@PEAUOCIEnv@@_NIAEBV?$basic_string@DU?$char_traits@D@std@@V?$allocator@D@2@@std@@333@Z 0000000180051654     dpiConnImpl.obj
 0002:0001266c       $tryMap$??0ConnImpl@@QEAA@PEAVEnvImpl@@PEAUOCIEnv@@_NIAEBV?$basic_string@DU?$char_traits@D@std@@V?$allocator@D@2@@std@@333@Z 000000018005166c     dpiConnImpl.obj
 0002:00012680       $handlerMap$0$??0ConnImpl@@QEAA@PEAVEnvImpl@@PEAUOCIEnv@@_NIAEBV?$basic_string@DU?$char_traits@D@std@@V?$allocator@D@2@@std@@333@Z 0000000180051680     dpiConnImpl.obj
 0002:00012698       $ip2state$??0ConnImpl@@QEAA@PEAVEnvImpl@@PEAUOCIEnv@@_NIAEBV?$basic_string@DU?$char_traits@D@std@@V?$allocator@D@2@@std@@333@Z 0000000180051698     dpiConnImpl.obj
 0002:000126c0       $unwind$?catch$0@?0???0ConnImpl@@QEAA@PEAVEnvImpl@@PEAUOCIEnv@@_NIAEBV?$basic_string@DU?$char_traits@D@std@@V?$allocator@D@2@@std@@333@Z@4HA 00000001800516c0     dpiConnImpl.obj
 0002:000126d0       $unwind$??0ConnImpl@@QEAA@PEAVPoolImpl@@PEAUOCIEnv@@_NPEAEIAEBV?$basic_string@DU?$char_traits@D@std@@V?$allocator@D@2@@std@@@Z 00000001800516d0     dpiConnImpl.obj
 0002:000126f4       $stateUnwindMap$??0ConnImpl@@QEAA@PEAVPoolImpl@@PEAUOCIEnv@@_NPEAEIAEBV?$basic_string@DU?$char_traits@D@std@@V?$allocator@D@2@@std@@@Z 00000001800516f4     dpiConnImpl.obj
 0002:0001271c       $tryMap$??0ConnImpl@@QEAA@PEAVPoolImpl@@PEAUOCIEnv@@_NPEAEIAEBV?$basic_string@DU?$char_traits@D@std@@V?$allocator@D@2@@std@@@Z 000000018005171c     dpiConnImpl.obj
 0002:00012730       $handlerMap$0$??0ConnImpl@@QEAA@PEAVPoolImpl@@PEAUOCIEnv@@_NPEAEIAEBV?$basic_string@DU?$char_traits@D@std@@V?$allocator@D@2@@std@@@Z 0000000180051730     dpiConnImpl.obj
 0002:00012750       $ip2state$??0ConnImpl@@QEAA@PEAVPoolImpl@@PEAUOCIEnv@@_NPEAEIAEBV?$basic_string@DU?$char_traits@D@std@@V?$allocator@D@2@@std@@@Z 0000000180051750     dpiConnImpl.obj
 0002:00012798       $unwind$?catch$0@?0???0ConnImpl@@QEAA@PEAVPoolImpl@@PEAUOCIEnv@@_NPEAEIAEBV?$basic_string@DU?$char_traits@D@std@@V?$allocator@D@2@@std@@@Z@4HA 0000000180051798     dpiConnImpl.obj
 0002:000127a8       $unwind$??_GConnImpl@@UEAAPEAXI@Z 00000001800517a8     dpiConnImpl.obj
 0002:000127bc       $stateUnwindMap$??_GConnImpl@@UEAAPEAXI@Z 00000001800517bc     dpiConnImpl.obj
 0002:000127c8       $ip2state$??_GConnImpl@@UEAAPEAXI@Z 00000001800517c8     dpiConnImpl.obj
 0002:000127e0       $unwind$?prefetchRows@StmtImpl@@UEAAXI@Z 00000001800517e0     dpiStmtImpl.obj
 0002:000127e0       $unwind$?poolTimeout@PoolImpl@@UEAAXI@Z 00000001800517e0     dpiPoolImpl.obj
 0002:000127e0       $unwind$?stmtCacheSize@ConnImpl@@UEAAXI@Z 00000001800517e0     dpiConnImpl.obj
 0002:000127e0       $unwind$?stmtCacheSize@PoolImpl@@UEAAXI@Z 00000001800517e0     dpiPoolImpl.obj
 0002:000127e8       $unwind$?getStmt@ConnImpl@@UEAAPEAVStmt@dpi@@AEBV?$basic_string@DU?$char_traits@D@std@@V?$allocator@D@2@@std@@@Z 00000001800517e8     dpiConnImpl.obj
 0002:000127fc       $stateUnwindMap$?getStmt@ConnImpl@@UEAAPEAVStmt@dpi@@AEBV?$basic_string@DU?$char_traits@D@std@@V?$allocator@D@2@@std@@@Z 00000001800517fc     dpiConnImpl.obj
 0002:00012808       $ip2state$?getStmt@ConnImpl@@UEAAPEAVStmt@dpi@@AEBV?$basic_string@DU?$char_traits@D@std@@V?$allocator@D@2@@std@@@Z 0000000180051808     dpiConnImpl.obj
 0002:00012820       $chain$0$?breakExecution@ConnImpl@@UEAAXXZ 0000000180051820     dpiConnImpl.obj
 0002:00012834       $chain$1$?breakExecution@ConnImpl@@UEAAXXZ 0000000180051834     dpiConnImpl.obj
 0002:00012834       $chain$2$?breakExecution@ConnImpl@@UEAAXXZ 0000000180051834     dpiConnImpl.obj
 0002:00012844       $unwind$?getServerVersion@ConnImpl@@UEAAIXZ 0000000180051844     dpiConnImpl.obj
 0002:00012858       $unwind$?initConnImpl@ConnImpl@@AEAAX_N0AEBV?$basic_string@DU?$char_traits@D@std@@V?$allocator@D@2@@std@@PEAEI11@Z 0000000180051858     dpiConnImpl.obj
 0002:00012858       $unwind$__get_qualified_locale 0000000180051858     LIBCMT:getqloc.obj
 0002:00012878       $chain$0$?initConnImpl@ConnImpl@@AEAAX_N0AEBV?$basic_string@DU?$char_traits@D@std@@V?$allocator@D@2@@std@@PEAEI11@Z 0000000180051878     dpiConnImpl.obj
 0002:0001288c       $chain$1$?initConnImpl@ConnImpl@@AEAAX_N0AEBV?$basic_string@DU?$char_traits@D@std@@V?$allocator@D@2@@std@@PEAEI11@Z 000000018005188c     dpiConnImpl.obj
 0002:0001289c       $unwind$?cleanup@ConnImpl@@AEAAXXZ 000000018005189c     dpiConnImpl.obj
 0002:0001289c       $unwind$?stmtType@StmtImpl@@UEBA?AW4DpiStmtType@dpi@@XZ 000000018005189c     dpiStmtImpl.obj
 0002:0001289c       $unwind$?getState@StmtImpl@@UEAAIXZ 000000018005189c     dpiStmtImpl.obj
 0002:0001289c       $unwind$?numCols@StmtImpl@@UEAAIXZ 000000018005189c     dpiStmtImpl.obj
 0002:0001289c       $unwind$?isReturning@StmtImpl@@UEAA_NXZ 000000018005189c     dpiStmtImpl.obj
 0002:000128a4       $chain$0$?cleanup@ConnImpl@@AEAAXXZ 00000001800518a4     dpiConnImpl.obj
 0002:000128b8       $chain$1$?cleanup@ConnImpl@@AEAAXXZ 00000001800518b8     dpiConnImpl.obj
 0002:000128cc       $chain$2$?cleanup@ConnImpl@@AEAAXXZ 00000001800518cc     dpiConnImpl.obj
 0002:000128dc       $chain$3$?cleanup@ConnImpl@@AEAAXXZ 00000001800518dc     dpiConnImpl.obj
 0002:000128ec       $unwind$??_GDateTimeArrayImpl@dpi@@UEAAPEAXI@Z 00000001800518ec     dpiDateTimeArrayImpl.obj
 0002:00012900       $stateUnwindMap$??_GDateTimeArrayImpl@dpi@@UEAAPEAXI@Z 0000000180051900     dpiDateTimeArrayImpl.obj
 0002:00012908       $ip2state$??_GDateTimeArrayImpl@dpi@@UEAAPEAXI@Z 0000000180051908     dpiDateTimeArrayImpl.obj
 0002:00012920       $unwind$?init@DateTimeArrayImpl@dpi@@UEAAPEAXH@Z 0000000180051920     dpiDateTimeArrayImpl.obj
 0002:00012938       $unwind$?getDateTime@DateTimeArrayImpl@dpi@@UEAAOH@Z 0000000180051938     dpiDateTimeArrayImpl.obj
 0002:00012954       $unwind$?setDateTime@DateTimeArrayImpl@dpi@@UEAAXHO@Z 0000000180051954     dpiDateTimeArrayImpl.obj
 0002:0001296c       $chain$3$?setDateTime@DateTimeArrayImpl@dpi@@UEAAXHO@Z 000000018005196c     dpiDateTimeArrayImpl.obj
 0002:0001298c       $chain$4$?setDateTime@DateTimeArrayImpl@dpi@@UEAAXHO@Z 000000018005198c     dpiDateTimeArrayImpl.obj
 0002:000129a0       $chain$5$?setDateTime@DateTimeArrayImpl@dpi@@UEAAXHO@Z 00000001800519a0     dpiDateTimeArrayImpl.obj
 0002:000129b0       $chain$7$?setDateTime@DateTimeArrayImpl@dpi@@UEAAXHO@Z 00000001800519b0     dpiDateTimeArrayImpl.obj
 0002:000129d0       $chain$8$?setDateTime@DateTimeArrayImpl@dpi@@UEAAXHO@Z 00000001800519d0     dpiDateTimeArrayImpl.obj
 0002:000129e0       $unwind$?initBaseDate@DateTimeArrayImpl@dpi@@SAXPEAUOCIEnv@@@Z 00000001800519e0     dpiDateTimeArrayImpl.obj
 0002:000129f8       $chain$0$?initBaseDate@DateTimeArrayImpl@dpi@@SAXPEAUOCIEnv@@@Z 00000001800519f8     dpiDateTimeArrayImpl.obj
 0002:00012a0c       $chain$1$?initBaseDate@DateTimeArrayImpl@dpi@@SAXPEAUOCIEnv@@@Z 0000000180051a0c     dpiDateTimeArrayImpl.obj
 0002:00012a1c       $unwind$??0PoolImpl@@QEAA@PEAVEnvImpl@@PEAUOCIEnv@@AEBV?$basic_string@DU?$char_traits@D@std@@V?$allocator@D@2@@std@@22HHHH_NH@Z 0000000180051a1c     dpiPoolImpl.obj
 0002:00012a44       $stateUnwindMap$??0PoolImpl@@QEAA@PEAVEnvImpl@@PEAUOCIEnv@@AEBV?$basic_string@DU?$char_traits@D@std@@V?$allocator@D@2@@std@@22HHHH_NH@Z 0000000180051a44     dpiPoolImpl.obj
 0002:00012a5c       $tryMap$??0PoolImpl@@QEAA@PEAVEnvImpl@@PEAUOCIEnv@@AEBV?$basic_string@DU?$char_traits@D@std@@V?$allocator@D@2@@std@@22HHHH_NH@Z 0000000180051a5c     dpiPoolImpl.obj
 0002:00012a70       $handlerMap$0$??0PoolImpl@@QEAA@PEAVEnvImpl@@PEAUOCIEnv@@AEBV?$basic_string@DU?$char_traits@D@std@@V?$allocator@D@2@@std@@22HHHH_NH@Z 0000000180051a70     dpiPoolImpl.obj
 0002:00012a88       $ip2state$??0PoolImpl@@QEAA@PEAVEnvImpl@@PEAUOCIEnv@@AEBV?$basic_string@DU?$char_traits@D@std@@V?$allocator@D@2@@std@@22HHHH_NH@Z 0000000180051a88     dpiPoolImpl.obj
 0002:00012ab0       $unwind$?catch$0@?0???0PoolImpl@@QEAA@PEAVEnvImpl@@PEAUOCIEnv@@AEBV?$basic_string@DU?$char_traits@D@std@@V?$allocator@D@2@@std@@22HHHH_NH@Z@4HA 0000000180051ab0     dpiPoolImpl.obj
 0002:00012ac0       $unwind$?terminate@PoolImpl@@UEAAXXZ 0000000180051ac0     dpiPoolImpl.obj
 0002:00012ac8       $chain$0$?terminate@PoolImpl@@UEAAXXZ 0000000180051ac8     dpiPoolImpl.obj
 0002:00012adc       $chain$1$?terminate@PoolImpl@@UEAAXXZ 0000000180051adc     dpiPoolImpl.obj
 0002:00012aec       $unwind$?getConnection@PoolImpl@@UEAAPEAVConn@dpi@@AEBV?$basic_string@DU?$char_traits@D@std@@V?$allocator@D@2@@std@@@Z 0000000180051aec     dpiPoolImpl.obj
 0002:00012b00       $stateUnwindMap$?getConnection@PoolImpl@@UEAAPEAVConn@dpi@@AEBV?$basic_string@DU?$char_traits@D@std@@V?$allocator@D@2@@std@@@Z 0000000180051b00     dpiPoolImpl.obj
 0002:00012b08       $ip2state$?getConnection@PoolImpl@@UEAAPEAVConn@dpi@@AEBV?$basic_string@DU?$char_traits@D@std@@V?$allocator@D@2@@std@@@Z 0000000180051b08     dpiPoolImpl.obj
 0002:00012b20       $unwind$??0StmtImpl@@QEAA@PEAVEnvImpl@@PEAUOCIEnv@@PEAVConnImpl@@PEAUOCISvcCtx@@AEBV?$basic_string@DU?$char_traits@D@std@@V?$allocator@D@2@@std@@@Z 0000000180051b20     dpiStmtImpl.obj
 0002:00012b3c       $stateUnwindMap$??0StmtImpl@@QEAA@PEAVEnvImpl@@PEAUOCIEnv@@PEAVConnImpl@@PEAUOCISvcCtx@@AEBV?$basic_string@DU?$char_traits@D@std@@V?$allocator@D@2@@std@@@Z 0000000180051b3c     dpiStmtImpl.obj
 0002:00012b54       $tryMap$??0StmtImpl@@QEAA@PEAVEnvImpl@@PEAUOCIEnv@@PEAVConnImpl@@PEAUOCISvcCtx@@AEBV?$basic_string@DU?$char_traits@D@std@@V?$allocator@D@2@@std@@@Z 0000000180051b54     dpiStmtImpl.obj
 0002:00012b68       $handlerMap$0$??0StmtImpl@@QEAA@PEAVEnvImpl@@PEAUOCIEnv@@PEAVConnImpl@@PEAUOCISvcCtx@@AEBV?$basic_string@DU?$char_traits@D@std@@V?$allocator@D@2@@std@@@Z 0000000180051b68     dpiStmtImpl.obj
 0002:00012b80       $ip2state$??0StmtImpl@@QEAA@PEAVEnvImpl@@PEAUOCIEnv@@PEAVConnImpl@@PEAUOCISvcCtx@@AEBV?$basic_string@DU?$char_traits@D@std@@V?$allocator@D@2@@std@@@Z 0000000180051b80     dpiStmtImpl.obj
 0002:00012ba8       $unwind$?catch$0@?0???0StmtImpl@@QEAA@PEAVEnvImpl@@PEAUOCIEnv@@PEAVConnImpl@@PEAUOCISvcCtx@@AEBV?$basic_string@DU?$char_traits@D@std@@V?$allocator@D@2@@std@@@Z@4HA 0000000180051ba8     dpiStmtImpl.obj
 0002:00012bb8       $unwind$??_GStmtImpl@@UEAAPEAXI@Z 0000000180051bb8     dpiStmtImpl.obj
 0002:00012bcc       $stateUnwindMap$??_GStmtImpl@@UEAAPEAXI@Z 0000000180051bcc     dpiStmtImpl.obj
 0002:00012bd8       $ip2state$??_GStmtImpl@@UEAAPEAXI@Z 0000000180051bd8     dpiStmtImpl.obj
 0002:00012bf0       $chain$0$?stmtType@StmtImpl@@UEBA?AW4DpiStmtType@dpi@@XZ 0000000180051bf0     dpiStmtImpl.obj
 0002:00012c04       $chain$1$?stmtType@StmtImpl@@UEBA?AW4DpiStmtType@dpi@@XZ 0000000180051c04     dpiStmtImpl.obj
 0002:00012c14       $chain$0$?numCols@StmtImpl@@UEAAIXZ 0000000180051c14     dpiStmtImpl.obj
 0002:00012c28       $chain$1$?numCols@StmtImpl@@UEAAIXZ 0000000180051c28     dpiStmtImpl.obj
 0002:00012c38       $unwind$?bind@StmtImpl@@UEAAXIGPEAXHPEAFPEAGIPEAI0P6AH0HIKKPEAPEAX44PEAPEAGPEAE@Z@Z 0000000180051c38     dpiStmtImpl.obj
 0002:00012c4c       $unwind$?bind@StmtImpl@@UEAAXPEBEHIGPEAXHPEAFPEAGIPEAI1P6AH1HIKKPEAPEAX55PEAPEAGPEAE@Z@Z 0000000180051c4c     dpiStmtImpl.obj
 0002:00012c64       $unwind$?execute@StmtImpl@@UEAAXH_N@Z 0000000180051c64     dpiStmtImpl.obj
 0002:00012c70       $unwind$?define@StmtImpl@@UEAAXIGPEAXHPEAFPEAG@Z 0000000180051c70     dpiStmtImpl.obj
 0002:00012c80       $unwind$?getMetaData@StmtImpl@@UEAAPEBUMetaData@dpi@@XZ 0000000180051c80     dpiStmtImpl.obj
 0002:00012c90       $chain$3$?getMetaData@StmtImpl@@UEAAPEBUMetaData@dpi@@XZ 0000000180051c90     dpiStmtImpl.obj
 0002:00012ca8       $chain$4$?getMetaData@StmtImpl@@UEAAPEBUMetaData@dpi@@XZ 0000000180051ca8     dpiStmtImpl.obj
 0002:00012cb8       $unwind$?cleanup@StmtImpl@@AEAAXXZ 0000000180051cb8     dpiStmtImpl.obj
 0002:00012cc4       $chain$0$?cleanup@StmtImpl@@AEAAXXZ 0000000180051cc4     dpiStmtImpl.obj
 0002:00012cd8       $chain$1$?cleanup@StmtImpl@@AEAAXXZ 0000000180051cd8     dpiStmtImpl.obj
 0002:00012ce8       $unwind$?outbindCallback@StmtImpl@@SAHPEAXPEAUOCIBind@@IIPEAPEAXPEAPEAIPEAE2PEAPEAG@Z 0000000180051ce8     dpiStmtImpl.obj
 0002:00012cfc       $chain$0$?isReturning@StmtImpl@@UEAA_NXZ 0000000180051cfc     dpiStmtImpl.obj
 0002:00012d10       $chain$1$?isReturning@StmtImpl@@UEAA_NXZ 0000000180051d10     dpiStmtImpl.obj
 0002:00012d20       $chain$0$?getState@StmtImpl@@UEAAIXZ 0000000180051d20     dpiStmtImpl.obj
 0002:00012d34       $chain$1$?getState@StmtImpl@@UEAAIXZ 0000000180051d34     dpiStmtImpl.obj
 0002:00012d44       $unwind$?ociCallCommon@@YAXHPEAXI@Z 0000000180051d44     dpiUtils.obj
 0002:00012d64       $stateUnwindMap$?ociCallCommon@@YAXHPEAXI@Z 0000000180051d64     dpiUtils.obj
 0002:00012d78       $ip2state$?ociCallCommon@@YAXHPEAXI@Z 0000000180051d78     dpiUtils.obj
 0002:00012d98       xdata                      0000000180051d98     node:node.exe
 0002:00012da0       $unwind$?_Locimp_dtor@_Locimp@locale@std@@CAXPEAV123@@Z 0000000180051da0     libcpmt:locale0.obj
 0002:00012db4       $ip2state$?_Locimp_dtor@_Locimp@locale@std@@CAXPEAV123@@Z 0000000180051db4     libcpmt:locale0.obj
 0002:00012dcc       $unwind$?_Init@locale@std@@CAPEAV_Locimp@12@_N@Z 0000000180051dcc     libcpmt:locale0.obj
 0002:00012de0       $stateUnwindMap$?_Locimp_dtor@_Locimp@locale@std@@CAXPEAV123@@Z 0000000180051de0     libcpmt:locale0.obj
 0002:00012de0       $stateUnwindMap$?_Init@locale@std@@CAPEAV_Locimp@12@_N@Z 0000000180051de0     libcpmt:locale0.obj
 0002:00012de8       $ip2state$?_Init@locale@std@@CAPEAV_Locimp@12@_N@Z 0000000180051de8     libcpmt:locale0.obj
 0002:00012e00       $unwind$_Tolower           0000000180051e00     libcpmt:_tolower.obj
 0002:00012e10       $unwind$_Toupper           0000000180051e10     libcpmt:_toupper.obj
 0002:00012e28       $xdatasym                  0000000180051e28     LIBCMT:amdsecgs.obj
 0002:00012e2c       $unwind$_call_reportfault  0000000180051e2c     LIBCMT:invarg.obj
 0002:00012e4c       $unwind$swprintf           0000000180051e4c     LIBCMT:sprintf.obj
 0002:00012e4c       $unwind$sprintf_s          0000000180051e4c     LIBCMT:sprintf.obj
 0002:00012e58       $xdatasym                  0000000180051e58     LIBCMT:memcpy.obj
 0002:00012e5c       $unwind$iswctype           0000000180051e5c     LIBCMT:free.obj
 0002:00012e5c       $unwind$__free_lconv_num   0000000180051e5c     LIBCMT:free.obj
 0002:00012e5c       $unwind$free               0000000180051e5c     LIBCMT:free.obj
 0002:00012e64       $unwind$_wassert           0000000180051e64     LIBCMT:wassert.obj
 0002:00012e88       $unwind$_onexit            0000000180051e88     LIBCMT:onexit.obj
 0002:00012eb8       $unwind$strcspn            0000000180051eb8     LIBCMT:strcspn.obj
 0002:00012ec8       $unwind$??_M@YAXPEAX_KHP6AX0@Z@Z 0000000180051ec8     LIBCMT:ehvecdtr.obj
 0002:00012ef0       $unwind$?__ArrayUnwind@@YAXPEAX_KHP6AX0@Z@Z 0000000180051ef0     LIBCMT:ehvecdtr.obj
 0002:00012f18       $unwind$??_L@YAXPEAX_KHP6AX0@Z2@Z 0000000180051f18     LIBCMT:ehvecctr.obj
 0002:00012f44       $unwind$__report_securityfailure 0000000180051f44     LIBCMT:gs_report.obj
 0002:00012f4c       $unwind$_stricmp_l         0000000180051f4c     LIBCMT:stricmp.obj
 0002:00012f4c       $unwind$?x_ismbbtype_l@@YAHPEAUlocaleinfo_struct@@IHH@Z 0000000180051f4c     LIBCMT:stricmp.obj
 0002:00012f5c       $unwind$_CRT_INIT          0000000180051f5c     LIBCMT:dllcrt0.obj
 0002:00012f7c       $unwind$__DllMainCRTStartup 0000000180051f7c     LIBCMT:dllcrt0.obj
 0002:00012fa4       $unwind$__init_ctype       0000000180051fa4     LIBCMT:initctyp.obj
 0002:00012fd0       $xdatasym                  0000000180051fd0     LIBCMT:memset.obj
 0002:00012fd8       $xdatasym                  0000000180051fd8     LIBCMT:strlen.obj
 0002:00012fdc       $unwind$_CxxThrowException 0000000180051fdc     LIBCMT:throw.obj
 0002:00012fec       $unwind$?__FrameUnwindToEmptyState@@YAXPEA_KPEAU_xDISPATCHER_CONTEXT@@PEBU_s_FuncInfo@@@Z 0000000180051fec     LIBCMT:trnsctrl.obj
 0002:00013000       $unwind$_UnwindNestedFrames 0000000180052000     LIBCMT:trnsctrl.obj
 0002:00013014       $unwind$_CallSETranslator  0000000180052014     LIBCMT:trnsctrl.obj
 0002:00013034       $unwind$_CallSETranslator$filt$0 0000000180052034     LIBCMT:trnsctrl.obj
 0002:0001303c       $unwind$?_GetEstablisherFrame@@YAPEA_KPEA_KPEAU_xDISPATCHER_CONTEXT@@PEBU_s_FuncInfo@@0@Z 000000018005203c     LIBCMT:trnsctrl.obj
 0002:00013054       $unwind$__CxxFrameHandler3 0000000180052054     LIBCMT:trnsctrl.obj
 0002:00013064       $unwind$_wcsicmp_l         0000000180052064     LIBCMT:trnsctrl.obj
 0002:00013064       $unwind$?__SehTransFilter@@YAHPEAU_EXCEPTION_POINTERS@@PEAUEHExceptionRecord@@PEA_KPEAU_CONTEXT@@PEAU_xDISPATCHER_CONTEXT@@PEBU_s_FuncInfo@@PEAH@Z 0000000180052064     LIBCMT:trnsctrl.obj
 0002:00013078       $unwind$setlocale          0000000180052078     LIBCMT:setlocal.obj
 0002:000130a8       $unwind$setlocale$fin$0    00000001800520a8     LIBCMT:setlocal.obj
 0002:000130b0       $unwind$?_Copy_str@exception@std@@AEAAXPEBD@Z 00000001800520b0     LIBCMT:stdexcpt.obj
 0002:000130c0       $unwind$_mtinitlocknum     00000001800520c0     LIBCMT:mlock.obj
 0002:000130e8       $unwind$__crtLCMapStringA  00000001800520e8     LIBCMT:a_map.obj
 0002:000130f8       $unwind$?__crtLCMapStringA_stat@@YAHPEAUlocaleinfo_struct@@PEB_WKPEBDHPEADHHH@Z 00000001800520f8     LIBCMT:a_map.obj
 0002:00013120       $unwind$GetTableIndexFromLocaleName 0000000180052120     LIBCMT:crtheap.obj
 0002:00013120       $unwind$__TypeMatch        0000000180052120     LIBCMT:crtheap.obj
 0002:00013120       $unwind$__GSHandlerCheck_EH 0000000180052120     LIBCMT:crtheap.obj
 0002:00013120       $unwind$_calloc_crt        0000000180052120     LIBCMT:crtheap.obj
 0002:00013120       $unwind$_malloc_crt        0000000180052120     LIBCMT:crtheap.obj
 0002:00013120       $unwind$_realloc_crt       0000000180052120     LIBCMT:crtheap.obj
 0002:00013138       $xdatasym                  0000000180052138     LIBCMT:strcmp.obj
 0002:0001313c       $unwind$__crtCaptureCurrentContext 000000018005213c     LIBCMT:winapisupp.obj
 0002:00013148       $unwind$__crtCapturePreviousContext 0000000180052148     LIBCMT:winapisupp.obj
 0002:00013154       $unwind$_tolower_l         0000000180052154     LIBCMT:tolower.obj
 0002:00013168       $xdatasym                  0000000180052168     LIBCMT:memcmp.obj
 0002:0001316c       $unwind$__crtLCMapStringEx 000000018005216c     LIBCMT:winapinls.obj
 0002:0001317c       $unwind$_wcsdup            000000018005217c     LIBCMT:w_map.obj
 0002:0001317c       $unwind$__copy_locale_name 000000018005217c     LIBCMT:w_map.obj
 0002:0001317c       $unwind$__crtLCMapStringW  000000018005217c     LIBCMT:w_map.obj
 0002:0001318c       $unwind$doexit             000000018005218c     LIBCMT:crt0dat.obj
 0002:000131bc       $unwind$raise              00000001800521bc     LIBCMT:winsig.obj
 0002:000131ec       $unwind$_flsbuf            00000001800521ec     LIBCMT:_flsbuf.obj
 0002:00013200       $unwind$_vsnprintf_helper  0000000180052200     LIBCMT:vsnprnc.obj
 0002:00013200       $unwind$_vswprintf_helper  0000000180052200     LIBCMT:vsnprnc.obj
 0002:00013218       $unwind$_output_s_l        0000000180052218     LIBCMT:output.obj
 0002:00013218       $unwind$_output_l          0000000180052218     LIBCMT:output.obj
 0002:0001323c       $unwind$__isa_available_init 000000018005223c     LIBCMT:cpu_disp.obj
 0002:00013250       $unwind$_NMSG_WRITE        0000000180052250     LIBCMT:crt0msg.obj
 0002:00013274       $unwind$__updatetlocinfo   0000000180052274     LIBCMT:localref.obj
 0002:00013294       $unwind$_freefls           0000000180052294     LIBCMT:tidtable.obj
 0002:000132c8       $unwind$_initptd           00000001800522c8     LIBCMT:tidtable.obj
 0002:000132fc       $unwind$fflush             00000001800522fc     LIBCMT:fflush.obj
 0002:00013320       $unwind$flsall             0000000180052320     LIBCMT:fflush.obj
 0002:00013360       $unwind$setvbuf            0000000180052360     LIBCMT:setvbuf.obj
 0002:0001338c       $unwind$fwprintf           000000018005238c     LIBCMT:fwprintf.obj
 0002:000133b0       $unwind$__crtMessageBoxW   00000001800523b0     LIBCMT:crtmboxw.obj
 0002:000133cc       $unwind$__init_numeric     00000001800523cc     LIBCMT:chandler.obj
 0002:000133cc       $unwind$__C_specific_handler 00000001800523cc     LIBCMT:chandler.obj
 0002:000133e8       $unwind$__getlocaleinfo    00000001800523e8     LIBCMT:inithelp.obj
 0002:00013408       $unwind$?_Type_info_dtor@type_info@@CAXPEAV1@@Z 0000000180052408     LIBCMT:typname.obj
 0002:00013428       $unwind$?terminate@@YAXXZ  0000000180052428     LIBCMT:hooks.obj
 0002:00013448       $unwind$?_inconsistency@@YAXXZ 0000000180052448     LIBCMT:hooks.obj
 0002:00013468       $unwind$_vsnprintf_l       0000000180052468     LIBCMT:vsnprint.obj
 0002:0001347c       $unwind$__updatetmbcinfo   000000018005247c     LIBCMT:mbctype.obj
 0002:000134a0       $unwind$_setmbcp           00000001800524a0     LIBCMT:mbctype.obj
 0002:000134d0       $unwind$_setmbcp_nolock    00000001800524d0     LIBCMT:mbctype.obj
 0002:000134f0       $unwind$?setSBUpLow@@YAXPEAUthreadmbcinfostruct@@@Z 00000001800524f0     LIBCMT:mbctype.obj
 0002:0001350c       $unwind$_wsetlocale        000000018005250c     LIBCMT:wsetloca.obj
 0002:0001355c       $unwind$_locterm           000000018005255c     LIBCMT:wsetloca.obj
 0002:0001357c       $unwind$_expandlocale      000000018005257c     LIBCMT:wsetloca.obj
 0002:0001359c       $unwind$_wcscats           000000018005259c     LIBCMT:wsetloca.obj
 0002:000135ac       $unwind$__lc_wcstolc       00000001800525ac     LIBCMT:wsetloca.obj
 0002:000135c4       $unwind$_wsetlocale_set_cat 00000001800525c4     LIBCMT:wsetloca.obj
 0002:000135e8       $unwind$_wsetlocale_get_all 00000001800525e8     LIBCMT:wsetloca.obj
 0002:00013604       $unwind$_wsetlocale_nolock 0000000180052604     LIBCMT:wsetloca.obj
 0002:00013628       $unwind$_ioinit            0000000180052628     LIBCMT:ioinit.obj
 0002:00013670       $unwind$__lc_lctowcs       0000000180052670     LIBCMT:stdenvp.obj
 0002:00013670       $unwind$__crtDownlevelLCIDToLocaleName 0000000180052670     LIBCMT:stdenvp.obj
 0002:00013670       $unwind$_invalid_parameter 0000000180052670     LIBCMT:stdenvp.obj
 0002:00013670       $unwind$_setenvp           0000000180052670     LIBCMT:stdenvp.obj
 0002:00013684       $unwind$__security_init_cookie 0000000180052684     LIBCMT:gs_support.obj
 0002:00013690       $unwind$__crtGetStringTypeA 0000000180052690     LIBCMT:a_str.obj
 0002:000136a0       $unwind$?__crtGetStringTypeA_stat@@YAHPEAUlocaleinfo_struct@@KPEBDHPEAGHH@Z 00000001800526a0     LIBCMT:a_str.obj
 0002:000136c8       $unwind$__CxxCallCatchBlock 00000001800526c8     LIBCMT:frame.obj
 0002:00013708       $unwind$__CxxCallCatchBlock$fin$1 0000000180052708     LIBCMT:frame.obj
 0002:00013714       $unwind$__FrameUnwindToState 0000000180052714     LIBCMT:frame.obj
 0002:00013750       $unwind$?FindHandler@@YAXPEAUEHExceptionRecord@@PEA_KPEAU_CONTEXT@@PEAU_xDISPATCHER_CONTEXT@@PEBU_s_FuncInfo@@EH1@Z 0000000180052750     LIBCMT:frame.obj
 0002:0001376c       $unwind$?CatchIt@@YAXPEAUEHExceptionRecord@@PEA_KPEAU_CONTEXT@@PEAU_xDISPATCHER_CONTEXT@@PEBU_s_FuncInfo@@PEBU_s_HandlerType@@PEBU_s_CatchableType@@PEBU_s_TryBlockMapEntry@@H1EE@Z 000000018005276c     LIBCMT:frame.obj
 0002:00013784       $unwind$__BuildCatchObject 0000000180052784     LIBCMT:frame.obj
 0002:000137b0       $unwind$?FindHandlerForForeignException@@YAXPEAUEHExceptionRecord@@PEA_KPEAU_CONTEXT@@PEAU_xDISPATCHER_CONTEXT@@PEBU_s_FuncInfo@@HH1@Z 00000001800527b0     LIBCMT:frame.obj
 0002:000137c8       $unwind$__DestructExceptionObject 00000001800527c8     LIBCMT:frame.obj
 0002:000137e8       $unwind$?IsInExceptionSpec@@YAEPEAUEHExceptionRecord@@PEBU_s_ESTypeList@@@Z 00000001800527e8     LIBCMT:frame.obj
 0002:00013804       $unwind$__InternalCxxFrameHandler 0000000180052804     LIBCMT:frame.obj
 0002:0001381c       $unwind$__BuildCatchObjectHelper 000000018005281c     LIBCMT:frame.obj
 0002:0001384c       $unwind$?_Xlength_error@std@@YAXPEBD@Z 000000018005284c     LIBCMT:cvt.obj
 0002:0001384c       $unwind$?_Xout_of_range@std@@YAXPEBD@Z 000000018005284c     LIBCMT:cvt.obj
 0002:0001384c       $unwind$__initconout       000000018005284c     LIBCMT:cvt.obj
 0002:0001384c       $unwind$_cfltcvt           000000018005284c     LIBCMT:cvt.obj
 0002:0001384c       $unwind$?_Xbad_alloc@std@@YAXXZ 000000018005284c     LIBCMT:cvt.obj
 0002:00013854       $unwind$_cftoe2_l          0000000180052854     LIBCMT:cvt.obj
 0002:00013870       $unwind$_cftoe_l           0000000180052870     LIBCMT:cvt.obj
 0002:00013888       $unwind$_cftoa_l           0000000180052888     LIBCMT:cvt.obj
 0002:000138a4       $unwind$_cftof_l           00000001800528a4     LIBCMT:cvt.obj
 0002:000138bc       $unwind$_cftog_l           00000001800528bc     LIBCMT:cvt.obj
 0002:000138d4       $unwind$_mbstowcs_s_l      00000001800528d4     LIBCMT:mbstowcs.obj
 0002:000138ec       $unwind$_mbstowcs_l_helper 00000001800528ec     LIBCMT:mbstowcs.obj
 0002:00013908       $unwind$_wcstombs_s_l      0000000180052908     LIBCMT:wcstombs.obj
 0002:0001391c       $unwind$_wcstombs_l_helper 000000018005291c     LIBCMT:wcstombs.obj
 0002:0001393c       $unwind$_isctype_l         000000018005293c     LIBCMT:isctype.obj
 0002:00013950       $xdatasym                  0000000180052950     LIBCMT:chkstk.obj
 0002:00013958       $unwind$_forcdecpt_l       0000000180052958     LIBCMT:_wctype.obj
 0002:00013958       $unwind$_cropzeros_l       0000000180052958     LIBCMT:_wctype.obj
 0002:00013958       $unwind$isupper            0000000180052958     LIBCMT:_wctype.obj
 0002:00013958       $unwind$_isleadbyte_l      0000000180052958     LIBCMT:_wctype.obj
 0002:00013958       $unwind$isleadbyte         0000000180052958     LIBCMT:_wctype.obj
 0002:00013958       $unwind$?getSystemCP@@YAHH@Z 0000000180052958     LIBCMT:_wctype.obj
 0002:00013958       $unwind$isdigit            0000000180052958     LIBCMT:_wctype.obj
 0002:00013958       $unwind$??2@YAPEAX_K@Z     0000000180052958     LIBCMT:_wctype.obj
 0002:00013958       $unwind$islower            0000000180052958     LIBCMT:_wctype.obj
 0002:00013960       $unwind$_IsNonwritableInCurrentImage 0000000180052960     LIBCMT:pesect.obj
 0002:00013984       $unwind$_ftbuf             0000000180052984     LIBCMT:_sftbuf.obj
 0002:0001398c       $unwind$_write             000000018005298c     LIBCMT:write.obj
 0002:000139b8       $unwind$_write_nolock      00000001800529b8     LIBCMT:write.obj
 0002:000139dc       $unwind$_lseeki64          00000001800529dc     LIBCMT:lseeki64.obj
 0002:00013a08       $unwind$_wctomb_s_l        0000000180052a08     LIBCMT:wctomb.obj
 0002:00013a18       $unwind$__init_monetary    0000000180052a18     LIBCMT:initmon.obj
 0002:00013a34       $unwind$__free_lconv_mon   0000000180052a34     LIBCMT:initmon.obj
 0002:00013a34       $unwind$__free_lc_time     0000000180052a34     LIBCMT:initmon.obj
 0002:00013a3c       $unwind$__init_time        0000000180052a3c     LIBCMT:inittime.obj
 0002:00013a4c       $unwind$_get_lc_time       0000000180052a4c     LIBCMT:inittime.obj
 0002:00013a64       $unwind$_fcloseall         0000000180052a64     LIBCMT:closeall.obj
 0002:00013a8c       $unwind$_commit            0000000180052a8c     LIBCMT:commit.obj
 0002:00013ab4       $unwind$_woutput_l         0000000180052ab4     LIBCMT:woutput.obj
 0002:00013ad8       $unwind$write_multi_char   0000000180052ad8     LIBCMT:woutput.obj
 0002:00013ad8       $unwind$write_multi_char   0000000180052ad8     LIBCMT:woutput.obj
 0002:00013ad8       $unwind$write_multi_char   0000000180052ad8     LIBCMT:woutput.obj
 0002:00013aec       $unwind$write_string       0000000180052aec     LIBCMT:woutput.obj
 0002:00013aec       $unwind$write_string       0000000180052aec     LIBCMT:woutput.obj
 0002:00013aec       $unwind$write_string       0000000180052aec     LIBCMT:woutput.obj
 0002:00013b08       $xdatasym                  0000000180052b08     LIBCMT:jmpuwind.obj
 0002:00013b1c       $unwind$__crtGetLocaleInfoA 0000000180052b1c     LIBCMT:a_loc.obj
 0002:00013b2c       $unwind$?__crtGetLocaleInfoA_stat@@YAHPEAUlocaleinfo_struct@@PEB_WKPEADH@Z 0000000180052b2c     LIBCMT:a_loc.obj
 0002:00013b58       $xdatasym                  0000000180052b58     LIBCMT:fpsr.obj
 0002:00013b60       $unwind$LangCountryEnumProcEx 0000000180052b60     LIBCMT:getqloc.obj
 0002:00013b80       $unwind$LanguageEnumProcEx 0000000180052b80     LIBCMT:getqloc.obj
 0002:00013b98       $unwind$TestDefaultCountry 0000000180052b98     LIBCMT:getqloc.obj
 0002:00013bac       $unwind$__get_qualified_locale_downlevel 0000000180052bac     LIBCMT:getqloc_downlevel.obj
 0002:00013bc8       $unwind$TranslateName      0000000180052bc8     LIBCMT:getqloc_downlevel.obj
 0002:00013bc8       $unwind$parse_cmdline      0000000180052bc8     LIBCMT:getqloc_downlevel.obj
 0002:00013bc8       $unwind$TranslateName      0000000180052bc8     LIBCMT:getqloc_downlevel.obj
 0002:00013bc8       $unwind$?_GetRangeOfTrysToCheck@@YAPEBU_s_TryBlockMapEntry@@PEA_KPEBU_s_FuncInfo@@HHPEAI2PEAU_xDISPATCHER_CONTEXT@@@Z 0000000180052bc8     LIBCMT:getqloc_downlevel.obj
 0002:00013be4       $unwind$LangCountryEnumProc 0000000180052be4     LIBCMT:getqloc_downlevel.obj
 0002:00013c04       $unwind$LanguageEnumProc   0000000180052c04     LIBCMT:getqloc_downlevel.obj
 0002:00013c20       $unwind$CountryEnumProc    0000000180052c20     LIBCMT:getqloc_downlevel.obj
 0002:00013c40       $unwind$TestDefaultLanguage 0000000180052c40     LIBCMT:getqloc_downlevel.obj
 0002:00013c58       $xdatasym                  0000000180052c58     LIBCMT:handlers.obj
 0002:00013c60       $unwind$_atodbl_l          0000000180052c60     LIBCMT:atodbl.obj
 0002:00013c74       $unwind$__crt_atoflt_l     0000000180052c74     LIBCMT:atodbl.obj
 0002:00013c88       $unwind$_fltout2           0000000180052c88     LIBCMT:cfout.obj
 0002:00013ca0       $unwind$__dtold            0000000180052ca0     LIBCMT:cfout.obj
 0002:00013ca8       $unwind$_towlower_l        0000000180052ca8     LIBCMT:towlower.obj
 0002:00013cb4       $unwind$_stbuf             0000000180052cb4     LIBCMT:osfinfo.obj
 0002:00013cb4       $unwind$_free_osfhnd       0000000180052cb4     LIBCMT:osfinfo.obj
 0002:00013cc4       $unwind$__lock_fhandle     0000000180052cc4     LIBCMT:osfinfo.obj
 0002:00013cf0       $unwind$_mbtowc_l          0000000180052cf0     LIBCMT:mbtowc.obj
 0002:00013d08       $unwind$_putwch_nolock     0000000180052d08     LIBCMT:putwch.obj
 0002:00013d08       $unwind$__report_gsfailure 0000000180052d08     LIBCMT:putwch.obj
 0002:00013d10       $unwind$fclose             0000000180052d10     LIBCMT:fclose.obj
 0002:00013d34       $unwind$_fputwc_nolock     0000000180052d34     LIBCMT:fputwc.obj
 0002:00013d50       $unwind$?wcstoxl@@YAKPEB_WPEAPEB_WHH@Z 0000000180052d50     LIBCMT:wcstol.obj
 0002:00013d68       $unwind$strrchr            0000000180052d68     LIBCMT:wcschr.obj
 0002:00013d68       $unwind$wcschr             0000000180052d68     LIBCMT:wcschr.obj
 0002:00013d70       $unwind$_cftof2_l          0000000180052d70     LIBCMT:wcsnicmp.obj
 0002:00013d70       $unwind$_wcsnicmp_l        0000000180052d70     LIBCMT:wcsnicmp.obj
 0002:00013d70       $unwind$__crtGetEnvironmentStringsA 0000000180052d70     LIBCMT:wcsnicmp.obj
 0002:00013d88       $unwind$_ld12tod           0000000180052d88     LIBCMT:intrncvt.obj
 0002:00013d88       $unwind$_ld12tof           0000000180052d88     LIBCMT:intrncvt.obj
 0002:00013dac       $unwind$__strgtold12_l     0000000180052dac     LIBCMT:strgtold.obj
 0002:00013dd0       $unwind$$I10_OUTPUT        0000000180052dd0     LIBCMT:x10fout.obj
 0002:00013df4       $unwind$_close             0000000180052df4     LIBCMT:close.obj
 0002:00013e1c       $unwind$_flswbuf           0000000180052e1c     LIBCMT:_flswbuf.obj
 0002:00013e30       $unwind$__mtold12          0000000180052e30     LIBCMT:mantold.obj
 0002:00013e48       $unwind$__delayLoadHelper2 0000000180052e48     DelayImp:delayhlp.obj
 0002:00015c80       .edata                     0000000180054c80     oracledb.exp
 0002:00015ca8       rgpv                       0000000180054ca8     oracledb.exp
 0002:00015cac       rgszName                   0000000180054cac     oracledb.exp
 0002:00015cb0       rgwOrd                     0000000180054cb0     oracledb.exp
 0002:00015cb2       szName                     0000000180054cb2     oracledb.exp
 0002:00015cc0       $N00001                    0000000180054cc0     oracledb.exp
 0002:0001609c       .idata$6                   000000018005509c     kernel32:KERNEL32.dll
 0002:00016370       .idata$6                   0000000180055370     oci:OCI.dll
 0003:00000004       init                       0000000180056004     libcpmt:xlock.obj
 0003:00000010       atcount_cdecl              0000000180056010     libcpmt:iosptrs.obj
 0003:00000290       _assertstring              0000000180056290     LIBCMT:wassert.obj
 0003:000002e0       dotdotdot                  00000001800562e0     LIBCMT:wassert.obj
 0003:000002e8       newline                    00000001800562e8     LIBCMT:wassert.obj
 0003:000002f0       dblnewline                 00000001800562f0     LIBCMT:wassert.obj
 0003:00000300       errtable                   0000000180056300     LIBCMT:dosmap.obj
 0003:00000468       ErrnoNoMem                 0000000180056468     LIBCMT:dosmap.obj
 0003:0000046c       DoserrorNoMem              000000018005646c     LIBCMT:dosmap.obj
 0003:00000480       _locktable                 0000000180056480     LIBCMT:mlock.obj
 0003:000006e0       ?isPackaged@?1??__crtIsPackagedApp@@9@9 00000001800566e0     LIBCMT:winapisupp.obj
 0003:00000f10       ?dazSupported@?1??_ctrlfp@@9@9 0000000180056f10     LIBCMT:fpctrl.obj
 0003:00001358       __rgctypeflag              0000000180057358     LIBCMT:mbctype.obj
 0003:00001360       __rgcode_page_info         0000000180057360     LIBCMT:mbctype.obj
 0003:00001458       _ctype_loc_style           0000000180057458     LIBCMT:wsetloca.obj
 0003:00001540       ?_names@?1??_get_fname@@9@9 0000000180057540     LIBCMT:fpexcept.obj
 0003:00001710       dststart                   0000000180057710     LIBCMT:tzset.obj
 0003:00001720       dstend                     0000000180057720     LIBCMT:tzset.obj
 0003:00001740       tzstd                      0000000180057740     LIBCMT:timeset.obj
 0003:00001780       tzdst                      0000000180057780     LIBCMT:timeset.obj
 0003:00001850       DoubleFormat               0000000180057850     LIBCMT:intrncvt.obj
 0003:00001868       FloatFormat                0000000180057868     LIBCMT:intrncvt.obj
 0003:00001b60       _module                    0000000180057b60     njsOracle.obj
 0003:00002188       allocator_arg              0000000180058188     libcpmt:syserror.obj
 0003:00002189       piecewise_construct        0000000180058189     libcpmt:syserror.obj
 0003:00002198       global_locale              0000000180058198     libcpmt:locale0.obj
 0003:000021a8       _Fac_head                  00000001800581a8     libcpmt:locale0.obj
 0003:000021c8       allocator_arg              00000001800581c8     libcpmt:locale0.obj
 0003:000021c9       piecewise_construct        00000001800581c9     libcpmt:locale0.obj
 0003:000021ca       _Fac_tidy_reg              00000001800581ca     libcpmt:locale0.obj
 0003:000021d0       classic_locale             00000001800581d0     libcpmt:locale0.obj
 0003:000021e8       ?registered@?1??_Setgloballocale@locale@std@@CAXPEAX@Z@4_NA 00000001800581e8     libcpmt:locale0.obj
 0003:00002200       stdstr                     0000000180058200     libcpmt:ios.obj
 0003:00002250       stdopens                   0000000180058250     libcpmt:ios.obj
 0003:0000225a       allocator_arg              000000018005825a     libcpmt:ios.obj
 0003:0000225b       piecewise_construct        000000018005825b     libcpmt:ios.obj
 0003:00002268       _Tuple_alloc               0000000180058268     libcpmt:xthrow.obj
 0003:00002269       ignore                     0000000180058269     libcpmt:xthrow.obj
 0003:0000226a       allocator_arg              000000018005826a     libcpmt:xthrow.obj
 0003:0000226b       piecewise_construct        000000018005826b     libcpmt:xthrow.obj
 0003:00002270       initlocks                  0000000180058270     libcpmt:xlock.obj
 0003:00002280       mtx                        0000000180058280     libcpmt:xlock.obj
 0003:00002320       allocator_arg              0000000180058320     libcpmt:iomanip.obj
 0003:00002321       piecewise_construct        0000000180058321     libcpmt:iomanip.obj
 0003:00002370       atfuns_cdecl               0000000180058370     libcpmt:iosptrs.obj
 0003:000023c0       initlocks                  00000001800583c0     libcpmt:iosptrs.obj
 0003:000023c1       allocator_arg              00000001800583c1     libcpmt:iosptrs.obj
 0003:000023c2       piecewise_construct        00000001800583c2     libcpmt:iosptrs.obj
 0003:000023c3       init_atexit                00000001800583c3     libcpmt:iosptrs.obj
 0003:000023c4       allocator_arg              00000001800583c4     libcpmt:locale.obj
 0003:000023c5       piecewise_construct        00000001800583c5     libcpmt:locale.obj
 0003:000023d8       allocator_arg              00000001800583d8     libcpmt:wlocale.obj
 0003:000023d9       piecewise_construct        00000001800583d9     libcpmt:wlocale.obj
 0003:00002488       allocator_arg              0000000180058488     libcpmt:xlocale.obj
 0003:00002489       piecewise_construct        0000000180058489     libcpmt:xlocale.obj
 0003:000024d0       allocator_arg              00000001800584d0     libcpmt:xdateord.obj
 0003:000024d1       piecewise_construct        00000001800584d1     libcpmt:xdateord.obj
 0003:00002500       GS_ExceptionRecord         0000000180058500     LIBCMT:gs_report.obj
 0003:000025a0       GS_ContextRecord           00000001800585a0     LIBCMT:gs_report.obj
 0003:00002a70       DebuggerWasPresent         0000000180058a70     LIBCMT:gs_report.obj
 0003:00002a78       __proc_attached            0000000180058a78     LIBCMT:dllcrt0.obj
 0003:00002aa0       lclcritsects               0000000180058aa0     LIBCMT:mlock.obj
 0003:00002cd8       __crtCallProc              0000000180058cd8     LIBCMT:winapinls.obj
 0003:00002d38       ctrlc_action               0000000180058d38     LIBCMT:winsig.obj
 0003:00002d40       ctrlbreak_action           0000000180058d40     LIBCMT:winsig.obj
 0003:00002d48       abort_action               0000000180058d48     LIBCMT:winsig.obj
 0003:00002d50       term_action                0000000180058d50     LIBCMT:winsig.obj
 0003:00002d58       ConsoleCtrlHandler_Installed 0000000180058d58     LIBCMT:winsig.obj
 0003:00002d80       ?outmsg@?8??_NMSG_WRITE@@9@9 0000000180058d80     LIBCMT:crt0msg.obj
 0003:000033b8       ?pfnMessageBox@?1??__crtMessageBoxW@@9@9 00000001800593b8     LIBCMT:crtmboxw.obj
 0003:000033c0       ?pfnGetActiveWindow@?1??__crtMessageBoxW@@9@9 00000001800593c0     LIBCMT:crtmboxw.obj
 0003:000033c8       ?pfnGetLastActivePopup@?1??__crtMessageBoxW@@9@9 00000001800593c8     LIBCMT:crtmboxw.obj
 0003:000033d0       ?pfnGetProcessWindowStation@?1??__crtMessageBoxW@@9@9 00000001800593d0     LIBCMT:crtmboxw.obj
 0003:000033d8       ?pfnGetUserObjectInformation@?1??__crtMessageBoxW@@9@9 00000001800593d8     LIBCMT:crtmboxw.obj
 0003:000033e8       __type_info_root_node      00000001800593e8     LIBCMT:typname.obj
 0003:00003420       fSystemSet                 0000000180059420     LIBCMT:mbctype.obj
 0003:00003630       ?_pgmname@?1??_setargv@@9@9 0000000180059630     LIBCMT:stdargv.obj
 0003:00003740       lastTZ                     0000000180059740     LIBCMT:tzset.obj
 0003:00003748       ?first_time@?1??__tzset@@9@9 0000000180059748     LIBCMT:tzset.obj
 0003:0000374c       tzapiused                  000000018005974c     LIBCMT:tzset.obj
 0003:00003750       tzinfo                     0000000180059750     LIBCMT:tzset.obj
 0003:00003800       g_pfnRtlGenRandom          0000000180059800     LIBCMT:rand_s.obj
 0003:00003818       __enable_percent_n         0000000180059818     LIBCMT:printf.obj
 0003:00003868       heap                       0000000180059868     LIBCMT:undname.obj
 0003:000038c0       allocator_arg              00000001800598c0     njsOracle.obj
 0003:000038c1       piecewise_construct        00000001800598c1     njsOracle.obj
 0003:000038c2       allocator_arg              00000001800598c2     njsPool.obj
 0003:000038c3       piecewise_construct        00000001800598c3     njsPool.obj
 0003:000038c4       allocator_arg              00000001800598c4     njsConnection.obj
 0003:000038c5       piecewise_construct        00000001800598c5     njsConnection.obj
 0003:000038c6       allocator_arg              00000001800598c6     njsResultSet.obj
 0003:000038c7       piecewise_construct        00000001800598c7     njsResultSet.obj
 0003:000038e8       allocator_arg              00000001800598e8     njsMessages.obj
 0003:000038e9       piecewise_construct        00000001800598e9     njsMessages.obj
 0003:000038ea       allocator_arg              00000001800598ea     njsIntLob.obj
 0003:000038eb       piecewise_construct        00000001800598eb     njsIntLob.obj
 0003:000038ec       allocator_arg              00000001800598ec     dpiEnv.obj
 0003:000038ed       piecewise_construct        00000001800598ed     dpiEnv.obj
 0003:000038ee       allocator_arg              00000001800598ee     dpiEnvImpl.obj
 0003:000038ef       piecewise_construct        00000001800598ef     dpiEnvImpl.obj
 0003:000038f8       allocator_arg              00000001800598f8     dpiExceptionImpl.obj
 0003:000038f9       piecewise_construct        00000001800598f9     dpiExceptionImpl.obj
 0003:000038fa       allocator_arg              00000001800598fa     dpiConnImpl.obj
 0003:000038fb       piecewise_construct        00000001800598fb     dpiConnImpl.obj
 0003:000038fc       allocator_arg              00000001800598fc     dpiDateTimeArrayImpl.obj
 0003:000038fd       piecewise_construct        00000001800598fd     dpiDateTimeArrayImpl.obj
 0003:000038fe       allocator_arg              00000001800598fe     dpiPoolImpl.obj
 0003:000038ff       piecewise_construct        00000001800598ff     dpiPoolImpl.obj
 0003:00003900       allocator_arg              0000000180059900     dpiStmtImpl.obj
 0003:00003901       piecewise_construct        0000000180059901     dpiStmtImpl.obj
 0003:00003902       allocator_arg              0000000180059902     dpiUtils.obj
 0003:00003903       piecewise_construct        0000000180059903     dpiUtils.obj
 0003:00003904       allocator_arg              0000000180059904     dpiCommon.obj
 0003:00003905       piecewise_construct        0000000180059905     dpiCommon.obj
 0004:00000000       $pdata$??__Einitlocks@std@@YAXXZ 000000018005b000     libcpmt:xlock.obj
 0004:0000000c       $pdata$??__Einitlocks@std@@YAXXZ 000000018005b00c     libcpmt:iosptrs.obj
 0004:00000018       $pdata$?_Raise@exception@stdext@@QEBAXXZ 000000018005b018     njsOracle.obj
 0004:00000024       $pdata$??_Gruntime_error@std@@UEAAPEAXI@Z 000000018005b024     njsOracle.obj
 0004:00000024       $pdata$??_GException@dpi@@UEAAPEAXI@Z 000000018005b024     dpiEnvImpl.obj
 0004:00000024       $pdata$??_G_System_error@std@@UEAAPEAXI@Z 000000018005b024     njsOracle.obj
 0004:00000024       $pdata$??_Gfailure@ios_base@std@@UEAAPEAXI@Z 000000018005b024     njsOracle.obj
 0004:00000024       $pdata$??_Gsystem_error@std@@UEAAPEAXI@Z 000000018005b024     njsOracle.obj
 0004:00000024       $pdata$??_Gexception@stdext@@UEAAPEAXI@Z 000000018005b024     njsOracle.obj
 0004:00000030       $pdata$?_Doraise@runtime_error@std@@MEBAXXZ 000000018005b030     njsOracle.obj
 0004:00000030       $pdata$?_Doraise@system_error@std@@MEBAXXZ 000000018005b030     njsOracle.obj
 0004:00000030       $pdata$?_Doraise@failure@ios_base@std@@MEBAXXZ 000000018005b030     njsOracle.obj
 0004:0000003c       $pdata$??0_Locinfo@std@@QEAA@PEBD@Z 000000018005b03c     njsOracle.obj
 0004:00000048       $pdata$??1_Locinfo@std@@QEAA@XZ 000000018005b048     njsOracle.obj
 0004:00000054       $pdata$??_G_Facet_base@std@@UEAAPEAXI@Z 000000018005b054     njsOracle.obj
 0004:00000054       $pdata$??_G?$num_put@DV?$ostreambuf_iterator@DU?$char_traits@D@std@@@std@@@std@@MEAAPEAXI@Z 000000018005b054     njsOracle.obj
 0004:00000060       $pdata$??1locale@std@@QEAA@XZ 000000018005b060     njsOracle.obj
 0004:0000006c       $pdata$?_Getcat@?$ctype@D@std@@SA_KPEAPEBVfacet@locale@2@PEBV42@@Z 000000018005b06c     njsOracle.obj
 0004:00000078       $pdata$?do_tolower@?$ctype@D@std@@MEBAPEBDPEADPEBD@Z 000000018005b078     njsOracle.obj
 0004:00000084       $pdata$0$?do_tolower@?$ctype@D@std@@MEBAPEBDPEADPEBD@Z 000000018005b084     njsOracle.obj
 0004:00000090       $pdata$1$?do_tolower@?$ctype@D@std@@MEBAPEBDPEADPEBD@Z 000000018005b090     njsOracle.obj
 0004:0000009c       $pdata$?do_toupper@?$ctype@D@std@@MEBAPEBDPEADPEBD@Z 000000018005b09c     njsOracle.obj
 0004:000000a8       $pdata$0$?do_toupper@?$ctype@D@std@@MEBAPEBDPEADPEBD@Z 000000018005b0a8     njsOracle.obj
 0004:000000b4       $pdata$1$?do_toupper@?$ctype@D@std@@MEBAPEBDPEADPEBD@Z 000000018005b0b4     njsOracle.obj
 0004:000000c0       $pdata$?do_widen@?$ctype@D@std@@MEBAPEBDPEBD0PEAD@Z 000000018005b0c0     njsOracle.obj
 0004:000000cc       $pdata$?do_narrow@?$ctype@D@std@@MEBAPEBDPEBD0DPEAD@Z 000000018005b0cc     njsOracle.obj
 0004:000000d8       $pdata$??_G?$ctype@D@std@@MEAAPEAXI@Z 000000018005b0d8     njsOracle.obj
 0004:000000e4       $pdata$?message@error_code@std@@QEBA?AV?$basic_string@DU?$char_traits@D@std@@V?$allocator@D@2@@2@XZ 000000018005b0e4     njsOracle.obj
 0004:000000f0       $pdata$?_Makestr@_System_error@std@@CA?AV?$basic_string@DU?$char_traits@D@std@@V?$allocator@D@2@@2@Verror_code@2@V32@@Z 000000018005b0f0     njsOracle.obj
 0004:000000fc       $pdata$??0system_error@std@@QEAA@Verror_code@1@PEBD@Z 000000018005b0fc     njsOracle.obj
 0004:00000108       $pdata$?clear@ios_base@std@@QEAAXH_N@Z 000000018005b108     njsOracle.obj
 0004:00000114       $pdata$?getloc@ios_base@std@@QEBA?AVlocale@2@XZ 000000018005b114     njsOracle.obj
 0004:00000120       $pdata$?_Init@ios_base@std@@IEAAXXZ 000000018005b120     njsOracle.obj
 0004:0000012c       $pdata$??_G?$basic_ios@DU?$char_traits@D@std@@@std@@UEAAPEAXI@Z 000000018005b12c     njsOracle.obj
 0004:0000012c       $pdata$??_Gios_base@std@@UEAAPEAXI@Z 000000018005b12c     njsOracle.obj
 0004:00000138       $pdata$?FunctionCallbackWrapper@imp@Nan@@YAXAEBV?$FunctionCallbackInfo@VValue@v8@@@v8@@@Z 000000018005b138     njsOracle.obj
 0004:00000144       $pdata$?GetterCallbackWrapper@imp@Nan@@YAXV?$Local@VName@v8@@@v8@@AEBV?$PropertyCallbackInfo@VValue@v8@@@4@@Z 000000018005b144     njsOracle.obj
 0004:00000150       $pdata$?SetterCallbackWrapper@imp@Nan@@YAXV?$Local@VName@v8@@@v8@@V?$Local@VValue@v8@@@4@AEBV?$PropertyCallbackInfo@X@4@@Z 000000018005b150     njsOracle.obj
 0004:0000015c       $pdata$?New@?$Factory@VFunctionTemplate@v8@@@imp@Nan@@SA?AV?$Local@VFunctionTemplate@v8@@@v8@@P6AXAEBV?$FunctionCallbackInfo@VValue@v8@@@3@@ZV?$Local@VValue@v8@@@5@V?$Local@VSignature@v8@@@5@@Z 000000018005b15c     njsOracle.obj
 0004:00000168       $pdata$?SetAccessor@Nan@@YAXV?$Local@VObjectTemplate@v8@@@v8@@V?$Local@VString@v8@@@3@P6AX1AEBV?$PropertyCallbackInfo@VValue@v8@@@1@@ZP6AX1V?$Local@VValue@v8@@@3@AEBV?$PropertyCallbackInfo@X@1@@Z4W4AccessControl@3@W4PropertyAttribute@3@V?$Local@VAccessorSignature@v8@@@3@@Z 000000018005b168     njsOracle.obj
 0004:00000174       $pdata$??1ObjectWrap@Nan@@UEAA@XZ 000000018005b174     njsOracle.obj
 0004:00000180       $pdata$?Wrap@ObjectWrap@Nan@@IEAAXV?$Local@VObject@v8@@@v8@@@Z 000000018005b180     njsOracle.obj
 0004:0000018c       $pdata$?Ref@ObjectWrap@Nan@@MEAAXXZ 000000018005b18c     njsOracle.obj
 0004:00000198       $pdata$?Unref@ObjectWrap@Nan@@MEAAXXZ 000000018005b198     njsOracle.obj
 0004:000001a4       $pdata$?WeakCallback@ObjectWrap@Nan@@CAXAEBV?$WeakCallbackInfo@VObjectWrap@Nan@@@v8@@@Z 000000018005b1a4     njsOracle.obj
 0004:000001b0       $pdata$??_GObjectWrap@Nan@@UEAAPEAXI@Z 000000018005b1b0     njsOracle.obj
 0004:000001bc       $pdata$??0connectionBaton@@QEAA@V?$Local@VFunction@v8@@@v8@@@Z 000000018005b1bc     njsOracle.obj
 0004:000001c8       $pdata$??1connectionBaton@@QEAA@XZ 000000018005b1c8     njsOracle.obj
 0004:000001d4       $pdata$??0Oracledb@@AEAA@XZ 000000018005b1d4     njsOracle.obj
 0004:000001e0       $pdata$??_GOracledb@@EEAAPEAXI@Z 000000018005b1e0     njsOracle.obj
 0004:000001ec       $pdata$??1Oracledb@@EEAA@XZ 000000018005b1ec     njsOracle.obj
 0004:000001f8       $pdata$?driverName@Oracledb@@AEBA?BV?$basic_string@DU?$char_traits@D@std@@V?$allocator@D@2@@std@@XZ 000000018005b1f8     njsOracle.obj
 0004:00000204       $pdata$??_D?$basic_stringstream@DU?$char_traits@D@std@@V?$allocator@D@2@@std@@QEAAXXZ 000000018005b204     njsOracle.obj
 0004:00000210       $pdata$?Init@Oracledb@@SAXV?$Local@VObject@v8@@@v8@@@Z 000000018005b210     njsOracle.obj
 0004:0000021c       $pdata$?New@Oracledb@@CAXAEBV?$FunctionCallbackInfo@VValue@v8@@@Nan@@@Z 000000018005b21c     njsOracle.obj
 0004:00000228       $pdata$?GetPoolMin@Oracledb@@CAXV?$Local@VString@v8@@@v8@@AEBV?$PropertyCallbackInfo@VValue@v8@@@Nan@@@Z 000000018005b228     njsOracle.obj
 0004:00000234       $pdata$?SetPoolMin@Oracledb@@CAXV?$Local@VString@v8@@@v8@@V?$Local@VValue@v8@@@3@AEBV?$PropertyCallbackInfo@X@Nan@@@Z 000000018005b234     njsOracle.obj
 0004:00000240       $pdata$?GetPoolMax@Oracledb@@CAXV?$Local@VString@v8@@@v8@@AEBV?$PropertyCallbackInfo@VValue@v8@@@Nan@@@Z 000000018005b240     njsOracle.obj
 0004:0000024c       $pdata$?SetPoolMax@Oracledb@@CAXV?$Local@VString@v8@@@v8@@V?$Local@VValue@v8@@@3@AEBV?$PropertyCallbackInfo@X@Nan@@@Z 000000018005b24c     njsOracle.obj
 0004:00000258       $pdata$?GetPoolIncrement@Oracledb@@CAXV?$Local@VString@v8@@@v8@@AEBV?$PropertyCallbackInfo@VValue@v8@@@Nan@@@Z 000000018005b258     njsOracle.obj
 0004:00000264       $pdata$?SetPoolIncrement@Oracledb@@CAXV?$Local@VString@v8@@@v8@@V?$Local@VValue@v8@@@3@AEBV?$PropertyCallbackInfo@X@Nan@@@Z 000000018005b264     njsOracle.obj
 0004:00000270       $pdata$?GetPoolTimeout@Oracledb@@CAXV?$Local@VString@v8@@@v8@@AEBV?$PropertyCallbackInfo@VValue@v8@@@Nan@@@Z 000000018005b270     njsOracle.obj
 0004:0000027c       $pdata$?SetPoolTimeout@Oracledb@@CAXV?$Local@VString@v8@@@v8@@V?$Local@VValue@v8@@@3@AEBV?$PropertyCallbackInfo@X@Nan@@@Z 000000018005b27c     njsOracle.obj
 0004:00000288       $pdata$?GetMaxRows@Oracledb@@CAXV?$Local@VString@v8@@@v8@@AEBV?$PropertyCallbackInfo@VValue@v8@@@Nan@@@Z 000000018005b288     njsOracle.obj
 0004:00000294       $pdata$?SetMaxRows@Oracledb@@CAXV?$Local@VString@v8@@@v8@@V?$Local@VValue@v8@@@3@AEBV?$PropertyCallbackInfo@X@Nan@@@Z 000000018005b294     njsOracle.obj
 0004:000002a0       $pdata$?GetOutFormat@Oracledb@@CAXV?$Local@VString@v8@@@v8@@AEBV?$PropertyCallbackInfo@VValue@v8@@@Nan@@@Z 000000018005b2a0     njsOracle.obj
 0004:000002ac       $pdata$?SetOutFormat@Oracledb@@CAXV?$Local@VString@v8@@@v8@@V?$Local@VValue@v8@@@3@AEBV?$PropertyCallbackInfo@X@Nan@@@Z 000000018005b2ac     njsOracle.obj
 0004:000002b8       $pdata$?GetStmtCacheSize@Oracledb@@CAXV?$Local@VString@v8@@@v8@@AEBV?$PropertyCallbackInfo@VValue@v8@@@Nan@@@Z 000000018005b2b8     njsOracle.obj
 0004:000002c4       $pdata$?SetStmtCacheSize@Oracledb@@CAXV?$Local@VString@v8@@@v8@@V?$Local@VValue@v8@@@3@AEBV?$PropertyCallbackInfo@X@Nan@@@Z 000000018005b2c4     njsOracle.obj
 0004:000002d0       $pdata$?GetPrefetchRows@Oracledb@@CAXV?$Local@VString@v8@@@v8@@AEBV?$PropertyCallbackInfo@VValue@v8@@@Nan@@@Z 000000018005b2d0     njsOracle.obj
 0004:000002dc       $pdata$?SetPrefetchRows@Oracledb@@CAXV?$Local@VString@v8@@@v8@@V?$Local@VValue@v8@@@3@AEBV?$PropertyCallbackInfo@X@Nan@@@Z 000000018005b2dc     njsOracle.obj
 0004:000002e8       $pdata$?GetAutoCommit@Oracledb@@CAXV?$Local@VString@v8@@@v8@@AEBV?$PropertyCallbackInfo@VValue@v8@@@Nan@@@Z 000000018005b2e8     njsOracle.obj
 0004:000002f4       $pdata$?SetAutoCommit@Oracledb@@CAXV?$Local@VString@v8@@@v8@@V?$Local@VValue@v8@@@3@AEBV?$PropertyCallbackInfo@X@Nan@@@Z 000000018005b2f4     njsOracle.obj
 0004:00000300       $pdata$?SetVersion@Oracledb@@CAXV?$Local@VString@v8@@@v8@@V?$Local@VValue@v8@@@3@AEBV?$PropertyCallbackInfo@X@Nan@@@Z 000000018005b300     njsOracle.obj
 0004:0000030c       $pdata$?GetConnectionClass@Oracledb@@CAXV?$Local@VString@v8@@@v8@@AEBV?$PropertyCallbackInfo@VValue@v8@@@Nan@@@Z 000000018005b30c     njsOracle.obj
 0004:00000318       $pdata$?SetConnectionClass@Oracledb@@CAXV?$Local@VString@v8@@@v8@@V?$Local@VValue@v8@@@3@AEBV?$PropertyCallbackInfo@X@Nan@@@Z 000000018005b318     njsOracle.obj
 0004:00000324       $pdata$?GetExternalAuth@Oracledb@@CAXV?$Local@VString@v8@@@v8@@AEBV?$PropertyCallbackInfo@VValue@v8@@@Nan@@@Z 000000018005b324     njsOracle.obj
 0004:00000330       $pdata$?SetExternalAuth@Oracledb@@CAXV?$Local@VString@v8@@@v8@@V?$Local@VValue@v8@@@3@AEBV?$PropertyCallbackInfo@X@Nan@@@Z 000000018005b330     njsOracle.obj
 0004:0000033c       $pdata$?GetLobPrefetchSize@Oracledb@@CAXV?$Local@VString@v8@@@v8@@AEBV?$PropertyCallbackInfo@VValue@v8@@@Nan@@@Z 000000018005b33c     njsOracle.obj
 0004:00000348       $pdata$?SetLobPrefetchSize@Oracledb@@CAXV?$Local@VString@v8@@@v8@@V?$Local@VValue@v8@@@3@AEBV?$PropertyCallbackInfo@X@Nan@@@Z 000000018005b348     njsOracle.obj
 0004:00000354       $pdata$?GetFetchAsString@Oracledb@@CAXV?$Local@VString@v8@@@v8@@AEBV?$PropertyCallbackInfo@VValue@v8@@@Nan@@@Z 000000018005b354     njsOracle.obj
 0004:00000360       $pdata$?SetFetchAsString@Oracledb@@CAXV?$Local@VString@v8@@@v8@@V?$Local@VValue@v8@@@3@AEBV?$PropertyCallbackInfo@X@Nan@@@Z 000000018005b360     njsOracle.obj
 0004:0000036c       $pdata$?GetOracleClientVersion@Oracledb@@CAXV?$Local@VString@v8@@@v8@@AEBV?$PropertyCallbackInfo@VValue@v8@@@Nan@@@Z 000000018005b36c     njsOracle.obj
 0004:00000378       $pdata$?SetOracleClientVersion@Oracledb@@CAXV?$Local@VString@v8@@@v8@@V?$Local@VValue@v8@@@3@AEBV?$PropertyCallbackInfo@X@Nan@@@Z 000000018005b378     njsOracle.obj
 0004:00000384       $pdata$?GetConnection@Oracledb@@CAXAEBV?$FunctionCallbackInfo@VValue@v8@@@Nan@@@Z 000000018005b384     njsOracle.obj
 0004:00000390       $pdata$?Async_GetConnection@Oracledb@@CAXPEAUuv_work_s@@@Z 000000018005b390     njsOracle.obj
 0004:0000039c       $pdata$?Async_AfterGetConnection@Oracledb@@CAXPEAUuv_work_s@@@Z 000000018005b39c     njsOracle.obj
 0004:000003a8       $pdata$?CreatePool@Oracledb@@CAXAEBV?$FunctionCallbackInfo@VValue@v8@@@Nan@@@Z 000000018005b3a8     njsOracle.obj
 0004:000003b4       $pdata$?Async_CreatePool@Oracledb@@CAXPEAUuv_work_s@@@Z 000000018005b3b4     njsOracle.obj
 0004:000003c0       $pdata$?Async_AfterCreatePool@Oracledb@@CAXPEAUuv_work_s@@@Z 000000018005b3c0     njsOracle.obj
 0004:000003cc       $pdata$init                000000018005b3cc     njsOracle.obj
 0004:000003d8       $pdata$??0?$basic_string@DU?$char_traits@D@std@@V?$allocator@D@2@@std@@QEAA@$$QEAV01@@Z 000000018005b3d8     njsOracle.obj
 0004:000003e4       $pdata$??4?$basic_string@DU?$char_traits@D@std@@V?$allocator@D@2@@std@@QEAAAEAV01@$$QEAV01@@Z 000000018005b3e4     njsOracle.obj
 0004:000003f0       $pdata$??1?$basic_string@DU?$char_traits@D@std@@V?$allocator@D@2@@std@@QEAA@XZ 000000018005b3f0     njsOracle.obj
 0004:000003f0       $pdata$??1fetchInfo@@QEAA@XZ 000000018005b3f0     njsConnection.obj
 0004:000003fc       $pdata$??1?$_Yarn@_W@std@@QEAA@XZ 000000018005b3fc     njsOracle.obj
 0004:000003fc       $pdata$??1?$_Yarn@D@std@@QEAA@XZ 000000018005b3fc     njsOracle.obj
 0004:00000408       $pdata$??1?$basic_streambuf@DU?$char_traits@D@std@@@std@@UEAA@XZ 000000018005b408     njsOracle.obj
 0004:00000414       $pdata$?uflow@?$basic_streambuf@DU?$char_traits@D@std@@@std@@MEAAHXZ 000000018005b414     njsOracle.obj
 0004:00000420       $pdata$?xsgetn@?$basic_streambuf@DU?$char_traits@D@std@@@std@@MEAA_JPEAD_J@Z 000000018005b420     njsOracle.obj
 0004:0000042c       $pdata$0$?xsgetn@?$basic_streambuf@DU?$char_traits@D@std@@@std@@MEAA_JPEAD_J@Z 000000018005b42c     njsOracle.obj
 0004:00000438       $pdata$1$?xsgetn@?$basic_streambuf@DU?$char_traits@D@std@@@std@@MEAA_JPEAD_J@Z 000000018005b438     njsOracle.obj
 0004:00000444       $pdata$?xsputn@?$basic_streambuf@DU?$char_traits@D@std@@@std@@MEAA_JPEBD_J@Z 000000018005b444     njsOracle.obj
 0004:00000450       $pdata$0$?xsputn@?$basic_streambuf@DU?$char_traits@D@std@@@std@@MEAA_JPEBD_J@Z 000000018005b450     njsOracle.obj
 0004:0000045c       $pdata$1$?xsputn@?$basic_streambuf@DU?$char_traits@D@std@@@std@@MEAA_JPEBD_J@Z 000000018005b45c     njsOracle.obj
 0004:00000468       $pdata$??6?$basic_ostream@DU?$char_traits@D@std@@@std@@QEAAAEAV01@H@Z 000000018005b468     njsOracle.obj
 0004:00000474       $pdata$??0?$basic_stringstream@DU?$char_traits@D@std@@V?$allocator@D@2@@std@@QEAA@H@Z 000000018005b474     njsOracle.obj
 0004:00000480       $pdata$??1?$basic_stringstream@DU?$char_traits@D@std@@V?$allocator@D@2@@std@@UEAA@XZ 000000018005b480     njsOracle.obj
 0004:0000048c       $pdata$?str@?$basic_stringstream@DU?$char_traits@D@std@@V?$allocator@D@2@@std@@QEBA?AV?$basic_string@DU?$char_traits@D@std@@V?$allocator@D@2@@2@XZ 000000018005b48c     njsOracle.obj
 0004:00000498       $pdata$??1?$basic_stringbuf@DU?$char_traits@D@std@@V?$allocator@D@2@@std@@UEAA@XZ 000000018005b498     njsOracle.obj
 0004:000004a4       $pdata$?overflow@?$basic_stringbuf@DU?$char_traits@D@std@@V?$allocator@D@2@@std@@MEAAHH@Z 000000018005b4a4     njsOracle.obj
 0004:000004b0       $pdata$0$?overflow@?$basic_stringbuf@DU?$char_traits@D@std@@V?$allocator@D@2@@std@@MEAAHH@Z 000000018005b4b0     njsOracle.obj
 0004:000004bc       $pdata$5$?overflow@?$basic_stringbuf@DU?$char_traits@D@std@@V?$allocator@D@2@@std@@MEAAHH@Z 000000018005b4bc     njsOracle.obj
 0004:000004c8       $pdata$7$?overflow@?$basic_stringbuf@DU?$char_traits@D@std@@V?$allocator@D@2@@std@@MEAAHH@Z 000000018005b4c8     njsOracle.obj
 0004:000004d4       $pdata$?seekoff@?$basic_stringbuf@DU?$char_traits@D@std@@V?$allocator@D@2@@std@@MEAA?AV?$fpos@H@2@_JHH@Z 000000018005b4d4     njsOracle.obj
 0004:000004e0       $pdata$?seekpos@?$basic_stringbuf@DU?$char_traits@D@std@@V?$allocator@D@2@@std@@MEAA?AV?$fpos@H@2@V32@H@Z 000000018005b4e0     njsOracle.obj
 0004:000004ec       $pdata$??_G?$basic_istream@DU?$char_traits@D@std@@@std@@UEAAPEAXI@Z 000000018005b4ec     njsOracle.obj
 0004:000004f8       $pdata$??_G?$basic_streambuf@DU?$char_traits@D@std@@@std@@UEAAPEAXI@Z 000000018005b4f8     njsOracle.obj
 0004:00000504       $pdata$??_G?$basic_ostream@DU?$char_traits@D@std@@@std@@UEAAPEAXI@Z 000000018005b504     njsOracle.obj
 0004:00000510       $pdata$??_G?$basic_stringstream@DU?$char_traits@D@std@@V?$allocator@D@2@@std@@UEAAPEAXI@Z 000000018005b510     njsOracle.obj
 0004:0000051c       $pdata$??_G?$basic_iostream@DU?$char_traits@D@std@@@std@@UEAAPEAXI@Z 000000018005b51c     njsOracle.obj
 0004:00000528       $pdata$??_G?$basic_stringbuf@DU?$char_traits@D@std@@V?$allocator@D@2@@std@@UEAAPEAXI@Z 000000018005b528     njsOracle.obj
 0004:00000534       $pdata$?_Assign_rv@?$basic_string@DU?$char_traits@D@std@@V?$allocator@D@2@@std@@QEAAX$$QEAV12@@Z 000000018005b534     njsOracle.obj
 0004:00000540       $pdata$?append@?$basic_string@DU?$char_traits@D@std@@V?$allocator@D@2@@std@@QEAAAEAV12@AEBV12@_K1@Z 000000018005b540     njsOracle.obj
 0004:0000054c       $pdata$0$?append@?$basic_string@DU?$char_traits@D@std@@V?$allocator@D@2@@std@@QEAAAEAV12@AEBV12@_K1@Z 000000018005b54c     njsOracle.obj
 0004:00000558       $pdata$1$?append@?$basic_string@DU?$char_traits@D@std@@V?$allocator@D@2@@std@@QEAAAEAV12@AEBV12@_K1@Z 000000018005b558     njsOracle.obj
 0004:00000564       $pdata$2$?append@?$basic_string@DU?$char_traits@D@std@@V?$allocator@D@2@@std@@QEAAAEAV12@AEBV12@_K1@Z 000000018005b564     njsOracle.obj
 0004:00000570       $pdata$?append@?$basic_string@DU?$char_traits@D@std@@V?$allocator@D@2@@std@@QEAAAEAV12@PEBD_K@Z 000000018005b570     njsOracle.obj
 0004:0000057c       $pdata$0$?append@?$basic_string@DU?$char_traits@D@std@@V?$allocator@D@2@@std@@QEAAAEAV12@PEBD_K@Z 000000018005b57c     njsOracle.obj
 0004:00000588       $pdata$1$?append@?$basic_string@DU?$char_traits@D@std@@V?$allocator@D@2@@std@@QEAAAEAV12@PEBD_K@Z 000000018005b588     njsOracle.obj
 0004:00000594       $pdata$2$?append@?$basic_string@DU?$char_traits@D@std@@V?$allocator@D@2@@std@@QEAAAEAV12@PEBD_K@Z 000000018005b594     njsOracle.obj
 0004:000005a0       $pdata$?assign@?$basic_string@DU?$char_traits@D@std@@V?$allocator@D@2@@std@@QEAAAEAV12@AEBV12@_K1@Z 000000018005b5a0     njsOracle.obj
 0004:000005ac       $pdata$?assign@?$basic_string@DU?$char_traits@D@std@@V?$allocator@D@2@@std@@QEAAAEAV12@PEBD_K@Z 000000018005b5ac     njsOracle.obj
 0004:000005b8       $pdata$?init@?$basic_ios@DU?$char_traits@D@std@@@std@@IEAAXPEAV?$basic_streambuf@DU?$char_traits@D@std@@@2@_N@Z 000000018005b5b8     njsOracle.obj
 0004:000005c4       $pdata$??0?$basic_iostream@DU?$char_traits@D@std@@@std@@QEAA@PEAV?$basic_streambuf@DU?$char_traits@D@std@@@1@@Z 000000018005b5c4     njsOracle.obj
 0004:000005d0       $pdata$?str@?$basic_stringbuf@DU?$char_traits@D@std@@V?$allocator@D@2@@std@@QEBA?AV?$basic_string@DU?$char_traits@D@std@@V?$allocator@D@2@@2@XZ 000000018005b5d0     njsOracle.obj
 0004:000005dc       $pdata$??0sentry@?$basic_ostream@DU?$char_traits@D@std@@@std@@QEAA@AEAV12@@Z 000000018005b5dc     njsOracle.obj
 0004:000005e8       $pdata$??1sentry@?$basic_ostream@DU?$char_traits@D@std@@@std@@QEAA@XZ 000000018005b5e8     njsOracle.obj
 0004:000005f4       $pdata$?do_put@?$num_put@DV?$ostreambuf_iterator@DU?$char_traits@D@std@@@std@@@std@@MEBA?AV?$ostreambuf_iterator@DU?$char_traits@D@std@@@2@V32@AEAVios_base@2@D_N@Z 000000018005b5f4     njsOracle.obj
 0004:00000600       $pdata$?do_put@?$num_put@DV?$ostreambuf_iterator@DU?$char_traits@D@std@@@std@@@std@@MEBA?AV?$ostreambuf_iterator@DU?$char_traits@D@std@@@2@V32@AEAVios_base@2@DJ@Z 000000018005b600     njsOracle.obj
 0004:0000060c       $pdata$?do_put@?$num_put@DV?$ostreambuf_iterator@DU?$char_traits@D@std@@@std@@@std@@MEBA?AV?$ostreambuf_iterator@DU?$char_traits@D@std@@@2@V32@AEAVios_base@2@DK@Z 000000018005b60c     njsOracle.obj
 0004:00000618       $pdata$?do_put@?$num_put@DV?$ostreambuf_iterator@DU?$char_traits@D@std@@@std@@@std@@MEBA?AV?$ostreambuf_iterator@DU?$char_traits@D@std@@@2@V32@AEAVios_base@2@D_J@Z 000000018005b618     njsOracle.obj
 0004:00000624       $pdata$?do_put@?$num_put@DV?$ostreambuf_iterator@DU?$char_traits@D@std@@@std@@@std@@MEBA?AV?$ostreambuf_iterator@DU?$char_traits@D@std@@@2@V32@AEAVios_base@2@D_K@Z 000000018005b624     njsOracle.obj
 0004:00000630       $pdata$?do_put@?$num_put@DV?$ostreambuf_iterator@DU?$char_traits@D@std@@@std@@@std@@MEBA?AV?$ostreambuf_iterator@DU?$char_traits@D@std@@@2@V32@AEAVios_base@2@DN@Z 000000018005b630     njsOracle.obj
 0004:0000063c       $pdata$?do_put@?$num_put@DV?$ostreambuf_iterator@DU?$char_traits@D@std@@@std@@@std@@MEBA?AV?$ostreambuf_iterator@DU?$char_traits@D@std@@@2@V32@AEAVios_base@2@DO@Z 000000018005b63c     njsOracle.obj
 0004:00000648       $pdata$?do_put@?$num_put@DV?$ostreambuf_iterator@DU?$char_traits@D@std@@@std@@@std@@MEBA?AV?$ostreambuf_iterator@DU?$char_traits@D@std@@@2@V32@AEAVios_base@2@DPEBX@Z 000000018005b648     njsOracle.obj
 0004:00000654       $pdata$?falsename@?$numpunct@D@std@@QEBA?AV?$basic_string@DU?$char_traits@D@std@@V?$allocator@D@2@@2@XZ 000000018005b654     njsOracle.obj
 0004:00000660       $pdata$?truename@?$numpunct@D@std@@QEBA?AV?$basic_string@DU?$char_traits@D@std@@V?$allocator@D@2@@2@XZ 000000018005b660     njsOracle.obj
 0004:0000066c       $pdata$?do_grouping@?$numpunct@D@std@@MEBA?AV?$basic_string@DU?$char_traits@D@std@@V?$allocator@D@2@@2@XZ 000000018005b66c     njsOracle.obj
 0004:00000678       $pdata$?do_falsename@?$numpunct@D@std@@MEBA?AV?$basic_string@DU?$char_traits@D@std@@V?$allocator@D@2@@2@XZ 000000018005b678     njsOracle.obj
 0004:00000684       $pdata$?do_truename@?$numpunct@D@std@@MEBA?AV?$basic_string@DU?$char_traits@D@std@@V?$allocator@D@2@@2@XZ 000000018005b684     njsOracle.obj
 0004:00000690       $pdata$??_G?$numpunct@D@std@@MEAAPEAXI@Z 000000018005b690     njsOracle.obj
 0004:0000069c       $pdata$?insert@?$basic_string@DU?$char_traits@D@std@@V?$allocator@D@2@@std@@QEAAAEAV12@_K0D@Z 000000018005b69c     njsOracle.obj
 0004:000006a8       $pdata$0$?insert@?$basic_string@DU?$char_traits@D@std@@V?$allocator@D@2@@std@@QEAAAEAV12@_K0D@Z 000000018005b6a8     njsOracle.obj
 0004:000006b4       $pdata$1$?insert@?$basic_string@DU?$char_traits@D@std@@V?$allocator@D@2@@std@@QEAAAEAV12@_K0D@Z 000000018005b6b4     njsOracle.obj
 0004:000006c0       $pdata$2$?insert@?$basic_string@DU?$char_traits@D@std@@V?$allocator@D@2@@std@@QEAAAEAV12@_K0D@Z 000000018005b6c0     njsOracle.obj
 0004:000006cc       $pdata$?erase@?$basic_string@DU?$char_traits@D@std@@V?$allocator@D@2@@std@@QEAAAEAV12@_K0@Z 000000018005b6cc     njsOracle.obj
 0004:000006d8       $pdata$?_Grow@?$basic_string@DU?$char_traits@D@std@@V?$allocator@D@2@@std@@QEAA_N_K_N@Z 000000018005b6d8     njsOracle.obj
 0004:000006e4       $pdata$0$?_Grow@?$basic_string@DU?$char_traits@D@std@@V?$allocator@D@2@@std@@QEAA_N_K_N@Z 000000018005b6e4     njsOracle.obj
 0004:000006f0       $pdata$1$?_Grow@?$basic_string@DU?$char_traits@D@std@@V?$allocator@D@2@@std@@QEAA_N_K_N@Z 000000018005b6f0     njsOracle.obj
 0004:000006fc       $pdata$2$?_Grow@?$basic_string@DU?$char_traits@D@std@@V?$allocator@D@2@@std@@QEAA_N_K_N@Z 000000018005b6fc     njsOracle.obj
 0004:00000708       $pdata$3$?_Grow@?$basic_string@DU?$char_traits@D@std@@V?$allocator@D@2@@std@@QEAA_N_K_N@Z 000000018005b708     njsOracle.obj
 0004:00000714       $pdata$4$?_Grow@?$basic_string@DU?$char_traits@D@std@@V?$allocator@D@2@@std@@QEAA_N_K_N@Z 000000018005b714     njsOracle.obj
 0004:00000720       $pdata$5$?_Grow@?$basic_string@DU?$char_traits@D@std@@V?$allocator@D@2@@std@@QEAA_N_K_N@Z 000000018005b720     njsOracle.obj
 0004:0000072c       $pdata$??0?$basic_streambuf@DU?$char_traits@D@std@@@std@@IEAA@XZ 000000018005b72c     njsOracle.obj
 0004:00000738       $pdata$?flush@?$basic_ostream@DU?$char_traits@D@std@@@std@@QEAAAEAV12@XZ 000000018005b738     njsOracle.obj
 0004:00000744       $pdata$?_Fput@?$num_put@DV?$ostreambuf_iterator@DU?$char_traits@D@std@@@std@@@std@@AEBA?AV?$ostreambuf_iterator@DU?$char_traits@D@std@@@2@V32@AEAVios_base@2@DPEBD_K333@Z 000000018005b744     njsOracle.obj
 0004:00000750       $pdata$?_Iput@?$num_put@DV?$ostreambuf_iterator@DU?$char_traits@D@std@@@std@@@std@@AEBA?AV?$ostreambuf_iterator@DU?$char_traits@D@std@@@2@V32@AEAVios_base@2@DPEAD_K@Z 000000018005b750     njsOracle.obj
 0004:0000075c       $pdata$?grouping@?$numpunct@D@std@@QEBA?AV?$basic_string@DU?$char_traits@D@std@@V?$allocator@D@2@@2@XZ 000000018005b75c     njsOracle.obj
 0004:00000768       $pdata$?assign@?$basic_string@DU?$char_traits@D@std@@V?$allocator@D@2@@std@@QEAAAEAV12@_KD@Z 000000018005b768     njsOracle.obj
 0004:00000774       $pdata$?_Copy@?$basic_string@DU?$char_traits@D@std@@V?$allocator@D@2@@std@@QEAAX_K0@Z 000000018005b774     njsOracle.obj
 0004:00000780       $pdata$??$use_facet@V?$ctype@D@std@@@std@@YAAEBV?$ctype@D@0@AEBVlocale@0@@Z 000000018005b780     njsOracle.obj
 0004:0000078c       $pdata$??$?6U?$char_traits@D@std@@@std@@YAAEAV?$basic_ostream@DU?$char_traits@D@std@@@0@AEAV10@PEBD@Z 000000018005b78c     njsOracle.obj
 0004:00000798       $pdata$??$Unwrap@VILob@@@ObjectWrap@Nan@@SAPEAVILob@@V?$Local@VObject@v8@@@v8@@@Z 000000018005b798     njsConnection.obj
 0004:00000798       $pdata$??$Unwrap@VConnection@@@ObjectWrap@Nan@@SAPEAVConnection@@V?$Local@VObject@v8@@@v8@@@Z 000000018005b798     njsOracle.obj
 0004:00000798       $pdata$??$Unwrap@VResultSet@@@ObjectWrap@Nan@@SAPEAVResultSet@@V?$Local@VObject@v8@@@v8@@@Z 000000018005b798     njsConnection.obj
 0004:00000798       $pdata$??$Unwrap@VOracledb@@@ObjectWrap@Nan@@SAPEAVOracledb@@V?$Local@VObject@v8@@@v8@@@Z 000000018005b798     njsOracle.obj
 0004:00000798       $pdata$??$Unwrap@VPool@@@ObjectWrap@Nan@@SAPEAVPool@@V?$Local@VObject@v8@@@v8@@@Z 000000018005b798     njsOracle.obj
 0004:000007a4       $pdata$??$use_facet@V?$num_put@DV?$ostreambuf_iterator@DU?$char_traits@D@std@@@std@@@std@@@std@@YAAEBV?$num_put@DV?$ostreambuf_iterator@DU?$char_traits@D@std@@@std@@@0@AEBVlocale@0@@Z 000000018005b7a4     njsOracle.obj
 0004:000007b0       $pdata$??$use_facet@V?$numpunct@D@std@@@std@@YAAEBV?$numpunct@D@0@AEBVlocale@0@@Z 000000018005b7b0     njsOracle.obj
 0004:000007bc       $pdata$?_Getcat@?$num_put@DV?$ostreambuf_iterator@DU?$char_traits@D@std@@@std@@@std@@SA_KPEAPEBVfacet@locale@2@PEBV42@@Z 000000018005b7bc     njsOracle.obj
 0004:000007c8       $pdata$?_Getcat@?$numpunct@D@std@@SA_KPEAPEBVfacet@locale@2@PEBV42@@Z 000000018005b7c8     njsOracle.obj
 0004:000007d4       $pdata$?_Init@?$numpunct@D@std@@IEAAXAEBV_Locinfo@2@_N@Z 000000018005b7d4     njsOracle.obj
 0004:000007e0       $pdata$??0poolBaton@@QEAA@V?$Local@VFunction@v8@@@v8@@@Z 000000018005b7e0     njsPool.obj
 0004:000007ec       $pdata$??1poolBaton@@QEAA@XZ 000000018005b7ec     njsPool.obj
 0004:000007f8       $pdata$??_GResultSet@@UEAAPEAXI@Z 000000018005b7f8     njsResultSet.obj
 0004:000007f8       $pdata$??_GPool@@EEAAPEAXI@Z 000000018005b7f8     njsPool.obj
 0004:000007f8       $pdata$??_GConnection@@EEAAPEAXI@Z 000000018005b7f8     njsConnection.obj
 0004:00000804       $pdata$?Init@Pool@@SAXV?$Local@VObject@v8@@@v8@@@Z 000000018005b804     njsPool.obj
 0004:00000810       $pdata$?New@Pool@@CAXAEBV?$FunctionCallbackInfo@VValue@v8@@@Nan@@@Z 000000018005b810     njsPool.obj
 0004:0000081c       $pdata$?getPoolProperty@Pool@@CA?AV?$Local@VPrimitive@v8@@@v8@@PEAV1@I@Z 000000018005b81c     njsPool.obj
 0004:00000828       $pdata$?GetPoolMin@Pool@@CAXV?$Local@VString@v8@@@v8@@AEBV?$PropertyCallbackInfo@VValue@v8@@@Nan@@@Z 000000018005b828     njsPool.obj
 0004:00000834       $pdata$?GetPoolMax@Pool@@CAXV?$Local@VString@v8@@@v8@@AEBV?$PropertyCallbackInfo@VValue@v8@@@Nan@@@Z 000000018005b834     njsPool.obj
 0004:00000840       $pdata$?GetPoolIncrement@Pool@@CAXV?$Local@VString@v8@@@v8@@AEBV?$PropertyCallbackInfo@VValue@v8@@@Nan@@@Z 000000018005b840     njsPool.obj
 0004:0000084c       $pdata$?GetPoolTimeout@Pool@@CAXV?$Local@VString@v8@@@v8@@AEBV?$PropertyCallbackInfo@VValue@v8@@@Nan@@@Z 000000018005b84c     njsPool.obj
 0004:00000858       $pdata$?GetConnectionsOpen@Pool@@CAXV?$Local@VString@v8@@@v8@@AEBV?$PropertyCallbackInfo@VValue@v8@@@Nan@@@Z 000000018005b858     njsPool.obj
 0004:00000864       $pdata$?GetConnectionsInUse@Pool@@CAXV?$Local@VString@v8@@@v8@@AEBV?$PropertyCallbackInfo@VValue@v8@@@Nan@@@Z 000000018005b864     njsPool.obj
 0004:00000870       $pdata$?GetStmtCacheSize@Pool@@CAXV?$Local@VString@v8@@@v8@@AEBV?$PropertyCallbackInfo@VValue@v8@@@Nan@@@Z 000000018005b870     njsPool.obj
 0004:0000087c       $pdata$?setPoolProperty@Pool@@CAXPEAV1@V?$basic_string@DU?$char_traits@D@std@@V?$allocator@D@2@@std@@@Z 000000018005b87c     njsPool.obj
 0004:00000888       $pdata$?SetPoolMin@Pool@@CAXV?$Local@VString@v8@@@v8@@V?$Local@VValue@v8@@@3@AEBV?$PropertyCallbackInfo@X@Nan@@@Z 000000018005b888     njsPool.obj
 0004:00000894       $pdata$?SetPoolMax@Pool@@CAXV?$Local@VString@v8@@@v8@@V?$Local@VValue@v8@@@3@AEBV?$PropertyCallbackInfo@X@Nan@@@Z 000000018005b894     njsPool.obj
 0004:000008a0       $pdata$?SetPoolIncrement@Pool@@CAXV?$Local@VString@v8@@@v8@@V?$Local@VValue@v8@@@3@AEBV?$PropertyCallbackInfo@X@Nan@@@Z 000000018005b8a0     njsPool.obj
 0004:000008ac       $pdata$?SetPoolTimeout@Pool@@CAXV?$Local@VString@v8@@@v8@@V?$Local@VValue@v8@@@3@AEBV?$PropertyCallbackInfo@X@Nan@@@Z 000000018005b8ac     njsPool.obj
 0004:000008b8       $pdata$?SetConnectionsOpen@Pool@@CAXV?$Local@VString@v8@@@v8@@V?$Local@VValue@v8@@@3@AEBV?$PropertyCallbackInfo@X@Nan@@@Z 000000018005b8b8     njsPool.obj
 0004:000008c4       $pdata$?SetConnectionsInUse@Pool@@CAXV?$Local@VString@v8@@@v8@@V?$Local@VValue@v8@@@3@AEBV?$PropertyCallbackInfo@X@Nan@@@Z 000000018005b8c4     njsPool.obj
 0004:000008d0       $pdata$?SetStmtCacheSize@Pool@@CAXV?$Local@VString@v8@@@v8@@V?$Local@VValue@v8@@@3@AEBV?$PropertyCallbackInfo@X@Nan@@@Z 000000018005b8d0     njsPool.obj
 0004:000008dc       $pdata$?GetConnection@Pool@@CAXAEBV?$FunctionCallbackInfo@VValue@v8@@@Nan@@@Z 000000018005b8dc     njsPool.obj
 0004:000008e8       $pdata$?Async_GetConnection@Pool@@CAXPEAUuv_work_s@@@Z 000000018005b8e8     njsPool.obj
 0004:000008f4       $pdata$?Async_AfterGetConnection@Pool@@CAXPEAUuv_work_s@@@Z 000000018005b8f4     njsPool.obj
 0004:00000900       $pdata$?Terminate@Pool@@CAXAEBV?$FunctionCallbackInfo@VValue@v8@@@Nan@@@Z 000000018005b900     njsPool.obj
 0004:0000090c       $pdata$?Async_Terminate@Pool@@CAXPEAUuv_work_s@@@Z 000000018005b90c     njsPool.obj
 0004:00000918       $pdata$?Async_AfterTerminate@Pool@@CAXPEAUuv_work_s@@@Z 000000018005b918     njsPool.obj
 0004:00000924       $pdata$??0fetchInfo@@QEAA@XZ 000000018005b924     njsConnection.obj
 0004:00000930       $pdata$??0eBaton@@QEAA@AEAIV?$Local@VFunction@v8@@@v8@@@Z 000000018005b930     njsConnection.obj
 0004:0000093c       $pdata$??1eBaton@@QEAA@XZ  000000018005b93c     njsConnection.obj
 0004:00000948       $pdata$?GetValueType@Connection@@CA?AW4ValueType@@V?$Local@VValue@v8@@@v8@@@Z 000000018005b948     njsConnection.obj
 0004:00000954       $pdata$?Init@Connection@@SAXV?$Local@VObject@v8@@@v8@@@Z 000000018005b954     njsConnection.obj
 0004:00000960       $pdata$?New@Connection@@CAXAEBV?$FunctionCallbackInfo@VValue@v8@@@Nan@@@Z 000000018005b960     njsConnection.obj
 0004:0000096c       $pdata$?connectionPropertyException@Connection@@CAXPEAV1@W4NJSErrorType@@V?$basic_string@DU?$char_traits@D@std@@V?$allocator@D@2@@std@@@Z 000000018005b96c     njsConnection.obj
 0004:00000978       $pdata$?GetStmtCacheSize@Connection@@CAXV?$Local@VString@v8@@@v8@@AEBV?$PropertyCallbackInfo@VValue@v8@@@Nan@@@Z 000000018005b978     njsConnection.obj
 0004:00000984       $pdata$?SetStmtCacheSize@Connection@@CAXV?$Local@VString@v8@@@v8@@V?$Local@VValue@v8@@@3@AEBV?$PropertyCallbackInfo@X@Nan@@@Z 000000018005b984     njsConnection.obj
 0004:00000990       $pdata$?SetClientId@Connection@@CAXV?$Local@VString@v8@@@v8@@V?$Local@VValue@v8@@@3@AEBV?$PropertyCallbackInfo@X@Nan@@@Z 000000018005b990     njsConnection.obj
 0004:0000099c       $pdata$?SetModule@Connection@@CAXV?$Local@VString@v8@@@v8@@V?$Local@VValue@v8@@@3@AEBV?$PropertyCallbackInfo@X@Nan@@@Z 000000018005b99c     njsConnection.obj
 0004:000009a8       $pdata$?SetAction@Connection@@CAXV?$Local@VString@v8@@@v8@@V?$Local@VValue@v8@@@3@AEBV?$PropertyCallbackInfo@X@Nan@@@Z 000000018005b9a8     njsConnection.obj
 0004:000009b4       $pdata$?GetOracleServerVersion@Connection@@CAXV?$Local@VString@v8@@@v8@@AEBV?$PropertyCallbackInfo@VValue@v8@@@Nan@@@Z 000000018005b9b4     njsConnection.obj
 0004:000009c0       $pdata$?SetOracleServerVersion@Connection@@CAXV?$Local@VString@v8@@@v8@@V?$Local@VValue@v8@@@3@AEBV?$PropertyCallbackInfo@X@Nan@@@Z 000000018005b9c0     njsConnection.obj
 0004:000009cc       $pdata$?Execute@Connection@@CAXAEBV?$FunctionCallbackInfo@VValue@v8@@@Nan@@@Z 000000018005b9cc     njsConnection.obj
 0004:000009d8       $pdata$?ProcessBinds@Connection@@CAXAEBV?$FunctionCallbackInfo@VValue@v8@@@Nan@@IPEAUeBaton@@@Z 000000018005b9d8     njsConnection.obj
 0004:000009e4       $pdata$?ProcessOptions@Connection@@CAXAEBV?$FunctionCallbackInfo@VValue@v8@@@Nan@@IPEAUeBaton@@@Z 000000018005b9e4     njsConnection.obj
 0004:000009f0       $pdata$?GetBinds@Connection@@CAXV?$Local@VObject@v8@@@v8@@PEAUeBaton@@@Z 000000018005b9f0     njsConnection.obj
 0004:000009fc       $pdata$?GetBinds@Connection@@CAXV?$Local@VArray@v8@@@v8@@PEAUeBaton@@@Z 000000018005b9fc     njsConnection.obj
 0004:00000a08       $pdata$?GetBindUnit@Connection@@CAXV?$Local@VValue@v8@@@v8@@PEAUBind@@PEAUeBaton@@@Z 000000018005ba08     njsConnection.obj
 0004:00000a14       $pdata$?GetOutBindParams@Connection@@CAXGPEAUBind@@PEAUeBaton@@@Z 000000018005ba14     njsConnection.obj
 0004:00000a20       $pdata$?GetInBindParams@Connection@@CAXV?$Local@VValue@v8@@@v8@@PEAUBind@@PEAUeBaton@@W4BindType@@@Z 000000018005ba20     njsConnection.obj
 0004:00000a2c       $pdata$?GetInBindParamsScalar@Connection@@CAXV?$Local@VValue@v8@@@v8@@PEAUBind@@PEAUeBaton@@W4BindType@@@Z 000000018005ba2c     njsConnection.obj
 0004:00000a38       $pdata$?GetInBindParamsArray@Connection@@CAXV?$Local@VArray@v8@@@v8@@PEAUBind@@PEAUeBaton@@W4BindType@@@Z 000000018005ba38     njsConnection.obj
 0004:00000a44       $pdata$?AllocateBindArray@Connection@@CA_NGPEAUBind@@PEAUeBaton@@PEA_K@Z 000000018005ba44     njsConnection.obj
 0004:00000a50       $pdata$?Async_Execute@Connection@@CAXPEAUuv_work_s@@@Z 000000018005ba50     njsConnection.obj
 0004:00000a5c       $pdata$?PrepareAndBind@Connection@@CAXPEAUeBaton@@@Z 000000018005ba5c     njsConnection.obj
 0004:00000a68       $pdata$4$?PrepareAndBind@Connection@@CAXPEAUeBaton@@@Z 000000018005ba68     njsConnection.obj
 0004:00000a74       $pdata$5$?PrepareAndBind@Connection@@CAXPEAUeBaton@@@Z 000000018005ba74     njsConnection.obj
 0004:00000a80       $pdata$?CopyMetaData@Connection@@SAXPEAV?$basic_string@DU?$char_traits@D@std@@V?$allocator@D@2@@std@@PEBUMetaData@dpi@@I@Z 000000018005ba80     njsConnection.obj
 0004:00000a8c       $pdata$1$?CopyMetaData@Connection@@SAXPEAV?$basic_string@DU?$char_traits@D@std@@V?$allocator@D@2@@std@@PEBUMetaData@dpi@@I@Z 000000018005ba8c     njsConnection.obj
 0004:00000a98       $pdata$2$?CopyMetaData@Connection@@SAXPEAV?$basic_string@DU?$char_traits@D@std@@V?$allocator@D@2@@std@@PEBUMetaData@dpi@@I@Z 000000018005ba98     njsConnection.obj
 0004:00000aa4       $pdata$?MapByName@Connection@@CAHPEAUeBaton@@AEAV?$basic_string@DU?$char_traits@D@std@@V?$allocator@D@2@@std@@AEAG@Z 000000018005baa4     njsConnection.obj
 0004:00000ab0       $pdata$2$?MapByName@Connection@@CAHPEAUeBaton@@AEAV?$basic_string@DU?$char_traits@D@std@@V?$allocator@D@2@@std@@AEAG@Z 000000018005bab0     njsConnection.obj
 0004:00000abc       $pdata$3$?MapByName@Connection@@CAHPEAUeBaton@@AEAV?$basic_string@DU?$char_traits@D@std@@V?$allocator@D@2@@std@@AEAG@Z 000000018005babc     njsConnection.obj
 0004:00000ac8       $pdata$?GetTargetType@Connection@@CAGPEAUeBaton@@AEAV?$basic_string@DU?$char_traits@D@std@@V?$allocator@D@2@@std@@G@Z 000000018005bac8     njsConnection.obj
 0004:00000ad4       $pdata$?DoDefines@Connection@@SAXPEAUeBaton@@PEBUMetaData@dpi@@I@Z 000000018005bad4     njsConnection.obj
 0004:00000ae0       $pdata$0$?DoDefines@Connection@@SAXPEAUeBaton@@PEBUMetaData@dpi@@I@Z 000000018005bae0     njsConnection.obj
 0004:00000aec       $pdata$1$?DoDefines@Connection@@SAXPEAUeBaton@@PEBUMetaData@dpi@@I@Z 000000018005baec     njsConnection.obj
 0004:00000af8       $pdata$2$?DoDefines@Connection@@SAXPEAUeBaton@@PEBUMetaData@dpi@@I@Z 000000018005baf8     njsConnection.obj
 0004:00000b04       $pdata$?DoFetch@Connection@@SAXPEAUeBaton@@@Z 000000018005bb04     njsConnection.obj
 0004:00000b10       $pdata$?Descr2Double@Connection@@CAXPEAUDefine@@II_N@Z 000000018005bb10     njsConnection.obj
 0004:00000b1c       $pdata$5$?Descr2Double@Connection@@CAXPEAUDefine@@II_N@Z 000000018005bb1c     njsConnection.obj
 0004:00000b28       $pdata$6$?Descr2Double@Connection@@CAXPEAUDefine@@II_N@Z 000000018005bb28     njsConnection.obj
 0004:00000b34       $pdata$?Descr2protoILob@Connection@@CAXPEAUeBaton@@II@Z 000000018005bb34     njsConnection.obj
 0004:00000b40       $pdata$?Async_AfterExecute@Connection@@CAXPEAUuv_work_s@@@Z 000000018005bb40     njsConnection.obj
 0004:00000b4c       $pdata$?GetMetaData@Connection@@SA?AV?$Local@VValue@v8@@@v8@@PEAV?$basic_string@DU?$char_traits@D@std@@V?$allocator@D@2@@std@@I@Z 000000018005bb4c     njsConnection.obj
 0004:00000b58       $pdata$?GetRows@Connection@@SA?AV?$Local@VValue@v8@@@v8@@PEAUeBaton@@@Z 000000018005bb58     njsConnection.obj
 0004:00000b64       $pdata$?GetValue@Connection@@CA?AV?$Local@VValue@v8@@@v8@@PEAUeBaton@@_NII@Z 000000018005bb64     njsConnection.obj
 0004:00000b70       $pdata$?GetValueRefCursor@Connection@@CA?AV?$Local@VValue@v8@@@v8@@PEAUeBaton@@PEAUBind@@@Z 000000018005bb70     njsConnection.obj
 0004:00000b7c       $pdata$?GetValueLob@Connection@@CA?AV?$Local@VValue@v8@@@v8@@PEAUeBaton@@PEAUBind@@@Z 000000018005bb7c     njsConnection.obj
 0004:00000b88       $pdata$?GetValueCommon@Connection@@CA?AV?$Local@VValue@v8@@@v8@@PEAUeBaton@@FGPEAXG@Z 000000018005bb88     njsConnection.obj
 0004:00000b94       $pdata$?GetArrayValue@Connection@@CA?AV?$Local@VValue@v8@@@v8@@PEAUeBaton@@PEAUBind@@K@Z 000000018005bb94     njsConnection.obj
 0004:00000ba0       $pdata$?GetOutBinds@Connection@@CA?AV?$Local@VValue@v8@@@v8@@PEAUeBaton@@@Z 000000018005bba0     njsConnection.obj
 0004:00000bac       $pdata$?GetOutBindArray@Connection@@CA?AV?$Local@VValue@v8@@@v8@@PEAUeBaton@@@Z 000000018005bbac     njsConnection.obj
 0004:00000bb8       $pdata$?GetOutBindObject@Connection@@CA?AV?$Local@VValue@v8@@@v8@@PEAUeBaton@@@Z 000000018005bbb8     njsConnection.obj
 0004:00000bc4       $pdata$?Release@Connection@@CAXAEBV?$FunctionCallbackInfo@VValue@v8@@@Nan@@@Z 000000018005bbc4     njsConnection.obj
 0004:00000bd0       $pdata$?Async_Release@Connection@@CAXPEAUuv_work_s@@@Z 000000018005bbd0     njsConnection.obj
 0004:00000bdc       $pdata$?Async_AfterRollback@Connection@@CAXPEAUuv_work_s@@@Z 000000018005bbdc     njsConnection.obj
 0004:00000bdc       $pdata$?Async_AfterBreak@Connection@@CAXPEAUuv_work_s@@@Z 000000018005bbdc     njsConnection.obj
 0004:00000bdc       $pdata$?Async_AfterCommit@Connection@@CAXPEAUuv_work_s@@@Z 000000018005bbdc     njsConnection.obj
 0004:00000bdc       $pdata$?Async_AfterRelease@Connection@@CAXPEAUuv_work_s@@@Z 000000018005bbdc     njsConnection.obj
 0004:00000be8       $pdata$?Commit@Connection@@CAXAEBV?$FunctionCallbackInfo@VValue@v8@@@Nan@@@Z 000000018005bbe8     njsConnection.obj
 0004:00000bf4       $pdata$?Async_Commit@Connection@@CAXPEAUuv_work_s@@@Z 000000018005bbf4     njsConnection.obj
 0004:00000c00       $pdata$?Rollback@Connection@@CAXAEBV?$FunctionCallbackInfo@VValue@v8@@@Nan@@@Z 000000018005bc00     njsConnection.obj
 0004:00000c0c       $pdata$?Async_Rollback@Connection@@CAXPEAUuv_work_s@@@Z 000000018005bc0c     njsConnection.obj
 0004:00000c18       $pdata$?Break@Connection@@CAXAEBV?$FunctionCallbackInfo@VValue@v8@@@Nan@@@Z 000000018005bc18     njsConnection.obj
 0004:00000c24       $pdata$?Async_Break@Connection@@CAXPEAUuv_work_s@@@Z 000000018005bc24     njsConnection.obj
 0004:00000c30       $pdata$?cbDynBufferAllocate@Connection@@CAXPEAX_NII@Z 000000018005bc30     njsConnection.obj
 0004:00000c3c       $pdata$?cbDynBufferGet@Connection@@CAHPEAXHIKKPEAPEAX11PEAPEAGPEAE@Z 000000018005bc3c     njsConnection.obj
 0004:00000c48       $pdata$?NewLob@Connection@@CA?AV?$Local@VValue@v8@@@v8@@PEAUeBaton@@PEAVProtoILob@@@Z 000000018005bc48     njsConnection.obj
 0004:00000c54       $pdata$?compare@?$basic_string@DU?$char_traits@D@std@@V?$allocator@D@2@@std@@QEBAHAEBV12@@Z 000000018005bc54     njsConnection.obj
 0004:00000c60       $pdata$??0?$vector@PEAUBind@@V?$allocator@PEAUBind@@@std@@@std@@QEAA@AEBV01@@Z 000000018005bc60     njsConnection.obj
 0004:00000c6c       $pdata$??1?$vector@PEAUBind@@V?$allocator@PEAUBind@@@std@@@std@@QEAA@XZ 000000018005bc6c     njsConnection.obj
 0004:00000c78       $pdata$?push_back@?$vector@PEAUBind@@V?$allocator@PEAUBind@@@std@@@std@@QEAAXAEBQEAUBind@@@Z 000000018005bc78     njsConnection.obj
 0004:00000c84       $pdata$?_Reserve@?$vector@PEAUBind@@V?$allocator@PEAUBind@@@std@@@std@@IEAAX_K@Z 000000018005bc84     njsConnection.obj
 0004:00000c90       $pdata$?_Reallocate@?$vector@PEAUBind@@V?$allocator@PEAUBind@@@std@@@std@@IEAAX_K@Z 000000018005bc90     njsConnection.obj
 0004:00000c9c       $pdata$0$?_Reallocate@?$vector@PEAUBind@@V?$allocator@PEAUBind@@@std@@@std@@IEAAX_K@Z 000000018005bc9c     njsConnection.obj
 0004:00000ca8       $pdata$1$?_Reallocate@?$vector@PEAUBind@@V?$allocator@PEAUBind@@@std@@@std@@IEAAX_K@Z 000000018005bca8     njsConnection.obj
 0004:00000cb4       $pdata$??$New@VString@v8@@V?$basic_string@DU?$char_traits@D@std@@V?$allocator@D@2@@std@@@Nan@@YA?AV?$MaybeLocal@VString@v8@@@v8@@V?$basic_string@DU?$char_traits@D@std@@V?$allocator@D@2@@std@@@Z 000000018005bcb4     njsConnection.obj
 0004:00000cc0       $pdata$??$?HDU?$char_traits@D@std@@V?$allocator@D@1@@std@@YA?AV?$basic_string@DU?$char_traits@D@std@@V?$allocator@D@2@@0@PEBD$$QEAV10@@Z 000000018005bcc0     njsConnection.obj
 0004:00000ccc       $pdata$?insert@?$basic_string@DU?$char_traits@D@std@@V?$allocator@D@2@@std@@QEAAAEAV12@_KPEBD0@Z 000000018005bccc     njsConnection.obj
 0004:00000cd8       $pdata$0$?insert@?$basic_string@DU?$char_traits@D@std@@V?$allocator@D@2@@std@@QEAAAEAV12@_KPEBD0@Z 000000018005bcd8     njsConnection.obj
 0004:00000ce4       $pdata$1$?insert@?$basic_string@DU?$char_traits@D@std@@V?$allocator@D@2@@std@@QEAAAEAV12@_KPEBD0@Z 000000018005bce4     njsConnection.obj
 0004:00000cf0       $pdata$?insert@?$basic_string@DU?$char_traits@D@std@@V?$allocator@D@2@@std@@QEAAAEAV12@_KAEBV12@00@Z 000000018005bcf0     njsConnection.obj
 0004:00000cfc       $pdata$0$?insert@?$basic_string@DU?$char_traits@D@std@@V?$allocator@D@2@@std@@QEAAAEAV12@_KAEBV12@00@Z 000000018005bcfc     njsConnection.obj
 0004:00000d08       $pdata$1$?insert@?$basic_string@DU?$char_traits@D@std@@V?$allocator@D@2@@std@@QEAAAEAV12@_KAEBV12@00@Z 000000018005bd08     njsConnection.obj
 0004:00000d14       $pdata$2$?insert@?$basic_string@DU?$char_traits@D@std@@V?$allocator@D@2@@std@@QEAAAEAV12@_KAEBV12@00@Z 000000018005bd14     njsConnection.obj
 0004:00000d20       $pdata$4$?insert@?$basic_string@DU?$char_traits@D@std@@V?$allocator@D@2@@std@@QEAAAEAV12@_KAEBV12@00@Z 000000018005bd20     njsConnection.obj
 0004:00000d2c       $pdata$5$?insert@?$basic_string@DU?$char_traits@D@std@@V?$allocator@D@2@@std@@QEAAAEAV12@_KAEBV12@00@Z 000000018005bd2c     njsConnection.obj
 0004:00000d38       $pdata$??0rsBaton@@QEAA@AEAIV?$Local@VFunction@v8@@@v8@@@Z 000000018005bd38     njsResultSet.obj
 0004:00000d44       $pdata$??1rsBaton@@QEAA@XZ 000000018005bd44     njsResultSet.obj
 0004:00000d50       $pdata$?setResultSet@ResultSet@@QEAAXPEAVStmt@dpi@@PEAUeBaton@@@Z 000000018005bd50     njsResultSet.obj
 0004:00000d5c       $pdata$?Init@ResultSet@@SAXV?$Local@VObject@v8@@@v8@@@Z 000000018005bd5c     njsResultSet.obj
 0004:00000d68       $pdata$?New@ResultSet@@CAXAEBV?$FunctionCallbackInfo@VValue@v8@@@Nan@@@Z 000000018005bd68     njsResultSet.obj
 0004:00000d74       $pdata$?GetMetaData@ResultSet@@CAXV?$Local@VString@v8@@@v8@@AEBV?$PropertyCallbackInfo@VValue@v8@@@Nan@@@Z 000000018005bd74     njsResultSet.obj
 0004:00000d80       $pdata$?SetMetaData@ResultSet@@CAXV?$Local@VString@v8@@@v8@@V?$Local@VValue@v8@@@3@AEBV?$PropertyCallbackInfo@X@Nan@@@Z 000000018005bd80     njsResultSet.obj
 0004:00000d8c       $pdata$?GetRow@ResultSet@@CAXAEBV?$FunctionCallbackInfo@VValue@v8@@@Nan@@@Z 000000018005bd8c     njsResultSet.obj
 0004:00000d98       $pdata$?GetRows@ResultSet@@CAXAEBV?$FunctionCallbackInfo@VValue@v8@@@Nan@@@Z 000000018005bd98     njsResultSet.obj
 0004:00000da4       $pdata$?GetRowsCommon@ResultSet@@CAXPEAUrsBaton@@@Z 000000018005bda4     njsResultSet.obj
 0004:00000db0       $pdata$?Async_GetRows@ResultSet@@CAXPEAUuv_work_s@@@Z 000000018005bdb0     njsResultSet.obj
 0004:00000dbc       $pdata$?Async_AfterGetRows@ResultSet@@CAXPEAUuv_work_s@@@Z 000000018005bdbc     njsResultSet.obj
 0004:00000dc8       $pdata$?Close@ResultSet@@CAXAEBV?$FunctionCallbackInfo@VValue@v8@@@Nan@@@Z 000000018005bdc8     njsResultSet.obj
 0004:00000dd4       $pdata$?Async_Close@ResultSet@@CAXPEAUuv_work_s@@@Z 000000018005bdd4     njsResultSet.obj
 0004:00000de0       $pdata$?Async_AfterClose@ResultSet@@CAXPEAUuv_work_s@@@Z 000000018005bde0     njsResultSet.obj
 0004:00000dec       $pdata$?clearFetchBuffer@ResultSet@@CAXPEAUDefine@@I@Z 000000018005bdec     njsResultSet.obj
 0004:00000df8       $pdata$2$?clearFetchBuffer@ResultSet@@CAXPEAUDefine@@I@Z 000000018005bdf8     njsResultSet.obj
 0004:00000e04       $pdata$3$?clearFetchBuffer@ResultSet@@CAXPEAUDefine@@I@Z 000000018005be04     njsResultSet.obj
 0004:00000e10       $pdata$?getErrorMsg@NJSMessages@@SA?AV?$basic_string@DU?$char_traits@D@std@@V?$allocator@D@2@@std@@W4NJSErrorType@@ZZ 000000018005be10     njsMessages.obj
 0004:00000e1c       $pdata$??0LobBaton@@QEAA@AEAIV?$Local@VFunction@v8@@@v8@@@Z 000000018005be1c     njsIntLob.obj
 0004:00000e28       $pdata$??1LobBaton@@QEAA@XZ 000000018005be28     njsIntLob.obj
 0004:00000e34       $pdata$??_GILob@@EEAAPEAXI@Z 000000018005be34     njsIntLob.obj
 0004:00000e40       $pdata$?cleanup@ILob@@AEAAXXZ 000000018005be40     njsIntLob.obj
 0004:00000e4c       $pdata$?setILob@ILob@@QEAAXPEAUeBaton@@PEAVProtoILob@@@Z 000000018005be4c     njsIntLob.obj
 0004:00000e58       $pdata$?Init@ILob@@SAXV?$Local@VObject@v8@@@v8@@@Z 000000018005be58     njsIntLob.obj
 0004:00000e64       $pdata$?New@ILob@@CAXAEBV?$FunctionCallbackInfo@VValue@v8@@@Nan@@@Z 000000018005be64     njsIntLob.obj
 0004:00000e70       $pdata$?Release@ILob@@CAXAEBV?$FunctionCallbackInfo@VValue@v8@@@Nan@@@Z 000000018005be70     njsIntLob.obj
 0004:00000e7c       $pdata$?lobPropertyException@ILob@@CAXPEAV1@W4NJSErrorType@@V?$basic_string@DU?$char_traits@D@std@@V?$allocator@D@2@@std@@@Z 000000018005be7c     njsIntLob.obj
 0004:00000e88       $pdata$?GetChunkSize@ILob@@CAXV?$Local@VString@v8@@@v8@@AEBV?$PropertyCallbackInfo@VValue@v8@@@Nan@@@Z 000000018005be88     njsIntLob.obj
 0004:00000e94       $pdata$?SetChunkSize@ILob@@CAXV?$Local@VString@v8@@@v8@@V?$Local@VValue@v8@@@3@AEBV?$PropertyCallbackInfo@X@Nan@@@Z 000000018005be94     njsIntLob.obj
 0004:00000ea0       $pdata$?GetLength@ILob@@CAXV?$Local@VString@v8@@@v8@@AEBV?$PropertyCallbackInfo@VValue@v8@@@Nan@@@Z 000000018005bea0     njsIntLob.obj
 0004:00000eac       $pdata$?SetLength@ILob@@CAXV?$Local@VString@v8@@@v8@@V?$Local@VValue@v8@@@3@AEBV?$PropertyCallbackInfo@X@Nan@@@Z 000000018005beac     njsIntLob.obj
 0004:00000eb8       $pdata$?GetPieceSize@ILob@@CAXV?$Local@VString@v8@@@v8@@AEBV?$PropertyCallbackInfo@VValue@v8@@@Nan@@@Z 000000018005beb8     njsIntLob.obj
 0004:00000ec4       $pdata$?SetPieceSize@ILob@@CAXV?$Local@VString@v8@@@v8@@V?$Local@VValue@v8@@@3@AEBV?$PropertyCallbackInfo@X@Nan@@@Z 000000018005bec4     njsIntLob.obj
 0004:00000ed0       $pdata$?GetOffset@ILob@@CAXV?$Local@VString@v8@@@v8@@AEBV?$PropertyCallbackInfo@VValue@v8@@@Nan@@@Z 000000018005bed0     njsIntLob.obj
 0004:00000edc       $pdata$?SetOffset@ILob@@CAXV?$Local@VString@v8@@@v8@@V?$Local@VValue@v8@@@3@AEBV?$PropertyCallbackInfo@X@Nan@@@Z 000000018005bedc     njsIntLob.obj
 0004:00000ee8       $pdata$?GetType@ILob@@CAXV?$Local@VString@v8@@@v8@@AEBV?$PropertyCallbackInfo@VValue@v8@@@Nan@@@Z 000000018005bee8     njsIntLob.obj
 0004:00000ef4       $pdata$?SetType@ILob@@CAXV?$Local@VString@v8@@@v8@@V?$Local@VValue@v8@@@3@AEBV?$PropertyCallbackInfo@X@Nan@@@Z 000000018005bef4     njsIntLob.obj
 0004:00000f00       $pdata$?Read@ILob@@CAXAEBV?$FunctionCallbackInfo@VValue@v8@@@Nan@@@Z 000000018005bf00     njsIntLob.obj
 0004:00000f0c       $pdata$?Async_Read@ILob@@CAXPEAUuv_work_s@@@Z 000000018005bf0c     njsIntLob.obj
 0004:00000f18       $pdata$?Async_AfterRead@ILob@@CAXPEAUuv_work_s@@@Z 000000018005bf18     njsIntLob.obj
 0004:00000f24       $pdata$?Write@ILob@@CAXAEBV?$FunctionCallbackInfo@VValue@v8@@@Nan@@@Z 000000018005bf24     njsIntLob.obj
 0004:00000f30       $pdata$?Async_Write@ILob@@CAXPEAUuv_work_s@@@Z 000000018005bf30     njsIntLob.obj
 0004:00000f3c       $pdata$?Async_AfterWrite@ILob@@CAXPEAUuv_work_s@@@Z 000000018005bf3c     njsIntLob.obj
 0004:00000f48       $pdata$??0ProtoILob@@QEAA@PEAUeBaton@@PEAUDescriptor@dpi@@G@Z 000000018005bf48     njsIntLob.obj
 0004:00000f54       $pdata$?cleanup@ProtoILob@@AEAAXXZ 000000018005bf54     njsIntLob.obj
 0004:00000f60       $pdata$??_GEnv@dpi@@MEAAPEAXI@Z 000000018005bf60     dpiEnv.obj
 0004:00000f6c       $pdata$??0EnvImpl@@QEAA@AEBV?$basic_string@DU?$char_traits@D@std@@V?$allocator@D@2@@std@@@Z 000000018005bf6c     dpiEnvImpl.obj
 0004:00000f78       $pdata$??_GEnvImpl@@UEAAPEAXI@Z 000000018005bf78     dpiEnvImpl.obj
 0004:00000f84       $pdata$??0ExceptionImpl@@QEAA@AEBV0@@Z 000000018005bf84     dpiEnvImpl.obj
 0004:00000f90       $pdata$??_GExceptionImpl@@UEAAPEAXI@Z 000000018005bf90     dpiEnvImpl.obj
 0004:00000f9c       $pdata$?terminate@EnvImpl@@UEAAXXZ 000000018005bf9c     dpiEnvImpl.obj
 0004:00000fa8       $pdata$?createPool@EnvImpl@@UEAAPEAVSPool@dpi@@AEBV?$basic_string@DU?$char_traits@D@std@@V?$allocator@D@2@@std@@00HHHHH_N@Z 000000018005bfa8     dpiEnvImpl.obj
 0004:00000fb4       $pdata$?getConnection@EnvImpl@@UEAAPEAVConn@dpi@@AEBV?$basic_string@DU?$char_traits@D@std@@V?$allocator@D@2@@std@@00H0_N@Z 000000018005bfb4     dpiEnvImpl.obj
 0004:00000fc0       $pdata$?getDateTimeArray@EnvImpl@@UEBAPEAVDateTimeArray@dpi@@PEAUOCIError@@@Z 000000018005bfc0     dpiEnvImpl.obj
 0004:00000fcc       $pdata$?allocHandle@EnvImpl@@UEAAPEAUDpiHandle@dpi@@W4HandleType@3@@Z 000000018005bfcc     dpiEnvImpl.obj
 0004:00000fd8       $pdata$?allocDescriptor@EnvImpl@@UEAAPEAUDescriptor@dpi@@W4DescriptorType@3@@Z 000000018005bfd8     dpiEnvImpl.obj
 0004:00000fe4       $pdata$?allocDescriptorArray@EnvImpl@@UEAAXW4DescriptorType@dpi@@IQEAPEAUDescriptor@3@@Z 000000018005bfe4     dpiEnvImpl.obj
 0004:00000ff0       $pdata$??0ExceptionImpl@@QEAA@W4DpiError@dpi@@@Z 000000018005bff0     dpiExceptionImpl.obj
 0004:00000ffc       $pdata$??1ExceptionImpl@@UEAA@XZ 000000018005bffc     dpiExceptionImpl.obj
 0004:00001008       $pdata$??$?6DU?$char_traits@D@std@@V?$allocator@D@1@@std@@YAAEAV?$basic_ostream@DU?$char_traits@D@std@@@0@AEAV10@AEBV?$basic_string@DU?$char_traits@D@std@@V?$allocator@D@2@@0@@Z 000000018005c008     dpiExceptionImpl.obj
 0004:00001014       $pdata$??_GConn@dpi@@MEAAPEAXI@Z 000000018005c014     dpiConnImpl.obj
 0004:00001020       $pdata$??0ConnImpl@@QEAA@PEAVEnvImpl@@PEAUOCIEnv@@_NIAEBV?$basic_string@DU?$char_traits@D@std@@V?$allocator@D@2@@std@@333@Z 000000018005c020     dpiConnImpl.obj
 0004:0000102c       $pdata$??0ConnImpl@@QEAA@PEAVPoolImpl@@PEAUOCIEnv@@_NPEAEIAEBV?$basic_string@DU?$char_traits@D@std@@V?$allocator@D@2@@std@@@Z 000000018005c02c     dpiConnImpl.obj
 0004:00001038       $pdata$??_GConnImpl@@UEAAPEAXI@Z 000000018005c038     dpiConnImpl.obj
 0004:00001044       $pdata$?release@ConnImpl@@UEAAXXZ 000000018005c044     dpiConnImpl.obj
 0004:00001050       $pdata$?stmtCacheSize@ConnImpl@@UEAAXI@Z 000000018005c050     dpiConnImpl.obj
 0004:0000105c       $pdata$?stmtCacheSize@ConnImpl@@UEBAIXZ 000000018005c05c     dpiConnImpl.obj
 0004:00001068       $pdata$?lobPrefetchSize@ConnImpl@@UEBAIXZ 000000018005c068     dpiConnImpl.obj
 0004:00001074       $pdata$?clientId@ConnImpl@@UEAAXAEBV?$basic_string@DU?$char_traits@D@std@@V?$allocator@D@2@@std@@@Z 000000018005c074     dpiConnImpl.obj
 0004:00001080       $pdata$?module@ConnImpl@@UEAAXAEBV?$basic_string@DU?$char_traits@D@std@@V?$allocator@D@2@@std@@@Z 000000018005c080     dpiConnImpl.obj
 0004:0000108c       $pdata$?action@ConnImpl@@UEAAXAEBV?$basic_string@DU?$char_traits@D@std@@V?$allocator@D@2@@std@@@Z 000000018005c08c     dpiConnImpl.obj
 0004:00001098       $pdata$?getStmt@ConnImpl@@UEAAPEAVStmt@dpi@@AEBV?$basic_string@DU?$char_traits@D@std@@V?$allocator@D@2@@std@@@Z 000000018005c098     dpiConnImpl.obj
 0004:000010a4       $pdata$?commit@ConnImpl@@UEAAXXZ 000000018005c0a4     dpiConnImpl.obj
 0004:000010b0       $pdata$?rollback@ConnImpl@@UEAAXXZ 000000018005c0b0     dpiConnImpl.obj
 0004:000010bc       $pdata$?breakExecution@ConnImpl@@UEAAXXZ 000000018005c0bc     dpiConnImpl.obj
 0004:000010c8       $pdata$0$?breakExecution@ConnImpl@@UEAAXXZ 000000018005c0c8     dpiConnImpl.obj
 0004:000010d4       $pdata$1$?breakExecution@ConnImpl@@UEAAXXZ 000000018005c0d4     dpiConnImpl.obj
 0004:000010e0       $pdata$2$?breakExecution@ConnImpl@@UEAAXXZ 000000018005c0e0     dpiConnImpl.obj
 0004:000010ec       $pdata$?getServerVersion@ConnImpl@@UEAAIXZ 000000018005c0ec     dpiConnImpl.obj
 0004:000010f8       $pdata$?initConnImpl@ConnImpl@@AEAAX_N0AEBV?$basic_string@DU?$char_traits@D@std@@V?$allocator@D@2@@std@@PEAEI11@Z 000000018005c0f8     dpiConnImpl.obj
 0004:00001104       $pdata$0$?initConnImpl@ConnImpl@@AEAAX_N0AEBV?$basic_string@DU?$char_traits@D@std@@V?$allocator@D@2@@std@@PEAEI11@Z 000000018005c104     dpiConnImpl.obj
 0004:00001110       $pdata$1$?initConnImpl@ConnImpl@@AEAAX_N0AEBV?$basic_string@DU?$char_traits@D@std@@V?$allocator@D@2@@std@@PEAEI11@Z 000000018005c110     dpiConnImpl.obj
 0004:0000111c       $pdata$?cleanup@ConnImpl@@AEAAXXZ 000000018005c11c     dpiConnImpl.obj
 0004:00001128       $pdata$0$?cleanup@ConnImpl@@AEAAXXZ 000000018005c128     dpiConnImpl.obj
 0004:00001134       $pdata$1$?cleanup@ConnImpl@@AEAAXXZ 000000018005c134     dpiConnImpl.obj
 0004:00001140       $pdata$2$?cleanup@ConnImpl@@AEAAXXZ 000000018005c140     dpiConnImpl.obj
 0004:0000114c       $pdata$3$?cleanup@ConnImpl@@AEAAXXZ 000000018005c14c     dpiConnImpl.obj
 0004:00001158       $pdata$??_GDateTimeArray@dpi@@UEAAPEAXI@Z 000000018005c158     dpiDateTimeArrayImpl.obj
 0004:00001158       $pdata$??_GSPool@dpi@@MEAAPEAXI@Z 000000018005c158     dpiPoolImpl.obj
 0004:00001164       $pdata$??_GDateTimeArrayImpl@dpi@@UEAAPEAXI@Z 000000018005c164     dpiDateTimeArrayImpl.obj
 0004:00001170       $pdata$?init@DateTimeArrayImpl@dpi@@UEAAPEAXH@Z 000000018005c170     dpiDateTimeArrayImpl.obj
 0004:0000117c       $pdata$?release@DateTimeArrayImpl@dpi@@UEAAXXZ 000000018005c17c     dpiDateTimeArrayImpl.obj
 0004:00001188       $pdata$?getDateTime@DateTimeArrayImpl@dpi@@UEAAOH@Z 000000018005c188     dpiDateTimeArrayImpl.obj
 0004:00001194       $pdata$?setDateTime@DateTimeArrayImpl@dpi@@UEAAXHO@Z 000000018005c194     dpiDateTimeArrayImpl.obj
 0004:000011a0       $pdata$3$?setDateTime@DateTimeArrayImpl@dpi@@UEAAXHO@Z 000000018005c1a0     dpiDateTimeArrayImpl.obj
 0004:000011ac       $pdata$4$?setDateTime@DateTimeArrayImpl@dpi@@UEAAXHO@Z 000000018005c1ac     dpiDateTimeArrayImpl.obj
 0004:000011b8       $pdata$5$?setDateTime@DateTimeArrayImpl@dpi@@UEAAXHO@Z 000000018005c1b8     dpiDateTimeArrayImpl.obj
 0004:000011c4       $pdata$7$?setDateTime@DateTimeArrayImpl@dpi@@UEAAXHO@Z 000000018005c1c4     dpiDateTimeArrayImpl.obj
 0004:000011d0       $pdata$8$?setDateTime@DateTimeArrayImpl@dpi@@UEAAXHO@Z 000000018005c1d0     dpiDateTimeArrayImpl.obj
 0004:000011dc       $pdata$?initBaseDate@DateTimeArrayImpl@dpi@@SAXPEAUOCIEnv@@@Z 000000018005c1dc     dpiDateTimeArrayImpl.obj
 0004:000011e8       $pdata$0$?initBaseDate@DateTimeArrayImpl@dpi@@SAXPEAUOCIEnv@@@Z 000000018005c1e8     dpiDateTimeArrayImpl.obj
 0004:000011f4       $pdata$1$?initBaseDate@DateTimeArrayImpl@dpi@@SAXPEAUOCIEnv@@@Z 000000018005c1f4     dpiDateTimeArrayImpl.obj
 0004:00001200       $pdata$??0PoolImpl@@QEAA@PEAVEnvImpl@@PEAUOCIEnv@@AEBV?$basic_string@DU?$char_traits@D@std@@V?$allocator@D@2@@std@@22HHHH_NH@Z 000000018005c200     dpiPoolImpl.obj
 0004:0000120c       $pdata$??_GPoolImpl@@UEAAPEAXI@Z 000000018005c20c     dpiPoolImpl.obj
 0004:00001218       $pdata$?terminate@PoolImpl@@UEAAXXZ 000000018005c218     dpiPoolImpl.obj
 0004:00001224       $pdata$0$?terminate@PoolImpl@@UEAAXXZ 000000018005c224     dpiPoolImpl.obj
 0004:00001230       $pdata$1$?terminate@PoolImpl@@UEAAXXZ 000000018005c230     dpiPoolImpl.obj
 0004:0000123c       $pdata$?poolTimeout@PoolImpl@@UEAAXI@Z 000000018005c23c     dpiPoolImpl.obj
 0004:00001248       $pdata$?stmtCacheSize@PoolImpl@@UEAAXI@Z 000000018005c248     dpiPoolImpl.obj
 0004:00001254       $pdata$?connectionsOpen@PoolImpl@@UEBAIXZ 000000018005c254     dpiPoolImpl.obj
 0004:00001260       $pdata$?connectionsInUse@PoolImpl@@UEBAIXZ 000000018005c260     dpiPoolImpl.obj
 0004:0000126c       $pdata$?getConnection@PoolImpl@@UEAAPEAVConn@dpi@@AEBV?$basic_string@DU?$char_traits@D@std@@V?$allocator@D@2@@std@@@Z 000000018005c26c     dpiPoolImpl.obj
 0004:00001278       $pdata$?cleanup@PoolImpl@@AEAAXXZ 000000018005c278     dpiPoolImpl.obj
 0004:00001284       $pdata$??_GStmt@dpi@@UEAAPEAXI@Z 000000018005c284     dpiStmtImpl.obj
 0004:00001290       $pdata$??0StmtImpl@@QEAA@PEAVEnvImpl@@PEAUOCIEnv@@PEAVConnImpl@@PEAUOCISvcCtx@@AEBV?$basic_string@DU?$char_traits@D@std@@V?$allocator@D@2@@std@@@Z 000000018005c290     dpiStmtImpl.obj
 0004:0000129c       $pdata$??_GStmtImpl@@UEAAPEAXI@Z 000000018005c29c     dpiStmtImpl.obj
 0004:000012a8       $pdata$?stmtType@StmtImpl@@UEBA?AW4DpiStmtType@dpi@@XZ 000000018005c2a8     dpiStmtImpl.obj
 0004:000012b4       $pdata$0$?stmtType@StmtImpl@@UEBA?AW4DpiStmtType@dpi@@XZ 000000018005c2b4     dpiStmtImpl.obj
 0004:000012c0       $pdata$1$?stmtType@StmtImpl@@UEBA?AW4DpiStmtType@dpi@@XZ 000000018005c2c0     dpiStmtImpl.obj
 0004:000012cc       $pdata$?rowsAffected@StmtImpl@@UEBAHXZ 000000018005c2cc     dpiStmtImpl.obj
 0004:000012d8       $pdata$?numCols@StmtImpl@@UEAAIXZ 000000018005c2d8     dpiStmtImpl.obj
 0004:000012e4       $pdata$0$?numCols@StmtImpl@@UEAAIXZ 000000018005c2e4     dpiStmtImpl.obj
 0004:000012f0       $pdata$1$?numCols@StmtImpl@@UEAAIXZ 000000018005c2f0     dpiStmtImpl.obj
 0004:000012fc       $pdata$?prefetchRows@StmtImpl@@UEAAXI@Z 000000018005c2fc     dpiStmtImpl.obj
 0004:00001308       $pdata$?bind@StmtImpl@@UEAAXIGPEAXHPEAFPEAGIPEAI0P6AH0HIKKPEAPEAX44PEAPEAGPEAE@Z@Z 000000018005c308     dpiStmtImpl.obj
 0004:00001314       $pdata$?bind@StmtImpl@@UEAAXPEBEHIGPEAXHPEAFPEAGIPEAI1P6AH1HIKKPEAPEAX55PEAPEAGPEAE@Z@Z 000000018005c314     dpiStmtImpl.obj
 0004:00001320       $pdata$?execute@StmtImpl@@UEAAXH_N@Z 000000018005c320     dpiStmtImpl.obj
 0004:0000132c       $pdata$?define@StmtImpl@@UEAAXIGPEAXHPEAFPEAG@Z 000000018005c32c     dpiStmtImpl.obj
 0004:00001338       $pdata$?fetch@StmtImpl@@UEAAXI@Z 000000018005c338     dpiStmtImpl.obj
 0004:00001344       $pdata$?rowsFetched@StmtImpl@@UEBAIXZ 000000018005c344     dpiStmtImpl.obj
 0004:00001350       $pdata$?getMetaData@StmtImpl@@UEAAPEBUMetaData@dpi@@XZ 000000018005c350     dpiStmtImpl.obj
 0004:0000135c       $pdata$3$?getMetaData@StmtImpl@@UEAAPEBUMetaData@dpi@@XZ 000000018005c35c     dpiStmtImpl.obj
 0004:00001368       $pdata$4$?getMetaData@StmtImpl@@UEAAPEBUMetaData@dpi@@XZ 000000018005c368     dpiStmtImpl.obj
 0004:00001374       $pdata$?cleanup@StmtImpl@@AEAAXXZ 000000018005c374     dpiStmtImpl.obj
 0004:00001380       $pdata$0$?cleanup@StmtImpl@@AEAAXXZ 000000018005c380     dpiStmtImpl.obj
 0004:0000138c       $pdata$1$?cleanup@StmtImpl@@AEAAXXZ 000000018005c38c     dpiStmtImpl.obj
 0004:00001398       $pdata$?outbindCallback@StmtImpl@@SAHPEAXPEAUOCIBind@@IIPEAPEAXPEAPEAIPEAE2PEAPEAG@Z 000000018005c398     dpiStmtImpl.obj
 0004:000013a4       $pdata$?isReturning@StmtImpl@@UEAA_NXZ 000000018005c3a4     dpiStmtImpl.obj
 0004:000013b0       $pdata$0$?isReturning@StmtImpl@@UEAA_NXZ 000000018005c3b0     dpiStmtImpl.obj
 0004:000013bc       $pdata$1$?isReturning@StmtImpl@@UEAA_NXZ 000000018005c3bc     dpiStmtImpl.obj
 0004:000013c8       $pdata$?getState@StmtImpl@@UEAAIXZ 000000018005c3c8     dpiStmtImpl.obj
 0004:000013d4       $pdata$0$?getState@StmtImpl@@UEAAIXZ 000000018005c3d4     dpiStmtImpl.obj
 0004:000013e0       $pdata$1$?getState@StmtImpl@@UEAAIXZ 000000018005c3e0     dpiStmtImpl.obj
 0004:000013ec       $pdata$?ociCallCommon@@YAXHPEAXI@Z 000000018005c3ec     dpiUtils.obj
 0004:000013f8       $pdata$load_exe_hook       000000018005c3f8     win_delay_load_hook.obj
 0004:00001410       $pdata$_Getcvt             000000018005c410     libcpmt:xwctomb.obj
 0004:0000141c       $pdata$??4?$_Yarn@D@std@@QEAAAEAV01@PEBD@Z 000000018005c41c     libcpmt:locale0.obj
 0004:00001428       $pdata$??_G_Locimp@locale@std@@MEAAPEAXI@Z 000000018005c428     libcpmt:locale0.obj
 0004:00001434       $pdata$?_Facet_Register@std@@YAXPEAV_Facet_base@1@@Z 000000018005c434     libcpmt:locale0.obj
 0004:00001440       $pdata$?_Init@locale@std@@CAPEAV_Locimp@12@_N@Z 000000018005c440     libcpmt:locale0.obj
 0004:0000144c       $pdata$?_Locimp_dtor@_Locimp@locale@std@@CAXPEAV123@@Z 000000018005c44c     libcpmt:locale0.obj
 0004:00001458       $pdata$?_Locinfo_ctor@_Locinfo@std@@SAXPEAV12@PEBD@Z 000000018005c458     libcpmt:locale0.obj
 0004:00001464       $pdata$?_Locinfo_dtor@_Locinfo@std@@SAXPEAV12@@Z 000000018005c464     libcpmt:locale0.obj
 0004:00001470       $pdata$?_New_Locimp@_Locimp@locale@std@@CAPEAV123@_N@Z 000000018005c470     libcpmt:locale0.obj
 0004:0000147c       $pdata$?_Setgloballocale@locale@std@@CAXPEAX@Z 000000018005c47c     libcpmt:locale0.obj
 0004:00001488       $pdata$_Deletegloballocale 000000018005c488     libcpmt:locale0.obj
 0004:00001494       $pdata$tidy_global         000000018005c494     libcpmt:locale0.obj
 0004:000014a0       $pdata$?_Ios_base_dtor@ios_base@std@@CAXPEAV12@@Z 000000018005c4a0     libcpmt:ios.obj
 0004:000014ac       $pdata$?_Tidy@ios_base@std@@AEAAXXZ 000000018005c4ac     libcpmt:ios.obj
 0004:000014b8       $pdata$??0bad_alloc@std@@QEAA@AEBV01@@Z 000000018005c4b8     libcpmt:xthrow.obj
 0004:000014c4       $pdata$??0length_error@std@@QEAA@AEBV01@@Z 000000018005c4c4     libcpmt:xthrow.obj
 0004:000014d0       $pdata$??0logic_error@std@@QEAA@AEBV01@@Z 000000018005c4d0     libcpmt:xthrow.obj
 0004:000014dc       $pdata$??0out_of_range@std@@QEAA@AEBV01@@Z 000000018005c4dc     libcpmt:xthrow.obj
 0004:000014e8       $pdata$??_Gbad_alloc@std@@UEAAPEAXI@Z 000000018005c4e8     libcpmt:xthrow.obj
 0004:000014f4       $pdata$??_Glength_error@std@@UEAAPEAXI@Z 000000018005c4f4     libcpmt:xthrow.obj
 0004:000014f4       $pdata$??_Glogic_error@std@@UEAAPEAXI@Z 000000018005c4f4     libcpmt:xthrow.obj
 0004:000014f4       $pdata$??_Gout_of_range@std@@UEAAPEAXI@Z 000000018005c4f4     libcpmt:xthrow.obj
 0004:00001500       $pdata$?_Xbad_alloc@std@@YAXXZ 000000018005c500     libcpmt:xthrow.obj
 0004:0000150c       $pdata$?_Xlength_error@std@@YAXPEBD@Z 000000018005c50c     libcpmt:xthrow.obj
 0004:00001518       $pdata$?_Xout_of_range@std@@YAXPEBD@Z 000000018005c518     libcpmt:xthrow.obj
 0004:00001524       $pdata$??0_Init_locks@std@@QEAA@XZ 000000018005c524     libcpmt:xlock.obj
 0004:00001530       $pdata$??0_Lockit@std@@QEAA@H@Z 000000018005c530     libcpmt:xlock.obj
 0004:0000153c       $pdata$??1_Init_locks@std@@QEAA@XZ 000000018005c53c     libcpmt:xlock.obj
 0004:00001548       $pdata$??1_Lockit@std@@QEAA@XZ 000000018005c548     libcpmt:xlock.obj
 0004:00001554       $pdata$_Getctype           000000018005c554     libcpmt:_tolower.obj
 0004:00001560       $pdata$_Tolower            000000018005c560     libcpmt:_tolower.obj
 0004:0000156c       $pdata$_Toupper            000000018005c56c     libcpmt:_toupper.obj
 0004:00001578       $pdata$?_Atexit@@YAXP6AXXZ@Z 000000018005c578     libcpmt:iosptrs.obj
 0004:00001590       $pdata$abort               000000018005c590     LIBCMT:abort.obj
 0004:0000159c       $pdata$_call_reportfault   000000018005c59c     LIBCMT:invarg.obj
 0004:000015a8       $pdata$_invalid_parameter  000000018005c5a8     LIBCMT:invarg.obj
 0004:000015b4       $pdata$_invalid_parameter_noinfo 000000018005c5b4     LIBCMT:invarg.obj
 0004:000015c0       $pdata$_invoke_watson      000000018005c5c0     LIBCMT:invarg.obj
 0004:000015cc       $pdata$sprintf_s           000000018005c5cc     LIBCMT:sprintf.obj
 0004:000015e4       $pdata$free                000000018005c5e4     LIBCMT:free.obj
 0004:000015f0       $pdata$malloc              000000018005c5f0     LIBCMT:malloc.obj
 0004:000015fc       $pdata$localeconv          000000018005c5fc     LIBCMT:lconv.obj
 0004:00001608       $pdata$_wassert            000000018005c608     LIBCMT:wassert.obj
 0004:00001614       $pdata$swprintf            000000018005c614     LIBCMT:wassert.obj
 0004:00001620       $pdata$__onexitinit        000000018005c620     LIBCMT:onexit.obj
 0004:0000162c       $pdata$_onexit             000000018005c62c     LIBCMT:onexit.obj
 0004:00001638       $pdata$atexit              000000018005c638     LIBCMT:onexit.obj
 0004:00001644       $pdata$_purecall           000000018005c644     LIBCMT:purevirt.obj
 0004:00001650       $pdata$strcspn             000000018005c650     LIBCMT:strcspn.obj
 0004:0000165c       $pdata$??8type_info@@QEBA_NAEBV0@@Z 000000018005c65c     LIBCMT:typinfo.obj
 0004:00001668       $pdata$??_Gtype_info@@UEAAPEAXI@Z 000000018005c668     LIBCMT:typinfo.obj
 0004:00001674       $pdata$??2@YAPEAX_K@Z      000000018005c674     LIBCMT:new.obj
 0004:00001680       $pdata$??_M@YAXPEAX_KHP6AX0@Z@Z 000000018005c680     LIBCMT:ehvecdtr.obj
 0004:0000168c       $pdata$?__ArrayUnwind@@YAXPEAX_KHP6AX0@Z@Z 000000018005c68c     LIBCMT:ehvecdtr.obj
 0004:00001698       $pdata$??_L@YAXPEAX_KHP6AX0@Z2@Z 000000018005c698     LIBCMT:ehvecctr.obj
 0004:000016a4       $pdata$__raise_securityfailure 000000018005c6a4     LIBCMT:gs_report.obj
 0004:000016b0       $pdata$__report_gsfailure  000000018005c6b0     LIBCMT:gs_report.obj
 0004:000016bc       $pdata$__report_rangecheckfailure 000000018005c6bc     LIBCMT:gs_report.obj
 0004:000016c8       $pdata$__report_securityfailure 000000018005c6c8     LIBCMT:gs_report.obj
 0004:000016d4       $pdata$??0_LocaleUpdate@@QEAA@PEAUlocaleinfo_struct@@@Z 000000018005c6d4     LIBCMT:stricmp.obj
 0004:000016e0       $pdata$_stricmp            000000018005c6e0     LIBCMT:stricmp.obj
 0004:000016ec       $pdata$_stricmp_l          000000018005c6ec     LIBCMT:stricmp.obj
 0004:000016f8       $pdata$_CRT_INIT           000000018005c6f8     LIBCMT:dllcrt0.obj
 0004:00001704       $pdata$_DllMainCRTStartup  000000018005c704     LIBCMT:dllcrt0.obj
 0004:00001710       $pdata$__DllMainCRTStartup 000000018005c710     LIBCMT:dllcrt0.obj
 0004:0000171c       $pdata$___lc_codepage_func 000000018005c71c     LIBCMT:initctyp.obj
 0004:00001728       $pdata$___lc_locale_name_func 000000018005c728     LIBCMT:initctyp.obj
 0004:00001734       $pdata$___mb_cur_max_func  000000018005c734     LIBCMT:initctyp.obj
 0004:00001740       $pdata$__init_ctype        000000018005c740     LIBCMT:initctyp.obj
 0004:0000174c       $pdata$__doserrno          000000018005c74c     LIBCMT:dosmap.obj
 0004:00001758       $pdata$_dosmaperr          000000018005c758     LIBCMT:dosmap.obj
 0004:00001764       $pdata$_errno              000000018005c764     LIBCMT:dosmap.obj
 0004:00001770       $pdata$?x_ismbbtype_l@@YAHPEAUlocaleinfo_struct@@IHH@Z 000000018005c770     LIBCMT:ismbbyte.obj
 0004:00001794       $pdata$_CxxThrowException  000000018005c794     LIBCMT:throw.obj
 0004:000017a0       $pdata$?_GetEstablisherFrame@@YAPEA_KPEA_KPEAU_xDISPATCHER_CONTEXT@@PEBU_s_FuncInfo@@0@Z 000000018005c7a0     LIBCMT:trnsctrl.obj
 0004:000017ac       $pdata$?_GetRangeOfTrysToCheck@@YAPEBU_s_TryBlockMapEntry@@PEA_KPEBU_s_FuncInfo@@HHPEAI2PEAU_xDISPATCHER_CONTEXT@@@Z 000000018005c7ac     LIBCMT:trnsctrl.obj
 0004:000017b8       $pdata$?__FrameUnwindToEmptyState@@YAXPEA_KPEAU_xDISPATCHER_CONTEXT@@PEBU_s_FuncInfo@@@Z 000000018005c7b8     LIBCMT:trnsctrl.obj
 0004:000017c4       $pdata$?__SehTransFilter@@YAHPEAU_EXCEPTION_POINTERS@@PEAUEHExceptionRecord@@PEA_KPEAU_CONTEXT@@PEAU_xDISPATCHER_CONTEXT@@PEBU_s_FuncInfo@@PEAH@Z 000000018005c7c4     LIBCMT:trnsctrl.obj
 0004:000017d0       $pdata$_CallSETranslator   000000018005c7d0     LIBCMT:trnsctrl.obj
 0004:000017dc       $pdata$_CreateFrameInfo    000000018005c7dc     LIBCMT:trnsctrl.obj
 0004:000017e8       $pdata$_FindAndUnlinkFrame 000000018005c7e8     LIBCMT:trnsctrl.obj
 0004:000017f4       $pdata$_GetImageBase       000000018005c7f4     LIBCMT:trnsctrl.obj
 0004:00001800       $pdata$_GetThrowImageBase  000000018005c800     LIBCMT:trnsctrl.obj
 0004:0000180c       $pdata$_IsExceptionObjectToBeDestroyed 000000018005c80c     LIBCMT:trnsctrl.obj
 0004:00001818       $pdata$_SetImageBase       000000018005c818     LIBCMT:trnsctrl.obj
 0004:00001824       $pdata$_SetThrowImageBase  000000018005c824     LIBCMT:trnsctrl.obj
 0004:00001830       $pdata$_UnwindNestedFrames 000000018005c830     LIBCMT:trnsctrl.obj
 0004:0000183c       $pdata$__CxxFrameHandler3  000000018005c83c     LIBCMT:trnsctrl.obj
 0004:00001848       $pdata$setlocale           000000018005c848     LIBCMT:setlocal.obj
 0004:00001854       $pdata$??0exception@std@@QEAA@AEBQEBD@Z 000000018005c854     LIBCMT:stdexcpt.obj
 0004:00001860       $pdata$??0exception@std@@QEAA@AEBV01@@Z 000000018005c860     LIBCMT:stdexcpt.obj
 0004:0000186c       $pdata$??4exception@std@@QEAAAEAV01@AEBV01@@Z 000000018005c86c     LIBCMT:stdexcpt.obj
 0004:00001878       $pdata$??_Gexception@std@@UEAAPEAXI@Z 000000018005c878     LIBCMT:stdexcpt.obj
 0004:00001884       $pdata$?_Copy_str@exception@std@@AEAAXPEBD@Z 000000018005c884     LIBCMT:stdexcpt.obj
 0004:00001890       $pdata$?_Tidy@exception@std@@AEAAXXZ 000000018005c890     LIBCMT:stdexcpt.obj
 0004:0000189c       $pdata$_lock               000000018005c89c     LIBCMT:mlock.obj
 0004:000018a8       $pdata$_mtdeletelocks      000000018005c8a8     LIBCMT:mlock.obj
 0004:000018b4       $pdata$_mtinitlocknum      000000018005c8b4     LIBCMT:mlock.obj
 0004:000018c0       $pdata$_mtinitlocks        000000018005c8c0     LIBCMT:mlock.obj
 0004:000018cc       $pdata$__pctype_func       000000018005c8cc     LIBCMT:ctype.obj
 0004:000018d8       $pdata$isdigit             000000018005c8d8     LIBCMT:_ctype.obj
 0004:000018e4       $pdata$islower             000000018005c8e4     LIBCMT:_ctype.obj
 0004:000018f0       $pdata$isupper             000000018005c8f0     LIBCMT:_ctype.obj
 0004:000018fc       $pdata$_wcsdup             000000018005c8fc     LIBCMT:wcsdup.obj
 0004:00001908       $pdata$?__crtLCMapStringA_stat@@YAHPEAUlocaleinfo_struct@@PEB_WKPEBDHPEADHHH@Z 000000018005c908     LIBCMT:a_map.obj
 0004:00001914       $pdata$__crtLCMapStringA   000000018005c914     LIBCMT:a_map.obj
 0004:00001920       $pdata$_calloc_crt         000000018005c920     LIBCMT:crtheap.obj
 0004:0000192c       $pdata$_malloc_crt         000000018005c92c     LIBCMT:crtheap.obj
 0004:00001938       $pdata$_realloc_crt        000000018005c938     LIBCMT:crtheap.obj
 0004:00001950       $pdata$__GSHandlerCheck    000000018005c950     LIBCMT:gshandler.obj
 0004:0000195c       $pdata$__GSHandlerCheckCommon 000000018005c95c     LIBCMT:gshandler.obj
 0004:00001968       $pdata$__GSHandlerCheck_EH 000000018005c968     LIBCMT:gshandlereh.obj
 0004:00001974       $pdata$__crtCaptureCurrentContext 000000018005c974     LIBCMT:winapisupp.obj
 0004:00001980       $pdata$__crtCapturePreviousContext 000000018005c980     LIBCMT:winapisupp.obj
 0004:0000198c       $pdata$__crtInitializeCriticalSectionEx 000000018005c98c     LIBCMT:winapisupp.obj
 0004:00001998       $pdata$__crtIsPackagedApp  000000018005c998     LIBCMT:winapisupp.obj
 0004:000019a4       $pdata$__crtLoadWinApiPointers 000000018005c9a4     LIBCMT:winapisupp.obj
 0004:000019b0       $pdata$__crtTerminateProcess 000000018005c9b0     LIBCMT:winapisupp.obj
 0004:000019bc       $pdata$__crtUnhandledException 000000018005c9bc     LIBCMT:winapisupp.obj
 0004:000019c8       $pdata$memcpy_s            000000018005c9c8     LIBCMT:memcpy_s.obj
 0004:000019d4       $pdata$_tolower_l          000000018005c9d4     LIBCMT:tolower.obj
 0004:000019ec       $pdata$GetTableIndexFromLocaleName 000000018005c9ec     LIBCMT:winapinls.obj
 0004:000019f8       $pdata$__crtDownlevelLCIDToLocaleName 000000018005c9f8     LIBCMT:winapinls.obj
 0004:00001a04       $pdata$__crtDownlevelLocaleNameToLCID 000000018005ca04     LIBCMT:winapinls.obj
 0004:00001a10       $pdata$__crtEnumSystemLocalesEx 000000018005ca10     LIBCMT:winapinls.obj
 0004:00001a1c       $pdata$__crtGetLocaleInfoEx 000000018005ca1c     LIBCMT:winapinls.obj
 0004:00001a28       $pdata$__crtGetUserDefaultLocaleName 000000018005ca28     LIBCMT:winapinls.obj
 0004:00001a34       $pdata$__crtIsValidLocaleName 000000018005ca34     LIBCMT:winapinls.obj
 0004:00001a40       $pdata$__crtLCMapStringEx  000000018005ca40     LIBCMT:winapinls.obj
 0004:00001a4c       $pdata$__crtLCMapStringW   000000018005ca4c     LIBCMT:w_map.obj
 0004:00001a58       $pdata$__crtCorExitProcess 000000018005ca58     LIBCMT:crt0dat.obj
 0004:00001a64       $pdata$__crtExitProcess    000000018005ca64     LIBCMT:crt0dat.obj
 0004:00001a70       $pdata$__freeCrtMemory     000000018005ca70     LIBCMT:crt0dat.obj
 0004:00001a7c       $pdata$_amsg_exit          000000018005ca7c     LIBCMT:crt0dat.obj
 0004:00001a88       $pdata$_cinit              000000018005ca88     LIBCMT:crt0dat.obj
 0004:00001a94       $pdata$_init_pointers      000000018005ca94     LIBCMT:crt0dat.obj
 0004:00001aa0       $pdata$_initterm           000000018005caa0     LIBCMT:crt0dat.obj
 0004:00001aac       $pdata$_initterm_e         000000018005caac     LIBCMT:crt0dat.obj
 0004:00001ab8       $pdata$doexit              000000018005cab8     LIBCMT:crt0dat.obj
 0004:00001ac4       $pdata$raise               000000018005cac4     LIBCMT:winsig.obj
 0004:00001ad0       $pdata$_flsbuf             000000018005cad0     LIBCMT:_flsbuf.obj
 0004:00001adc       $pdata$_vsnprintf_helper   000000018005cadc     LIBCMT:vsnprnc.obj
 0004:00001ae8       $pdata$_vsprintf_s_l       000000018005cae8     LIBCMT:vsnprnc.obj
 0004:00001af4       $pdata$_output_l           000000018005caf4     LIBCMT:output.obj
 0004:00001b00       $pdata$write_char          000000018005cb00     LIBCMT:output.obj
 0004:00001b00       $pdata$write_char          000000018005cb00     LIBCMT:output.obj
 0004:00001b0c       $pdata$__isa_available_init 000000018005cb0c     LIBCMT:cpu_disp.obj
 0004:00001b18       $pdata$_heap_init          000000018005cb18     LIBCMT:heapinit.obj
 0004:00001b24       $pdata$_callnewh           000000018005cb24     LIBCMT:handler.obj
 0004:00001b30       $pdata$_FF_MSGBANNER       000000018005cb30     LIBCMT:crt0msg.obj
 0004:00001b3c       $pdata$_NMSG_WRITE         000000018005cb3c     LIBCMT:crt0msg.obj
 0004:00001b48       $pdata$__freetlocinfo      000000018005cb48     LIBCMT:localref.obj
 0004:00001b54       $pdata$__updatetlocinfo    000000018005cb54     LIBCMT:localref.obj
 0004:00001b60       $pdata$_updatetlocinfoEx_nolock 000000018005cb60     LIBCMT:localref.obj
 0004:00001b6c       $pdata$_freefls            000000018005cb6c     LIBCMT:tidtable.obj
 0004:00001b78       $pdata$_freeptd            000000018005cb78     LIBCMT:tidtable.obj
 0004:00001b84       $pdata$_getptd             000000018005cb84     LIBCMT:tidtable.obj
 0004:00001b90       $pdata$_getptd_noexit      000000018005cb90     LIBCMT:tidtable.obj
 0004:00001b9c       $pdata$_initptd            000000018005cb9c     LIBCMT:tidtable.obj
 0004:00001ba8       $pdata$_mtinit             000000018005cba8     LIBCMT:tidtable.obj
 0004:00001bb4       $pdata$_mtterm             000000018005cbb4     LIBCMT:tidtable.obj
 0004:00001bc0       $pdata$wcscat_s            000000018005cbc0     LIBCMT:wcscat_s.obj
 0004:00001bcc       $pdata$wcscpy_s            000000018005cbcc     LIBCMT:wcscpy_s.obj
 0004:00001bd8       $pdata$wcsncat_s           000000018005cbd8     LIBCMT:wcsncat_s.obj
 0004:00001be4       $pdata$_set_error_mode     000000018005cbe4     LIBCMT:errmode.obj
 0004:00001bf0       $pdata$_itow_s             000000018005cbf0     LIBCMT:xtows.obj
 0004:00001bfc       $pdata$xtow_s              000000018005cbfc     LIBCMT:xtows.obj
 0004:00001c08       $pdata$__initstdio         000000018005cc08     LIBCMT:_file.obj
 0004:00001c14       $pdata$__endstdio          000000018005cc14     LIBCMT:_file.obj
 0004:00001c20       $pdata$_lock_file          000000018005cc20     LIBCMT:_file.obj
 0004:00001c2c       $pdata$_lock_file2         000000018005cc2c     LIBCMT:_file.obj
 0004:00001c38       $pdata$_fflush_nolock      000000018005cc38     LIBCMT:fflush.obj
 0004:00001c44       $pdata$_flush              000000018005cc44     LIBCMT:fflush.obj
 0004:00001c50       $pdata$fflush              000000018005cc50     LIBCMT:fflush.obj
 0004:00001c5c       $pdata$flsall              000000018005cc5c     LIBCMT:fflush.obj
 0004:00001c68       $pdata$setvbuf             000000018005cc68     LIBCMT:setvbuf.obj
 0004:00001c74       $pdata$fwprintf            000000018005cc74     LIBCMT:fwprintf.obj
 0004:00001c80       $pdata$_vswprintf_c_l      000000018005cc80     LIBCMT:vswprnc.obj
 0004:00001c8c       $pdata$_vswprintf_helper   000000018005cc8c     LIBCMT:vswprnc.obj
 0004:00001c98       $pdata$__crtMessageBoxW    000000018005cc98     LIBCMT:crtmboxw.obj
 0004:00001ca4       $pdata$_msize              000000018005cca4     LIBCMT:msize.obj
 0004:00001cb0       $pdata$__C_specific_handler 000000018005ccb0     LIBCMT:chandler.obj
 0004:00001cbc       $pdata$__getlocaleinfo     000000018005ccbc     LIBCMT:inithelp.obj
 0004:00001cc8       $pdata$?_Type_info_dtor@type_info@@CAXPEAV1@@Z 000000018005ccc8     LIBCMT:typname.obj
 0004:00001cd4       $pdata$?_inconsistency@@YAXXZ 000000018005ccd4     LIBCMT:hooks.obj
 0004:00001ce0       $pdata$?terminate@@YAXXZ   000000018005cce0     LIBCMT:hooks.obj
 0004:00001cec       $pdata$_initp_eh_hooks     000000018005ccec     LIBCMT:hooks.obj
 0004:00001cf8       $pdata$_vsnprintf          000000018005ccf8     LIBCMT:vsnprint.obj
 0004:00001d04       $pdata$_vsnprintf_l        000000018005cd04     LIBCMT:vsnprint.obj
 0004:00001d10       $pdata$__initmbctable      000000018005cd10     LIBCMT:mbctype.obj
 0004:00001d1c       $pdata$?getSystemCP@@YAHH@Z 000000018005cd1c     LIBCMT:mbctype.obj
 0004:00001d28       $pdata$?setSBCS@@YAXPEAUthreadmbcinfostruct@@@Z 000000018005cd28     LIBCMT:mbctype.obj
 0004:00001d34       $pdata$?setSBUpLow@@YAXPEAUthreadmbcinfostruct@@@Z 000000018005cd34     LIBCMT:mbctype.obj
 0004:00001d40       $pdata$__updatetmbcinfo    000000018005cd40     LIBCMT:mbctype.obj
 0004:00001d4c       $pdata$_setmbcp            000000018005cd4c     LIBCMT:mbctype.obj
 0004:00001d58       $pdata$_setmbcp_nolock     000000018005cd58     LIBCMT:mbctype.obj
 0004:00001d64       $pdata$_locterm            000000018005cd64     LIBCMT:wsetloca.obj
 0004:00001d70       $pdata$__copy_locale_name  000000018005cd70     LIBCMT:wsetloca.obj
 0004:00001d7c       $pdata$__lc_lctowcs        000000018005cd7c     LIBCMT:wsetloca.obj
 0004:00001d88       $pdata$__lc_wcstolc        000000018005cd88     LIBCMT:wsetloca.obj
 0004:00001d94       $pdata$_copytlocinfo_nolock 000000018005cd94     LIBCMT:wsetloca.obj
 0004:00001da0       $pdata$_expandlocale       000000018005cda0     LIBCMT:wsetloca.obj
 0004:00001dac       $pdata$_wcscats            000000018005cdac     LIBCMT:wsetloca.obj
 0004:00001db8       $pdata$_wsetlocale         000000018005cdb8     LIBCMT:wsetloca.obj
 0004:00001dc4       $pdata$_wsetlocale_get_all 000000018005cdc4     LIBCMT:wsetloca.obj
 0004:00001dd0       $pdata$_wsetlocale_nolock  000000018005cdd0     LIBCMT:wsetloca.obj
 0004:00001ddc       $pdata$_wsetlocale_set_cat 000000018005cddc     LIBCMT:wsetloca.obj
 0004:00001de8       $pdata$_XcptFilter         000000018005cde8     LIBCMT:winxfltr.obj
 0004:00001df4       $pdata$_ioinit             000000018005cdf4     LIBCMT:ioinit.obj
 0004:00001e00       $pdata$_ioterm             000000018005ce00     LIBCMT:ioinit.obj
 0004:00001e0c       $pdata$_setargv            000000018005ce0c     LIBCMT:stdargv.obj
 0004:00001e18       $pdata$parse_cmdline       000000018005ce18     LIBCMT:stdargv.obj
 0004:00001e24       $pdata$_setenvp            000000018005ce24     LIBCMT:stdenvp.obj
 0004:00001e30       $pdata$__security_init_cookie 000000018005ce30     LIBCMT:gs_support.obj
 0004:00001e3c       $pdata$__crtGetEnvironmentStringsA 000000018005ce3c     LIBCMT:a_env.obj
 0004:00001e48       $pdata$_RTC_Initialize     000000018005ce48     LIBCMT:initsect.obj
 0004:00001e54       $pdata$_RTC_Terminate      000000018005ce54     LIBCMT:initsect.obj
 0004:00001e60       $pdata$?__crtGetStringTypeA_stat@@YAHPEAUlocaleinfo_struct@@KPEBDHPEAGHH@Z 000000018005ce60     LIBCMT:a_str.obj
 0004:00001e6c       $pdata$__crtGetStringTypeA 000000018005ce6c     LIBCMT:a_str.obj
 0004:00001e78       $pdata$__DestructExceptionObject 000000018005ce78     LIBCMT:frame.obj
 0004:00001e84       $pdata$??0bad_exception@std@@QEAA@AEBV01@@Z 000000018005ce84     LIBCMT:frame.obj
 0004:00001e90       $pdata$??_Gbad_exception@std@@UEAAPEAXI@Z 000000018005ce90     LIBCMT:frame.obj
 0004:00001e9c       $pdata$?CatchIt@@YAXPEAUEHExceptionRecord@@PEA_KPEAU_CONTEXT@@PEAU_xDISPATCHER_CONTEXT@@PEBU_s_FuncInfo@@PEBU_s_HandlerType@@PEBU_s_CatchableType@@PEBU_s_TryBlockMapEntry@@H1EE@Z 000000018005ce9c     LIBCMT:frame.obj
 0004:00001ea8       $pdata$?FindHandler@@YAXPEAUEHExceptionRecord@@PEA_KPEAU_CONTEXT@@PEAU_xDISPATCHER_CONTEXT@@PEBU_s_FuncInfo@@EH1@Z 000000018005cea8     LIBCMT:frame.obj
 0004:00001eb4       $pdata$?FindHandlerForForeignException@@YAXPEAUEHExceptionRecord@@PEA_KPEAU_CONTEXT@@PEAU_xDISPATCHER_CONTEXT@@PEBU_s_FuncInfo@@HH1@Z 000000018005ceb4     LIBCMT:frame.obj
 0004:00001ec0       $pdata$?IsInExceptionSpec@@YAEPEAUEHExceptionRecord@@PEBU_s_ESTypeList@@@Z 000000018005cec0     LIBCMT:frame.obj
 0004:00001ecc       $pdata$__BuildCatchObject  000000018005cecc     LIBCMT:frame.obj
 0004:00001ed8       $pdata$__BuildCatchObjectHelper 000000018005ced8     LIBCMT:frame.obj
 0004:00001ee4       $pdata$__CxxCallCatchBlock 000000018005cee4     LIBCMT:frame.obj
 0004:00001ef0       $pdata$__FrameUnwindFilter 000000018005cef0     LIBCMT:frame.obj
 0004:00001efc       $pdata$__FrameUnwindToState 000000018005cefc     LIBCMT:frame.obj
 0004:00001f08       $pdata$__InternalCxxFrameHandler 000000018005cf08     LIBCMT:frame.obj
 0004:00001f14       $pdata$__TypeMatch         000000018005cf14     LIBCMT:frame.obj
 0004:00001f20       $pdata$?__GetCurrentState@@YAHPEA_KPEAU_xDISPATCHER_CONTEXT@@PEBU_s_FuncInfo@@@Z 000000018005cf20     LIBCMT:ehstate.obj
 0004:00001f2c       $pdata$?__GetUnwindTryBlock@@YAHPEA_KPEAU_xDISPATCHER_CONTEXT@@PEBU_s_FuncInfo@@@Z 000000018005cf2c     LIBCMT:ehstate.obj
 0004:00001f38       $pdata$?__SetUnwindTryBlock@@YAXPEA_KPEAU_xDISPATCHER_CONTEXT@@PEBU_s_FuncInfo@@H@Z 000000018005cf38     LIBCMT:ehstate.obj
 0004:00001f44       $pdata$?__StateFromIp@@YAHPEBU_s_FuncInfo@@PEAU_xDISPATCHER_CONTEXT@@_J@Z 000000018005cf44     LIBCMT:ehstate.obj
 0004:00001f50       $pdata$_cfltcvt            000000018005cf50     LIBCMT:cvt.obj
 0004:00001f5c       $pdata$_cfltcvt_l          000000018005cf5c     LIBCMT:cvt.obj
 0004:00001f68       $pdata$_cftoa_l            000000018005cf68     LIBCMT:cvt.obj
 0004:00001f74       $pdata$_cftoe2_l           000000018005cf74     LIBCMT:cvt.obj
 0004:00001f80       $pdata$_cftoe_l            000000018005cf80     LIBCMT:cvt.obj
 0004:00001f8c       $pdata$_cftof2_l           000000018005cf8c     LIBCMT:cvt.obj
 0004:00001f98       $pdata$_cftof_l            000000018005cf98     LIBCMT:cvt.obj
 0004:00001fa4       $pdata$_cftog_l            000000018005cfa4     LIBCMT:cvt.obj
 0004:00001fb0       $pdata$_cropzeros_l        000000018005cfb0     LIBCMT:cvt.obj
 0004:00001fbc       $pdata$_fassign_l          000000018005cfbc     LIBCMT:cvt.obj
 0004:00001fc8       $pdata$_forcdecpt_l        000000018005cfc8     LIBCMT:cvt.obj
 0004:00001fd4       $pdata$_initp_misc_cfltcvt_tab 000000018005cfd4     LIBCMT:cmiscdat.obj
 0004:00001fe0       $pdata$_mbstowcs_l_helper  000000018005cfe0     LIBCMT:mbstowcs.obj
 0004:00001fec       $pdata$_mbstowcs_s_l       000000018005cfec     LIBCMT:mbstowcs.obj
 0004:00001ff8       $pdata$mbstowcs_s          000000018005cff8     LIBCMT:mbstowcs.obj
 0004:00002004       $pdata$_wcstombs_l_helper  000000018005d004     LIBCMT:wcstombs.obj
 0004:00002010       $pdata$_wcstombs_s_l       000000018005d010     LIBCMT:wcstombs.obj
 0004:0000201c       $pdata$strcpy_s            000000018005d01c     LIBCMT:strcpy_s.obj
 0004:00002028       $pdata$_isctype_l          000000018005d028     LIBCMT:isctype.obj
 0004:00002034       $pdata$calloc              000000018005d034     LIBCMT:calloc.obj
 0004:0000204c       $pdata$realloc             000000018005d04c     LIBCMT:realloc.obj
 0004:00002058       $pdata$_calloc_impl        000000018005d058     LIBCMT:calloc_impl.obj
 0004:00002064       $pdata$_wcsicmp            000000018005d064     LIBCMT:wcsicmp.obj
 0004:00002070       $pdata$_wcsicmp_l          000000018005d070     LIBCMT:wcsicmp.obj
 0004:0000207c       $pdata$_isleadbyte_l       000000018005d07c     LIBCMT:_wctype.obj
 0004:00002088       $pdata$isleadbyte          000000018005d088     LIBCMT:_wctype.obj
 0004:00002094       $pdata$_IsNonwritableInCurrentImage 000000018005d094     LIBCMT:pesect.obj
 0004:000020a0       $pdata$_ftbuf              000000018005d0a0     LIBCMT:_sftbuf.obj
 0004:000020ac       $pdata$_stbuf              000000018005d0ac     LIBCMT:_sftbuf.obj
 0004:000020b8       $pdata$_fileno             000000018005d0b8     LIBCMT:fileno.obj
 0004:000020c4       $pdata$_isatty             000000018005d0c4     LIBCMT:isatty.obj
 0004:000020d0       $pdata$_write              000000018005d0d0     LIBCMT:write.obj
 0004:000020dc       $pdata$_write_nolock       000000018005d0dc     LIBCMT:write.obj
 0004:000020e8       $pdata$_lseeki64           000000018005d0e8     LIBCMT:lseeki64.obj
 0004:000020f4       $pdata$_lseeki64_nolock    000000018005d0f4     LIBCMT:lseeki64.obj
 0004:00002100       $pdata$_getbuf             000000018005d100     LIBCMT:_getbuf.obj
 0004:0000210c       $pdata$_output_s_l         000000018005d10c     LIBCMT:outputs.obj
 0004:00002118       $pdata$write_multi_char    000000018005d118     LIBCMT:outputs.obj
 0004:00002118       $pdata$write_multi_char    000000018005d118     LIBCMT:outputs.obj
 0004:00002124       $pdata$write_string        000000018005d124     LIBCMT:outputs.obj
 0004:00002124       $pdata$write_string        000000018005d124     LIBCMT:outputs.obj
 0004:00002130       $pdata$_wctomb_s_l         000000018005d130     LIBCMT:wctomb.obj
 0004:0000213c       $pdata$wctomb_s            000000018005d13c     LIBCMT:wctomb.obj
 0004:00002148       $pdata$wcsncpy_s           000000018005d148     LIBCMT:wcsncpy_s.obj
 0004:00002154       $pdata$__free_lconv_mon    000000018005d154     LIBCMT:initmon.obj
 0004:00002160       $pdata$__init_monetary     000000018005d160     LIBCMT:initmon.obj
 0004:0000216c       $pdata$__free_lconv_num    000000018005d16c     LIBCMT:initnum.obj
 0004:00002178       $pdata$__init_numeric      000000018005d178     LIBCMT:initnum.obj
 0004:00002184       $pdata$__free_lc_time      000000018005d184     LIBCMT:inittime.obj
 0004:00002190       $pdata$__init_time         000000018005d190     LIBCMT:inittime.obj
 0004:0000219c       $pdata$_get_lc_time        000000018005d19c     LIBCMT:inittime.obj
 0004:000021a8       $pdata$_fcloseall          000000018005d1a8     LIBCMT:closeall.obj
 0004:000021b4       $pdata$_commit             000000018005d1b4     LIBCMT:commit.obj
 0004:000021c0       $pdata$_freebuf            000000018005d1c0     LIBCMT:_freebuf.obj
 0004:000021cc       $pdata$_woutput_l          000000018005d1cc     LIBCMT:woutput.obj
 0004:000021d8       $pdata$write_char          000000018005d1d8     LIBCMT:woutput.obj
 0004:000021e4       $pdata$write_multi_char    000000018005d1e4     LIBCMT:woutput.obj
 0004:000021f0       $pdata$write_string        000000018005d1f0     LIBCMT:woutput.obj
 0004:0000222c       $pdata$strncpy_s           000000018005d22c     LIBCMT:strncpy_s.obj
 0004:00002238       $pdata$?__crtGetLocaleInfoA_stat@@YAHPEAUlocaleinfo_struct@@PEB_WKPEADH@Z 000000018005d238     LIBCMT:a_loc.obj
 0004:00002244       $pdata$__crtGetLocaleInfoA 000000018005d244     LIBCMT:a_loc.obj
 0004:0000225c       $pdata$GetLocaleNameFromLangCountry 000000018005d25c     LIBCMT:getqloc.obj
 0004:00002268       $pdata$GetLocaleNameFromLanguage 000000018005d268     LIBCMT:getqloc.obj
 0004:00002274       $pdata$LangCountryEnumProcEx 000000018005d274     LIBCMT:getqloc.obj
 0004:00002280       $pdata$LanguageEnumProcEx  000000018005d280     LIBCMT:getqloc.obj
 0004:0000228c       $pdata$ProcessCodePage     000000018005d28c     LIBCMT:getqloc.obj
 0004:00002298       $pdata$TestDefaultCountry  000000018005d298     LIBCMT:getqloc.obj
 0004:000022a4       $pdata$__get_qualified_locale 000000018005d2a4     LIBCMT:getqloc.obj
 0004:000022b0       $pdata$CountryEnumProc     000000018005d2b0     LIBCMT:getqloc_downlevel.obj
 0004:000022bc       $pdata$GetLcidFromLangCountry 000000018005d2bc     LIBCMT:getqloc_downlevel.obj
 0004:000022c8       $pdata$GetLcidFromLanguage 000000018005d2c8     LIBCMT:getqloc_downlevel.obj
 0004:000022d4       $pdata$LangCountryEnumProc 000000018005d2d4     LIBCMT:getqloc_downlevel.obj
 0004:000022e0       $pdata$LanguageEnumProc    000000018005d2e0     LIBCMT:getqloc_downlevel.obj
 0004:000022ec       $pdata$ProcessCodePage     000000018005d2ec     LIBCMT:getqloc_downlevel.obj
 0004:000022f8       $pdata$TestDefaultLanguage 000000018005d2f8     LIBCMT:getqloc_downlevel.obj
 0004:00002304       $pdata$TranslateName       000000018005d304     LIBCMT:getqloc_downlevel.obj
 0004:00002304       $pdata$TranslateName       000000018005d304     LIBCMT:getqloc_downlevel.obj
 0004:00002310       $pdata$__get_qualified_locale_downlevel 000000018005d310     LIBCMT:getqloc_downlevel.obj
 0004:00002328       $pdata$strrchr             000000018005d328     LIBCMT:strrchr.obj
 0004:00002334       $pdata$_fptostr            000000018005d334     LIBCMT:_fptostr.obj
 0004:00002340       $pdata$__crt_atoflt_l      000000018005d340     LIBCMT:atodbl.obj
 0004:0000234c       $pdata$_atodbl_l           000000018005d34c     LIBCMT:atodbl.obj
 0004:00002358       $pdata$__dtold             000000018005d358     LIBCMT:cfout.obj
 0004:00002364       $pdata$_fltout2            000000018005d364     LIBCMT:cfout.obj
 0004:00002370       $pdata$_towlower_l         000000018005d370     LIBCMT:towlower.obj
 0004:0000237c       $pdata$iswctype            000000018005d37c     LIBCMT:iswctype.obj
 0004:00002388       $pdata$__lock_fhandle      000000018005d388     LIBCMT:osfinfo.obj
 0004:00002394       $pdata$_free_osfhnd        000000018005d394     LIBCMT:osfinfo.obj
 0004:000023a0       $pdata$_get_osfhandle      000000018005d3a0     LIBCMT:osfinfo.obj
 0004:000023ac       $pdata$_mbtowc_l           000000018005d3ac     LIBCMT:mbtowc.obj
 0004:000023b8       $pdata$_putwch_nolock      000000018005d3b8     LIBCMT:putwch.obj
 0004:000023c4       $pdata$_fclose_nolock      000000018005d3c4     LIBCMT:fclose.obj
 0004:000023d0       $pdata$fclose              000000018005d3d0     LIBCMT:fclose.obj
 0004:000023dc       $pdata$_fputwc_nolock      000000018005d3dc     LIBCMT:fputwc.obj
 0004:000023e8       $pdata$?wcstoxl@@YAKPEB_WPEAPEB_WHH@Z 000000018005d3e8     LIBCMT:wcstol.obj
 0004:000023f4       $pdata$wcschr              000000018005d3f4     LIBCMT:wcschr.obj
 0004:00002400       $pdata$_wcsnicmp           000000018005d400     LIBCMT:wcsnicmp.obj
 0004:0000240c       $pdata$_wcsnicmp_l         000000018005d40c     LIBCMT:wcsnicmp.obj
 0004:00002418       $pdata$_ld12tod            000000018005d418     LIBCMT:intrncvt.obj
 0004:00002424       $pdata$_ld12tof            000000018005d424     LIBCMT:intrncvt.obj
 0004:00002430       $pdata$__strgtold12_l      000000018005d430     LIBCMT:strgtold.obj
 0004:0000243c       $pdata$$I10_OUTPUT         000000018005d43c     LIBCMT:x10fout.obj
 0004:00002448       $pdata$__termconout        000000018005d448     LIBCMT:initcon.obj
 0004:00002454       $pdata$__initconout        000000018005d454     LIBCMT:initcon.obj
 0004:00002460       $pdata$_close              000000018005d460     LIBCMT:close.obj
 0004:0000246c       $pdata$_close_nolock       000000018005d46c     LIBCMT:close.obj
 0004:00002478       $pdata$_flswbuf            000000018005d478     LIBCMT:_flswbuf.obj
 0004:00002484       $pdata$__mtold12           000000018005d484     LIBCMT:mantold.obj
 0004:00002490       $pdata$__delayLoadHelper2  000000018005d490     DelayImp:delayhlp.obj
 0004:0000249c       $pdata$?catch$0@?0??Async_GetConnection@Oracledb@@CAXPEAUuv_work_s@@@Z@4HA 000000018005d49c     njsOracle.obj
 0004:000024a8       $pdata$?catch$0@?0??Async_CreatePool@Oracledb@@CAXPEAUuv_work_s@@@Z@4HA 000000018005d4a8     njsOracle.obj
 0004:000024b4       $pdata$?dtor$0@?0???0?$basic_stringstream@DU?$char_traits@D@std@@V?$allocator@D@2@@std@@QEAA@H@Z@4HA 000000018005d4b4     njsOracle.obj
 0004:000024c0       $pdata$?dtor$1@?0??_Getcat@?$numpunct@D@std@@SA_KPEAPEBVfacet@locale@2@PEBV42@@Z@4HA 000000018005d4c0     njsOracle.obj
 0004:000024cc       $pdata$?catch$0@?0??GetConnectionsOpen@Pool@@CAXV?$Local@VString@v8@@@v8@@AEBV?$PropertyCallbackInfo@VValue@v8@@@Nan@@@Z@4HA 000000018005d4cc     njsPool.obj
 0004:000024d8       $pdata$?catch$0@?0??GetConnectionsInUse@Pool@@CAXV?$Local@VString@v8@@@v8@@AEBV?$PropertyCallbackInfo@VValue@v8@@@Nan@@@Z@4HA 000000018005d4d8     njsPool.obj
 0004:000024e4       $pdata$?catch$0@?0??Async_GetConnection@Pool@@CAXPEAUuv_work_s@@@Z@4HA 000000018005d4e4     njsPool.obj
 0004:000024f0       $pdata$?catch$0@?0??Async_Terminate@Pool@@CAXPEAUuv_work_s@@@Z@4HA 000000018005d4f0     njsPool.obj
 0004:000024fc       $pdata$?catch$0@?0??GetStmtCacheSize@Connection@@CAXV?$Local@VString@v8@@@v8@@AEBV?$PropertyCallbackInfo@VValue@v8@@@Nan@@@Z@4HA 000000018005d4fc     njsConnection.obj
 0004:00002508       $pdata$?catch$0@?0??SetClientId@Connection@@CAXV?$Local@VString@v8@@@v8@@V?$Local@VValue@v8@@@3@AEBV?$PropertyCallbackInfo@X@Nan@@@Z@4HA 000000018005d508     njsConnection.obj
 0004:00002514       $pdata$?catch$0@?0??SetModule@Connection@@CAXV?$Local@VString@v8@@@v8@@V?$Local@VValue@v8@@@3@AEBV?$PropertyCallbackInfo@X@Nan@@@Z@4HA 000000018005d514     njsConnection.obj
 0004:00002520       $pdata$?catch$0@?0??SetAction@Connection@@CAXV?$Local@VString@v8@@@v8@@V?$Local@VValue@v8@@@3@AEBV?$PropertyCallbackInfo@X@Nan@@@Z@4HA 000000018005d520     njsConnection.obj
 0004:0000252c       $pdata$?catch$0@?0??GetOracleServerVersion@Connection@@CAXV?$Local@VString@v8@@@v8@@AEBV?$PropertyCallbackInfo@VValue@v8@@@Nan@@@Z@4HA 000000018005d52c     njsConnection.obj
 0004:00002538       $pdata$?catch$0@?0??Async_Execute@Connection@@CAXPEAUuv_work_s@@@Z@4HA 000000018005d538     njsConnection.obj
 0004:00002544       $pdata$?catch$0@?0??Async_Release@Connection@@CAXPEAUuv_work_s@@@Z@4HA 000000018005d544     njsConnection.obj
 0004:00002550       $pdata$?catch$0@?0??Async_Commit@Connection@@CAXPEAUuv_work_s@@@Z@4HA 000000018005d550     njsConnection.obj
 0004:0000255c       $pdata$?catch$0@?0??Async_Rollback@Connection@@CAXPEAUuv_work_s@@@Z@4HA 000000018005d55c     njsConnection.obj
 0004:00002568       $pdata$?catch$0@?0??Async_Break@Connection@@CAXPEAUuv_work_s@@@Z@4HA 000000018005d568     njsConnection.obj
 0004:00002574       $pdata$?catch$0@?0??Async_GetRows@ResultSet@@CAXPEAUuv_work_s@@@Z@4HA 000000018005d574     njsResultSet.obj
 0004:00002580       $pdata$?catch$0@?0??Async_Close@ResultSet@@CAXPEAUuv_work_s@@@Z@4HA 000000018005d580     njsResultSet.obj
 0004:0000258c       $pdata$?dtor$0@?0??getErrorMsg@NJSMessages@@SA?AV?$basic_string@DU?$char_traits@D@std@@V?$allocator@D@2@@std@@W4NJSErrorType@@ZZ@4HA 000000018005d58c     njsMessages.obj
 0004:00002598       $pdata$?catch$0@?0??setILob@ILob@@QEAAXPEAUeBaton@@PEAVProtoILob@@@Z@4HA 000000018005d598     njsIntLob.obj
 0004:000025a4       $pdata$?catch$0@?0??GetChunkSize@ILob@@CAXV?$Local@VString@v8@@@v8@@AEBV?$PropertyCallbackInfo@VValue@v8@@@Nan@@@Z@4HA 000000018005d5a4     njsIntLob.obj
 0004:000025b0       $pdata$?catch$0@?0??GetLength@ILob@@CAXV?$Local@VString@v8@@@v8@@AEBV?$PropertyCallbackInfo@VValue@v8@@@Nan@@@Z@4HA 000000018005d5b0     njsIntLob.obj
 0004:000025bc       $pdata$?catch$0@?0??GetPieceSize@ILob@@CAXV?$Local@VString@v8@@@v8@@AEBV?$PropertyCallbackInfo@VValue@v8@@@Nan@@@Z@4HA 000000018005d5bc     njsIntLob.obj
 0004:000025c8       $pdata$?catch$0@?0??SetPieceSize@ILob@@CAXV?$Local@VString@v8@@@v8@@V?$Local@VValue@v8@@@3@AEBV?$PropertyCallbackInfo@X@Nan@@@Z@4HA 000000018005d5c8     njsIntLob.obj
 0004:000025d4       $pdata$?catch$0@?0??GetOffset@ILob@@CAXV?$Local@VString@v8@@@v8@@AEBV?$PropertyCallbackInfo@VValue@v8@@@Nan@@@Z@4HA 000000018005d5d4     njsIntLob.obj
 0004:000025e0       $pdata$?catch$0@?0??GetType@ILob@@CAXV?$Local@VString@v8@@@v8@@AEBV?$PropertyCallbackInfo@VValue@v8@@@Nan@@@Z@4HA 000000018005d5e0     njsIntLob.obj
 0004:000025ec       $pdata$?catch$0@?0??Async_Read@ILob@@CAXPEAUuv_work_s@@@Z@4HA 000000018005d5ec     njsIntLob.obj
 0004:000025f8       $pdata$?catch$0@?0??Async_Write@ILob@@CAXPEAUuv_work_s@@@Z@4HA 000000018005d5f8     njsIntLob.obj
 0004:00002604       $pdata$?catch$0@?0???0ProtoILob@@QEAA@PEAUeBaton@@PEAUDescriptor@dpi@@G@Z@4HA 000000018005d604     njsIntLob.obj
 0004:00002610       $pdata$?catch$0@?0???0EnvImpl@@QEAA@AEBV?$basic_string@DU?$char_traits@D@std@@V?$allocator@D@2@@std@@@Z@4HA 000000018005d610     dpiEnvImpl.obj
 0004:0000261c       $pdata$?catch$0@?0???0ConnImpl@@QEAA@PEAVEnvImpl@@PEAUOCIEnv@@_NIAEBV?$basic_string@DU?$char_traits@D@std@@V?$allocator@D@2@@std@@333@Z@4HA 000000018005d61c     dpiConnImpl.obj
 0004:00002628       $pdata$?catch$0@?0???0ConnImpl@@QEAA@PEAVPoolImpl@@PEAUOCIEnv@@_NPEAEIAEBV?$basic_string@DU?$char_traits@D@std@@V?$allocator@D@2@@std@@@Z@4HA 000000018005d628     dpiConnImpl.obj
 0004:00002634       $pdata$?catch$0@?0???0PoolImpl@@QEAA@PEAVEnvImpl@@PEAUOCIEnv@@AEBV?$basic_string@DU?$char_traits@D@std@@V?$allocator@D@2@@std@@22HHHH_NH@Z@4HA 000000018005d634     dpiPoolImpl.obj
 0004:00002640       $pdata$?catch$0@?0???0StmtImpl@@QEAA@PEAVEnvImpl@@PEAUOCIEnv@@PEAVConnImpl@@PEAUOCISvcCtx@@AEBV?$basic_string@DU?$char_traits@D@std@@V?$allocator@D@2@@std@@@Z@4HA 000000018005d640     dpiStmtImpl.obj
 0004:0000264c       $pdata$_onexit$fin$0       000000018005d64c     LIBCMT:onexit.obj
 0004:00002658       $pdata$?fin$0@?0???_M@YAXPEAX_KHP6AX0@Z@Z@4HA 000000018005d658     LIBCMT:ehvecdtr.obj
 0004:00002664       $pdata$?filt$0@?0??__ArrayUnwind@@YAXPEAX_KHP6AX0@Z@Z@4HA 000000018005d664     LIBCMT:ehvecdtr.obj
 0004:00002670       $pdata$?fin$0@?0???_L@YAXPEAX_KHP6AX0@Z2@Z@4HA 000000018005d670     LIBCMT:ehvecctr.obj
 0004:0000267c       $pdata$_CRT_INIT$fin$0     000000018005d67c     LIBCMT:dllcrt0.obj
 0004:00002688       $pdata$__DllMainCRTStartup$filt$0 000000018005d688     LIBCMT:dllcrt0.obj
 0004:00002694       $pdata$_CallSETranslator$filt$0 000000018005d694     LIBCMT:trnsctrl.obj
 0004:000026a0       $pdata$setlocale$fin$0     000000018005d6a0     LIBCMT:setlocal.obj
 0004:000026ac       $pdata$_mtinitlocknum$fin$0 000000018005d6ac     LIBCMT:mlock.obj
 0004:000026b8       $pdata$doexit$fin$0        000000018005d6b8     LIBCMT:crt0dat.obj
 0004:000026c4       $pdata$raise$fin$0         000000018005d6c4     LIBCMT:winsig.obj
 0004:000026d0       $pdata$_locterm$fin$0      000000018005d6d0     LIBCMT:localref.obj
 0004:000026d0       $pdata$__updatetlocinfo$fin$0 000000018005d6d0     LIBCMT:localref.obj
 0004:000026dc       $pdata$_freefls$fin$1      000000018005d6dc     LIBCMT:tidtable.obj
 0004:000026dc       $pdata$_initptd$fin$1      000000018005d6dc     LIBCMT:tidtable.obj
 0004:000026e8       $pdata$_freefls$fin$0      000000018005d6e8     LIBCMT:tidtable.obj
 0004:000026e8       $pdata$_initptd$fin$0      000000018005d6e8     LIBCMT:tidtable.obj
 0004:000026f4       $pdata$fclose$fin$0        000000018005d6f4     LIBCMT:fflush.obj
 0004:000026f4       $pdata$fflush$fin$0        000000018005d6f4     LIBCMT:fflush.obj
 0004:00002700       $pdata$flsall$fin$0        000000018005d700     LIBCMT:fflush.obj
 0004:0000270c       $pdata$flsall$fin$1        000000018005d70c     LIBCMT:fflush.obj
 0004:00002718       $pdata$setvbuf$fin$0       000000018005d718     LIBCMT:setvbuf.obj
 0004:00002724       $pdata$fwprintf$fin$0      000000018005d724     LIBCMT:fwprintf.obj
 0004:00002730       $pdata$?fin$0@?0??_Type_info_dtor@type_info@@CAXPEAV1@@Z@4HA 000000018005d730     LIBCMT:typname.obj
 0004:0000273c       $pdata$_setmbcp$fin$0      000000018005d73c     LIBCMT:mbctype.obj
 0004:0000273c       $pdata$__updatetmbcinfo$fin$0 000000018005d73c     LIBCMT:mbctype.obj
 0004:00002748       $pdata$_wsetlocale$fin$1   000000018005d748     LIBCMT:wsetloca.obj
 0004:00002754       $pdata$_wsetlocale$fin$0   000000018005d754     LIBCMT:wsetloca.obj
 0004:00002760       $pdata$_wsetlocale$fin$2   000000018005d760     LIBCMT:wsetloca.obj
 0004:0000276c       $pdata$_ioinit$fin$0       000000018005d76c     LIBCMT:ioinit.obj
 0004:00002778       $pdata$__CxxCallCatchBlock$filt$0 000000018005d778     LIBCMT:frame.obj
 0004:00002784       $pdata$__CxxCallCatchBlock$fin$1 000000018005d784     LIBCMT:frame.obj
 0004:00002790       $pdata$__DestructExceptionObject$filt$0 000000018005d790     LIBCMT:frame.obj
 0004:0000279c       $pdata$__FrameUnwindToState$filt$0 000000018005d79c     LIBCMT:frame.obj
 0004:000027a8       $pdata$__FrameUnwindToState$fin$1 000000018005d7a8     LIBCMT:frame.obj
 0004:000027b4       $pdata$_IsNonwritableInCurrentImage$filt$0 000000018005d7b4     LIBCMT:pesect.obj
 0004:000027c0       $pdata$_lseeki64$fin$0     000000018005d7c0     LIBCMT:write.obj
 0004:000027c0       $pdata$_write$fin$0        000000018005d7c0     LIBCMT:write.obj
 0004:000027cc       $pdata$_fcloseall$fin$0    000000018005d7cc     LIBCMT:closeall.obj
 0004:000027d8       $pdata$_commit$fin$0       000000018005d7d8     LIBCMT:commit.obj
 0004:000027d8       $pdata$_close$fin$0        000000018005d7d8     LIBCMT:commit.obj
 0004:000027e4       $pdata$__lock_fhandle$fin$0 000000018005d7e4     LIBCMT:osfinfo.obj
 0004:000027f0       $pdata$??__F_Fac_tidy_reg@std@@YAXXZ 000000018005d7f0     libcpmt:locale0.obj
 0004:000027fc       $pdata$??__Fclassic_locale@std@@YAXXZ 000000018005d7fc     libcpmt:locale0.obj
 0004:00002808       $pdata$??__Finit_atexit@@YAXXZ 000000018005d808     libcpmt:iosptrs.obj
 0005:00000060       $R000000                   000000018005e060     * linker generated manifest res *

 Exports

  ordinal    name

        1    _register_oracledb_
